///////////////////////////////////////////////////////////////////////////////
//
// IAR ANSI C/C++ Compiler V7.50.2.10312/W32 for ARM      20/Feb/2016  20:48:44
// Copyright 1999-2015 IAR Systems AB.
//
//    Cpu mode     =  thumb
//    Endian       =  little
//    Source file  =  
//        H:\PhanLeSon\ActivNoise\Microphone\F7\Mic_Array_Project\Mic_Array\Projects\STM32746G\Applications\Audio\Mic_Array\Src\audio_application.c
//    Command line =  
//        H:\PhanLeSon\ActivNoise\Microphone\F7\Mic_Array_Project\Mic_Array\Projects\STM32746G\Applications\Audio\Mic_Array\Src\audio_application.c
//        -D USE_HAL_DRIVER -D STM32F746xx -D USE_STM32746G_DISCO -D
//        USE_IOEXPANDER -D USE_USB_FS -lC
//        H:\PhanLeSon\ActivNoise\Microphone\F7\Mic_Array_Project\Mic_Array\Projects\STM32746G\Applications\Audio\Mic_Array\EWARM\STM32F7\List
//        -lA
//        H:\PhanLeSon\ActivNoise\Microphone\F7\Mic_Array_Project\Mic_Array\Projects\STM32746G\Applications\Audio\Mic_Array\EWARM\STM32F7\List
//        -o
//        H:\PhanLeSon\ActivNoise\Microphone\F7\Mic_Array_Project\Mic_Array\Projects\STM32746G\Applications\Audio\Mic_Array\EWARM\STM32F7\Obj
//        --no_cse --no_unroll --no_inline --no_code_motion --no_tbaa
//        --no_clustering --no_scheduling --debug --endian=little
//        --cpu=Cortex-M7 -e --fpu=VFPv5_sp --dlib_config "D:\Program Files
//        (x86)\IAR Systems\Embedded Workbench
//        7.3\arm\INC\c\DLib_Config_Full.h" -I
//        H:\PhanLeSon\ActivNoise\Microphone\F7\Mic_Array_Project\Mic_Array\Projects\STM32746G\Applications\Audio\Mic_Array\EWARM\..\Inc\
//        -I
//        H:\PhanLeSon\ActivNoise\Microphone\F7\Mic_Array_Project\Mic_Array\Projects\STM32746G\Applications\Audio\Mic_Array\EWARM\..\..\..\..\..\..\Drivers\CMSIS\Device\ST\STM32F7xx\Include\
//        -I
//        H:\PhanLeSon\ActivNoise\Microphone\F7\Mic_Array_Project\Mic_Array\Projects\STM32746G\Applications\Audio\Mic_Array\EWARM\..\..\..\..\..\..\Drivers\STM32F7xx_HAL_Driver\Inc\
//        -I
//        H:\PhanLeSon\ActivNoise\Microphone\F7\Mic_Array_Project\Mic_Array\Projects\STM32746G\Applications\Audio\Mic_Array\EWARM\..\..\..\..\..\..\Drivers\BSP\STM32746G-Discovery\
//        -I
//        H:\PhanLeSon\ActivNoise\Microphone\F7\Mic_Array_Project\Mic_Array\Projects\STM32746G\Applications\Audio\Mic_Array\EWARM\..\..\..\..\..\..\Drivers\BSP\Components\Common\
//        -I
//        H:\PhanLeSon\ActivNoise\Microphone\F7\Mic_Array_Project\Mic_Array\Projects\STM32746G\Applications\Audio\Mic_Array\EWARM\..\..\..\..\..\..\Utilities\Log\
//        -I
//        H:\PhanLeSon\ActivNoise\Microphone\F7\Mic_Array_Project\Mic_Array\Projects\STM32746G\Applications\Audio\Mic_Array\EWARM\..\..\..\..\..\..\Utilities\Fonts\
//        -I
//        H:\PhanLeSon\ActivNoise\Microphone\F7\Mic_Array_Project\Mic_Array\Projects\STM32746G\Applications\Audio\Mic_Array\EWARM\..\..\..\..\..\..\Utilities\CPU\
//        -I
//        H:\PhanLeSon\ActivNoise\Microphone\F7\Mic_Array_Project\Mic_Array\Projects\STM32746G\Applications\Audio\Mic_Array\EWARM\..\..\..\..\..\..\Middlewares\ST\STM32_USB_Device_Library\Core\Inc\
//        -I
//        H:\PhanLeSon\ActivNoise\Microphone\F7\Mic_Array_Project\Mic_Array\Projects\STM32746G\Applications\Audio\Mic_Array\EWARM\..\..\..\..\..\..\Middlewares\ST\STM32_USB_HOST_Library\Core\Inc\
//        -I
//        H:\PhanLeSon\ActivNoise\Microphone\F7\Mic_Array_Project\Mic_Array\Projects\STM32746G\Applications\Audio\Mic_Array\EWARM\..\..\..\..\..\..\Middlewares\ST\STM32_USB_HOST_Library\Class\MSC\Inc\
//        -I
//        H:\PhanLeSon\ActivNoise\Microphone\F7\Mic_Array_Project\Mic_Array\Projects\STM32746G\Applications\Audio\Mic_Array\EWARM\..\..\..\..\..\..\Middlewares\Third_Party\FatFs\src\
//        -I
//        H:\PhanLeSon\ActivNoise\Microphone\F7\Mic_Array_Project\Mic_Array\Projects\STM32746G\Applications\Audio\Mic_Array\EWARM\..\..\..\..\..\..\Middlewares\Third_Party\FatFs\src\drivers\
//        -I
//        H:\PhanLeSon\ActivNoise\Microphone\F7\Mic_Array_Project\Mic_Array\Projects\STM32746G\Applications\Audio\Mic_Array\EWARM\..\..\..\..\..\..\Middlewares\ST\STM32_Audio\Addons\PDM\
//        -I
//        H:\PhanLeSon\ActivNoise\Microphone\F7\Mic_Array_Project\Mic_Array\Projects\STM32746G\Applications\Audio\Mic_Array\EWARM\..\..\..\..\..\..\Middlewares\ST\STM32_USB_Device_Library\Class\AUDIO\Inc\
//        -On --use_c++_inline --require_prototypes -I "D:\Program Files
//        (x86)\IAR Systems\Embedded Workbench 7.3\arm\CMSIS\Include\" -D
//        ARM_MATH_CM7
//    List file    =  
//        H:\PhanLeSon\ActivNoise\Microphone\F7\Mic_Array_Project\Mic_Array\Projects\STM32746G\Applications\Audio\Mic_Array\EWARM\STM32F7\List\audio_application.s
//
///////////////////////////////////////////////////////////////////////////////

        RTMODEL "__SystemLibrary", "DLib"
        RTMODEL "__dlib_file_descriptor", "1"
        RTMODEL "__dlib_full_locale_support", "1"
        AAPCS BASE,INTERWORK,VFP
        PRESERVE8
        REQUIRE8

        #define SHT_PROGBITS 0x1

        EXTERN Buffer1
        EXTERN Buffer2
        EXTERN Buffer3
        EXTERN Send_Audio_to_USB
        EXTERN buffer_switch

        PUBLIC AudioMerging
        PUBLIC AudioProcess
        PUBLIC PCM_Buffer1
        PUBLIC PCM_Buffer2
        PUBLIC PCM_Buffer3
        PUBLIC cntFrm
        
          CFI Names cfiNames0
          CFI StackFrame CFA R13 DATA
          CFI Resource R0:32, R1:32, R2:32, R3:32, R4:32, R5:32, R6:32, R7:32
          CFI Resource R8:32, R9:32, R10:32, R11:32, R12:32, R13:32, R14:32
          CFI Resource D0:64, D1:64, D2:64, D3:64, D4:64, D5:64, D6:64, D7:64
          CFI Resource D8:64, D9:64, D10:64, D11:64, D12:64, D13:64, D14:64
          CFI Resource D15:64
          CFI EndNames cfiNames0
        
          CFI Common cfiCommon0 Using cfiNames0
          CFI CodeAlign 2
          CFI DataAlign 4
          CFI ReturnAddress R14 CODE
          CFI CFA R13+0
          CFI R0 Undefined
          CFI R1 Undefined
          CFI R2 Undefined
          CFI R3 Undefined
          CFI R4 SameValue
          CFI R5 SameValue
          CFI R6 SameValue
          CFI R7 SameValue
          CFI R8 SameValue
          CFI R9 SameValue
          CFI R10 SameValue
          CFI R11 SameValue
          CFI R12 Undefined
          CFI R14 SameValue
          CFI D0 Undefined
          CFI D1 Undefined
          CFI D2 Undefined
          CFI D3 Undefined
          CFI D4 Undefined
          CFI D5 Undefined
          CFI D6 Undefined
          CFI D7 Undefined
          CFI D8 SameValue
          CFI D9 SameValue
          CFI D10 SameValue
          CFI D11 SameValue
          CFI D12 SameValue
          CFI D13 SameValue
          CFI D14 SameValue
          CFI D15 SameValue
          CFI EndCommon cfiCommon0
        
// H:\PhanLeSon\ActivNoise\Microphone\F7\Mic_Array_Project\Mic_Array\Projects\STM32746G\Applications\Audio\Mic_Array\Src\audio_application.c
//    1 
//    2 
//    3 /* Includes ------------------------------------------------------------------*/
//    4 #include "audio_application.h"
//    5 #include "main.h"
//    6 
//    7 /* Private typedef -----------------------------------------------------------*/
//    8 #define AUDIO_SIZE_ELEMENT (2*AUDIO_OUT_BUFFER_SIZE+10)
//    9 /* Private define ------------------------------------------------------------*/
//   10 /* Private macro -------------------------------------------------------------*/
//   11 
//   12 /** @defgroup AUDIO_APPLICATION_Exported_Variables 
//   13 * @{
//   14 */
//   15 #pragma location= (SDRAM_BANK_ADDR+ 3*BUFFER_SIZE_BYTE)

        ASEGN `.bss`:DATA:NOROOT,0c00181e0H
        DATA
//   16 int16_t PCM_Buffer1[AUDIO_CHANNELS*AUDIO_OUT_BUFFER_SIZE];
PCM_Buffer1:
        DS8 4096
//   17 #pragma location= (SDRAM_BANK_ADDR+ 3*BUFFER_SIZE_BYTE+2*AUDIO_CHANNELS*AUDIO_OUT_BUFFER_SIZE)

        ASEGN `.bss`:DATA:NOROOT,0c00191e0H
        DATA
//   18 int16_t PCM_Buffer2[AUDIO_CHANNELS*AUDIO_OUT_BUFFER_SIZE];
PCM_Buffer2:
        DS8 4096
//   19 #pragma location= (SDRAM_BANK_ADDR+ 3*BUFFER_SIZE_BYTE+4*AUDIO_CHANNELS*AUDIO_OUT_BUFFER_SIZE)

        ASEGN `.bss`:DATA:NOROOT,0c001a1e0H
        DATA
//   20 int16_t PCM_Buffer3[AUDIO_CHANNELS*AUDIO_OUT_BUFFER_SIZE];
PCM_Buffer3:
        DS8 4096
//   21 

        SECTION `.bss`:DATA:REORDER:NOROOT(1)
        DATA
//   22 uint16_t cntFrm;
cntFrm:
        DS8 2
//   23 
//   24 
//   25 extern uint8_t buffer_switch;
//   26 extern Mic_Array_Data Buffer1,Buffer2,Buffer3;
//   27 
//   28 /*-------------------------------------------------------------------------------------------------------------
//   29 			  
//   30 	Sequence  Record Data                     Processing Data                 Player Data
//   31 			  
//   32 	1-------  Buffer1                         Buffer2                         Buffer3
//   33 			  
//   34 	2-------  Buffer3                         Buffer1                         Buffer2		  
//   35 			  
//   36 	3-------  Buffer2                         Buffer3                         Buffer1 
//   37  ---------------------------------------------------------------------------------------------------------------*/
//   38 

        SECTION `.text`:CODE:NOROOT(1)
          CFI Block cfiBlock0 Using cfiCommon0
          CFI Function AudioProcess
        THUMB
//   39 void AudioProcess(void)
//   40 {
AudioProcess:
        PUSH     {R7,LR}
          CFI R14 Frame(CFA, -4)
          CFI CFA R13+8
//   41 
//   42 
//   43 #if 0
//   44     switch (buffer_switch)
//   45     {
//   46       case BUF1_PLAY:
//   47 		Send_Audio_to_USB((int16_t *)PCM_Buffer3, AUDIO_OUT_BUFFER_SIZE*AUDIO_CHANNELS);
//   48         break;
//   49       case BUF2_PLAY:
//   50         Send_Audio_to_USB((int16_t *)PCM_Buffer1, AUDIO_OUT_BUFFER_SIZE*AUDIO_CHANNELS); 
//   51         break;
//   52       case BUF3_PLAY:
//   53         Send_Audio_to_USB((int16_t *)PCM_Buffer2, AUDIO_OUT_BUFFER_SIZE*AUDIO_CHANNELS); 
//   54         break;
//   55       default:
//   56         break;
//   57     }
//   58 	
//   59 #endif
//   60     //Send_Audio_to_USB((int16_t *)PCM_Buffer1, AUDIO_OUT_BUFFER_SIZE*AUDIO_CHANNELS);
//   61     
//   62     Send_Audio_to_USB((int16_t *)&PCM_Buffer1[(AUDIO_SAMPLING_FREQUENCY/1000)*AUDIO_CHANNELS*cntFrm], (AUDIO_SAMPLING_FREQUENCY/1000)*AUDIO_CHANNELS);
        MOVS     R1,#+32
        LDR.N    R0,??DataTable1  ;; 0xc00181e0
        LDR.N    R2,??DataTable1_1
        LDRH     R2,[R2, #+0]
        MOVS     R3,#+64
        MLA      R0,R3,R2,R0
          CFI FunCall Send_Audio_to_USB
        BL       Send_Audio_to_USB
//   63     cntFrm++;
        LDR.N    R0,??DataTable1_1
        LDRH     R0,[R0, #+0]
        ADDS     R0,R0,#+1
        LDR.N    R1,??DataTable1_1
        STRH     R0,[R1, #+0]
//   64 	if (cntFrm==(AUDIO_OUT_BUFFER_SIZE/(AUDIO_SAMPLING_FREQUENCY/1000)))
        LDR.N    R0,??DataTable1_1
        LDRH     R0,[R0, #+0]
        CMP      R0,#+64
        BNE.N    ??AudioProcess_0
//   65 	{
//   66 		cntFrm = 0;
        MOVS     R0,#+0
        LDR.N    R1,??DataTable1_1
        STRH     R0,[R1, #+0]
//   67 	}
//   68 }
??AudioProcess_0:
        POP      {R0,PC}          ;; return
          CFI EndBlock cfiBlock0
        REQUIRE PCM_Buffer1
//   69 

        SECTION `.text`:CODE:NOROOT(1)
          CFI Block cfiBlock1 Using cfiCommon0
          CFI Function AudioMerging
          CFI NoCalls
        THUMB
//   70 void AudioMerging(void)
//   71 {
//   72 #if 0
//   73 	switch (buffer_switch)
//   74     {
//   75       case BUF1_PLAY:
//   76 	  	for (uint16_t i=0;i<2*AUDIO_OUT_BUFFER_SIZE;i++)
//   77  	  	{
//   78  	  	    if (i%2==0)
//   79  	  	    {
//   80 	 	  	    for(uint8_t j=0;j<AUDIO_CHANNELS;j++)
//   81 	 	  	    {
//   82 	                PCM_Buffer3[8*(i/2)+j] = (int16_t)*(&Buffer3.bufMIC1[0] + AUDIO_SIZE_ELEMENT*j + i);
//   83 	 	  	    }
//   84  	  	    }
//   85 		}
//   86 		
//   87         break;
//   88       case BUF2_PLAY:
//   89 	  	for (uint16_t i=0;i<2*AUDIO_OUT_BUFFER_SIZE;i++)
//   90  	  	{
//   91  	  	    if (i%2==0)
//   92  	  	    {
//   93 	 	  	    for(uint8_t j=0;j<AUDIO_CHANNELS;j++)
//   94 	 	  	    {
//   95 	                PCM_Buffer1[8*(i/2)+j] = (int16_t)*(&Buffer1.bufMIC1[0] + AUDIO_SIZE_ELEMENT*j + i);
//   96 	 	  	    }
//   97  	  	    }
//   98 		}	  	
//   99         break;
//  100       case BUF3_PLAY:
//  101 		for (uint16_t i=0;i<2*AUDIO_OUT_BUFFER_SIZE;i++)
//  102 		{
//  103 		  if (i%2==0)
//  104 		  {
//  105 			  for(uint8_t j=0;j<AUDIO_CHANNELS;j++)
//  106 			  {
//  107 				  PCM_Buffer2[8*(i/2)+j] = (int16_t)*(&Buffer2.bufMIC1[0] + AUDIO_SIZE_ELEMENT*j + i);
//  108 			  }
//  109 		  }
//  110 		}
//  111         break;
//  112       default:
//  113         break;
//  114     }
//  115 #endif
//  116 switch (buffer_switch)
AudioMerging:
        LDR.N    R0,??DataTable1_2
        LDRB     R0,[R0, #+0]
        CMP      R0,#+0
        BEQ.N    ??AudioMerging_0
        CMP      R0,#+2
        BEQ.N    ??AudioMerging_1
        BCC.N    ??AudioMerging_2
        B.N      ??AudioMerging_3
//  117 {
//  118   case BUF1_PLAY:
//  119 	for (uint16_t i=0;i<AUDIO_CHANNELS*AUDIO_OUT_BUFFER_SIZE;i++)
??AudioMerging_0:
        MOVS     R0,#+0
??AudioMerging_4:
        UXTH     R0,R0            ;; ZeroExt  R0,R0,#+16,#+16
        CMP      R0,#+2048
        BGE.N    ??AudioMerging_5
//  120 	{
//  121 	  PCM_Buffer1[i] = Buffer3.bufMIC5[i];			
        LDR.N    R1,??DataTable1_3
        UXTH     R0,R0            ;; ZeroExt  R0,R0,#+16,#+16
        ADDS     R1,R1,R0, LSL #+1
        MOVW     R2,#+16464
        LDRH     R1,[R2, R1]
        LDR.N    R2,??DataTable1  ;; 0xc00181e0
        UXTH     R0,R0            ;; ZeroExt  R0,R0,#+16,#+16
        STRH     R1,[R2, R0, LSL #+1]
//  122 	}
        ADDS     R0,R0,#+1
        B.N      ??AudioMerging_4
//  123 	
//  124 	break;
??AudioMerging_5:
        B.N      ??AudioMerging_6
//  125   case BUF2_PLAY:
//  126 	for (uint16_t i=0;i<AUDIO_CHANNELS*AUDIO_OUT_BUFFER_SIZE;i++)
??AudioMerging_2:
        MOVS     R0,#+0
??AudioMerging_7:
        UXTH     R0,R0            ;; ZeroExt  R0,R0,#+16,#+16
        CMP      R0,#+2048
        BGE.N    ??AudioMerging_8
//  127 	{
//  128 	  PCM_Buffer1[i] = Buffer1.bufMIC5[i];			
        LDR.N    R1,??DataTable1_4
        UXTH     R0,R0            ;; ZeroExt  R0,R0,#+16,#+16
        ADDS     R1,R1,R0, LSL #+1
        MOVW     R2,#+16464
        LDRH     R1,[R2, R1]
        LDR.N    R2,??DataTable1  ;; 0xc00181e0
        UXTH     R0,R0            ;; ZeroExt  R0,R0,#+16,#+16
        STRH     R1,[R2, R0, LSL #+1]
//  129 	}		
        ADDS     R0,R0,#+1
        B.N      ??AudioMerging_7
//  130 	break;
??AudioMerging_8:
        B.N      ??AudioMerging_6
//  131   case BUF3_PLAY:
//  132 	  for (uint16_t i=0;i<AUDIO_CHANNELS*AUDIO_OUT_BUFFER_SIZE;i++)
??AudioMerging_1:
        MOVS     R0,#+0
??AudioMerging_9:
        UXTH     R0,R0            ;; ZeroExt  R0,R0,#+16,#+16
        CMP      R0,#+2048
        BGE.N    ??AudioMerging_10
//  133 	  {
//  134 		PCM_Buffer1[i] = Buffer2.bufMIC5[i];		  
        LDR.N    R1,??DataTable1_5
        UXTH     R0,R0            ;; ZeroExt  R0,R0,#+16,#+16
        ADDS     R1,R1,R0, LSL #+1
        MOVW     R2,#+16464
        LDRH     R1,[R2, R1]
        LDR.N    R2,??DataTable1  ;; 0xc00181e0
        UXTH     R0,R0            ;; ZeroExt  R0,R0,#+16,#+16
        STRH     R1,[R2, R0, LSL #+1]
//  135 	  }
        ADDS     R0,R0,#+1
        B.N      ??AudioMerging_9
//  136 	break;
??AudioMerging_10:
        B.N      ??AudioMerging_6
//  137   default:
//  138 	break;
//  139 }
//  140 cntFrm=0;
??AudioMerging_3:
??AudioMerging_6:
        MOVS     R0,#+0
        LDR.N    R1,??DataTable1_1
        STRH     R0,[R1, #+0]
//  141 
//  142 }
        BX       LR               ;; return
          CFI EndBlock cfiBlock1
        REQUIRE PCM_Buffer1

        SECTION `.text`:CODE:NOROOT(2)
        SECTION_TYPE SHT_PROGBITS, 0
        DATA
??DataTable1:
        DC32     0xc00181e0

        SECTION `.text`:CODE:NOROOT(2)
        SECTION_TYPE SHT_PROGBITS, 0
        DATA
??DataTable1_1:
        DC32     cntFrm

        SECTION `.text`:CODE:NOROOT(2)
        SECTION_TYPE SHT_PROGBITS, 0
        DATA
??DataTable1_2:
        DC32     buffer_switch

        SECTION `.text`:CODE:NOROOT(2)
        SECTION_TYPE SHT_PROGBITS, 0
        DATA
??DataTable1_3:
        DC32     Buffer3

        SECTION `.text`:CODE:NOROOT(2)
        SECTION_TYPE SHT_PROGBITS, 0
        DATA
??DataTable1_4:
        DC32     Buffer1

        SECTION `.text`:CODE:NOROOT(2)
        SECTION_TYPE SHT_PROGBITS, 0
        DATA
??DataTable1_5:
        DC32     Buffer2

        SECTION `.iar_vfe_header`:DATA:NOALLOC:NOROOT(2)
        SECTION_TYPE SHT_PROGBITS, 0
        DATA
        DC32 0

        SECTION __DLIB_PERTHREAD:DATA:REORDER:NOROOT(0)
        SECTION_TYPE SHT_PROGBITS, 0

        SECTION __DLIB_PERTHREAD_init:DATA:REORDER:NOROOT(0)
        SECTION_TYPE SHT_PROGBITS, 0

        END
//  143 
//  144 
//  145 
// 
//      2 bytes in section .bss
// 12 288 bytes in section .bss  (abs)
//    208 bytes in section .text
// 
//    208 bytes of CODE memory
// 12 290 bytes of DATA memory
//
//Errors: none
//Warnings: none
