///////////////////////////////////////////////////////////////////////////////
//
// IAR ANSI C/C++ Compiler V7.50.2.10312/W32 for ARM      13/Feb/2016  11:44:24
// Copyright 1999-2015 IAR Systems AB.
//
//    Cpu mode     =  thumb
//    Endian       =  little
//    Source file  =  
//        H:\PhanLeSon\ActivNoise\Microphone\F7\Mic_Array_Project\Mic_Array\Projects\STM32746G\Applications\Audio\Mic_Array\Src\main.c
//    Command line =  
//        H:\PhanLeSon\ActivNoise\Microphone\F7\Mic_Array_Project\Mic_Array\Projects\STM32746G\Applications\Audio\Mic_Array\Src\main.c
//        -D USE_HAL_DRIVER -D STM32F746xx -D USE_STM32746G_DISCO -D
//        USE_IOEXPANDER -D USE_USB_FS -lC
//        H:\PhanLeSon\ActivNoise\Microphone\F7\Mic_Array_Project\Mic_Array\Projects\STM32746G\Applications\Audio\Mic_Array\EWARM\STM32F7\List
//        -lA
//        H:\PhanLeSon\ActivNoise\Microphone\F7\Mic_Array_Project\Mic_Array\Projects\STM32746G\Applications\Audio\Mic_Array\EWARM\STM32F7\List
//        -o
//        H:\PhanLeSon\ActivNoise\Microphone\F7\Mic_Array_Project\Mic_Array\Projects\STM32746G\Applications\Audio\Mic_Array\EWARM\STM32F7\Obj
//        --no_cse --no_unroll --no_inline --no_code_motion --no_tbaa
//        --no_clustering --no_scheduling --debug --endian=little
//        --cpu=Cortex-M7 -e --fpu=VFPv5_sp --dlib_config "D:\Program Files
//        (x86)\IAR Systems\Embedded Workbench
//        7.3\arm\INC\c\DLib_Config_Full.h" -I
//        H:\PhanLeSon\ActivNoise\Microphone\F7\Mic_Array_Project\Mic_Array\Projects\STM32746G\Applications\Audio\Mic_Array\EWARM\..\Inc\
//        -I
//        H:\PhanLeSon\ActivNoise\Microphone\F7\Mic_Array_Project\Mic_Array\Projects\STM32746G\Applications\Audio\Mic_Array\EWARM\..\..\..\..\..\..\Drivers\CMSIS\Device\ST\STM32F7xx\Include\
//        -I
//        H:\PhanLeSon\ActivNoise\Microphone\F7\Mic_Array_Project\Mic_Array\Projects\STM32746G\Applications\Audio\Mic_Array\EWARM\..\..\..\..\..\..\Drivers\STM32F7xx_HAL_Driver\Inc\
//        -I
//        H:\PhanLeSon\ActivNoise\Microphone\F7\Mic_Array_Project\Mic_Array\Projects\STM32746G\Applications\Audio\Mic_Array\EWARM\..\..\..\..\..\..\Drivers\BSP\STM32746G-Discovery\
//        -I
//        H:\PhanLeSon\ActivNoise\Microphone\F7\Mic_Array_Project\Mic_Array\Projects\STM32746G\Applications\Audio\Mic_Array\EWARM\..\..\..\..\..\..\Drivers\BSP\Components\Common\
//        -I
//        H:\PhanLeSon\ActivNoise\Microphone\F7\Mic_Array_Project\Mic_Array\Projects\STM32746G\Applications\Audio\Mic_Array\EWARM\..\..\..\..\..\..\Utilities\Log\
//        -I
//        H:\PhanLeSon\ActivNoise\Microphone\F7\Mic_Array_Project\Mic_Array\Projects\STM32746G\Applications\Audio\Mic_Array\EWARM\..\..\..\..\..\..\Utilities\Fonts\
//        -I
//        H:\PhanLeSon\ActivNoise\Microphone\F7\Mic_Array_Project\Mic_Array\Projects\STM32746G\Applications\Audio\Mic_Array\EWARM\..\..\..\..\..\..\Utilities\CPU\
//        -I
//        H:\PhanLeSon\ActivNoise\Microphone\F7\Mic_Array_Project\Mic_Array\Projects\STM32746G\Applications\Audio\Mic_Array\EWARM\..\..\..\..\..\..\Middlewares\ST\STM32_USB_Device_Library\Core\Inc\
//        -I
//        H:\PhanLeSon\ActivNoise\Microphone\F7\Mic_Array_Project\Mic_Array\Projects\STM32746G\Applications\Audio\Mic_Array\EWARM\..\..\..\..\..\..\Middlewares\ST\STM32_USB_HOST_Library\Core\Inc\
//        -I
//        H:\PhanLeSon\ActivNoise\Microphone\F7\Mic_Array_Project\Mic_Array\Projects\STM32746G\Applications\Audio\Mic_Array\EWARM\..\..\..\..\..\..\Middlewares\ST\STM32_USB_HOST_Library\Class\MSC\Inc\
//        -I
//        H:\PhanLeSon\ActivNoise\Microphone\F7\Mic_Array_Project\Mic_Array\Projects\STM32746G\Applications\Audio\Mic_Array\EWARM\..\..\..\..\..\..\Middlewares\Third_Party\FatFs\src\
//        -I
//        H:\PhanLeSon\ActivNoise\Microphone\F7\Mic_Array_Project\Mic_Array\Projects\STM32746G\Applications\Audio\Mic_Array\EWARM\..\..\..\..\..\..\Middlewares\Third_Party\FatFs\src\drivers\
//        -I
//        H:\PhanLeSon\ActivNoise\Microphone\F7\Mic_Array_Project\Mic_Array\Projects\STM32746G\Applications\Audio\Mic_Array\EWARM\..\..\..\..\..\..\Middlewares\ST\STM32_Audio\Addons\PDM\
//        -I
//        H:\PhanLeSon\ActivNoise\Microphone\F7\Mic_Array_Project\Mic_Array\Projects\STM32746G\Applications\Audio\Mic_Array\EWARM\..\..\..\..\..\..\Middlewares\ST\STM32_USB_Device_Library\Class\AUDIO\Inc\
//        -On --use_c++_inline --require_prototypes -I "D:\Program Files
//        (x86)\IAR Systems\Embedded Workbench 7.3\arm\CMSIS\Include\" -D
//        ARM_MATH_CM7
//    List file    =  
//        H:\PhanLeSon\ActivNoise\Microphone\F7\Mic_Array_Project\Mic_Array\Projects\STM32746G\Applications\Audio\Mic_Array\EWARM\STM32F7\List\main.s
//
///////////////////////////////////////////////////////////////////////////////

        RTMODEL "__SystemLibrary", "DLib"
        RTMODEL "__dlib_file_descriptor", "1"
        RTMODEL "__dlib_full_locale_support", "1"
        RTMODEL "__iar_require _Printf", ""
        AAPCS BASE,INTERWORK,VFP
        PRESERVE8
        REQUIRE8

        #define SHT_PROGBITS 0x1

        EXTERN AUDIO_Desc
        EXTERN AUDIO_InitApplication
        EXTERN AudioMerging
        EXTERN AudioProcess
        EXTERN Audio_MAL_Play
        EXTERN BSP_LED_Init
        EXTERN BSP_LED_Toggle
        EXTERN BSP_SDRAM_Init
        EXTERN Buffer1
        EXTERN Buffer2
        EXTERN Buffer3
        EXTERN CrssCor
        EXTERN EnergySound
        EXTERN FactorUpd
        EXTERN HAL_GPIO_Init
        EXTERN HAL_GPIO_WritePin
        EXTERN HAL_I2C_Init
        EXTERN HAL_Init
        EXTERN HAL_NVIC_DisableIRQ
        EXTERN HAL_NVIC_EnableIRQ
        EXTERN HAL_NVIC_SetPriority
        EXTERN HAL_PWREx_EnableOverDrive
        EXTERN HAL_RCCEx_GetPeriphCLKConfig
        EXTERN HAL_RCCEx_PeriphCLKConfig
        EXTERN HAL_RCC_ClockConfig
        EXTERN HAL_RCC_OscConfig
        EXTERN HAL_UART_Init
        EXTERN HAL_UART_Transmit_IT
        EXTERN I2S1_stNipple
        EXTERN MIC1TO6_Init
        EXTERN PDM2PCMSDO78
        EXTERN SPI4_stPosShft
        EXTERN STA321MP_Ini
        EXTERN USBD_AUDIO
        EXTERN USBD_AUDIO_Init_Microphone_Descriptor
        EXTERN USBD_AUDIO_RegisterInterface
        EXTERN USBD_AUDIO_fops
        EXTERN USBD_Init
        EXTERN USBD_RegisterClass
        EXTERN USBD_Start
        EXTERN WaveRecord_flgIni
        EXTERN XferCplt
        EXTERN arm_rfft_init_f32
        EXTERN cntStrt
        EXTERN hi2c2
        EXTERN sprintf

        PUBLIC ADD_U8
        PUBLIC BSP_AUDIO_OUT_ClockConfig
        PUBLIC BufferTest
        PUBLIC ButtonInit
        PUBLIC Command_index
        PUBLIC DFT_Init
        PUBLIC DeltaBuf1
        PUBLIC DeltaBuf1Old
        PUBLIC EXTI15_10_IRQHandler
        PUBLIC EXTI4_IRQHandler
        PUBLIC EXTI9_5_IRQHandler
        PUBLIC FacMic
        PUBLIC GPIO_INS
        PUBLIC HAL_I2C_MspInit
        PUBLIC HAL_I2S_TxCpltCallback
        PUBLIC HAL_UART_MspInit
        PUBLIC I2S2_idxTmp
        PUBLIC IS
        PUBLIC ISS
        PUBLIC MX_I2C2_Init
        PUBLIC Main_CoefMor
        PUBLIC `S1`
        PUBLIC `S2`
        PUBLIC `S3`
        PUBLIC `S4`
        PUBLIC SS1
        PUBLIC SS2
        PUBLIC SS3
        PUBLIC SS4
        PUBLIC SrvB_Debound
        PUBLIC SumDelay
        PUBLIC Toggle_Leds
        PUBLIC USART3_Init
        PUBLIC WaveRec_idxSens1
        PUBLIC WaveRec_idxSens2
        PUBLIC WaveRec_idxSens3
        PUBLIC WaveRec_idxSens4
        PUBLIC WaveRec_idxSens5
        PUBLIC WaveRec_idxSens6
        PUBLIC aRxBuffer
        PUBLIC appli_state
        PUBLIC btnSW1
        PUBLIC btnSW2
        PUBLIC bufferSum
        PUBLIC buffer_switch
        PUBLIC cntRisingEXTI
        PUBLIC cntTime200
        PUBLIC flg10ms
        PUBLIC flgDlyUpd
        PUBLIC flgS2
        PUBLIC flgS2Flt
        PUBLIC flgS2Ins
        PUBLIC flgS3
        PUBLIC flgS3Flt
        PUBLIC flgS3Ins
        PUBLIC flgS4
        PUBLIC flgS4Flt
        PUBLIC flgS4Ins
        PUBLIC flgSTAIni
        PUBLIC hUSBDDevice
        PUBLIC hUSBHost
        PUBLIC hspi4
        PUBLIC huart3
        PUBLIC idxDec
        PUBLIC idxLatency12
        PUBLIC idxLatency13
        PUBLIC idxLatency14
        PUBLIC idxLatency25
        PUBLIC idxLatency63
        PUBLIC idxLatency78
        PUBLIC idxSPI5DataBuf3
        PUBLIC main
        PUBLIC pI2CData
        PUBLIC pI2CRx
        PUBLIC pUARTBuf
        PUBLIC stDir
        PUBLIC stFrstFrmStore
        
          CFI Names cfiNames0
          CFI StackFrame CFA R13 DATA
          CFI Resource R0:32, R1:32, R2:32, R3:32, R4:32, R5:32, R6:32, R7:32
          CFI Resource R8:32, R9:32, R10:32, R11:32, R12:32, R13:32, R14:32
          CFI Resource D0:64, D1:64, D2:64, D3:64, D4:64, D5:64, D6:64, D7:64
          CFI Resource D8:64, D9:64, D10:64, D11:64, D12:64, D13:64, D14:64
          CFI Resource D15:64
          CFI EndNames cfiNames0
        
          CFI Common cfiCommon0 Using cfiNames0
          CFI CodeAlign 2
          CFI DataAlign 4
          CFI ReturnAddress R14 CODE
          CFI CFA R13+0
          CFI R0 Undefined
          CFI R1 Undefined
          CFI R2 Undefined
          CFI R3 Undefined
          CFI R4 SameValue
          CFI R5 SameValue
          CFI R6 SameValue
          CFI R7 SameValue
          CFI R8 SameValue
          CFI R9 SameValue
          CFI R10 SameValue
          CFI R11 SameValue
          CFI R12 Undefined
          CFI R14 SameValue
          CFI D0 Undefined
          CFI D1 Undefined
          CFI D2 Undefined
          CFI D3 Undefined
          CFI D4 Undefined
          CFI D5 Undefined
          CFI D6 Undefined
          CFI D7 Undefined
          CFI D8 SameValue
          CFI D9 SameValue
          CFI D10 SameValue
          CFI D11 SameValue
          CFI D12 SameValue
          CFI D13 SameValue
          CFI D14 SameValue
          CFI D15 SameValue
          CFI EndCommon cfiCommon0
        
// H:\PhanLeSon\ActivNoise\Microphone\F7\Mic_Array_Project\Mic_Array\Projects\STM32746G\Applications\Audio\Mic_Array\Src\main.c
//    1 /* Includes ------------------------------------------------------------------*/
//    2 #include "main.h"

        SECTION `.text`:CODE:NOROOT(1)
          CFI Block cfiBlock0 Using cfiCommon0
          CFI Function SCB_EnableICache
          CFI NoCalls
        THUMB
// static __interwork __softfp void SCB_EnableICache(void)
SCB_EnableICache:
        DSB      
        ISB      
        MOVS     R0,#+0
        LDR.W    R1,??DataTable9  ;; 0xe000ef50
        STR      R0,[R1, #+0]
        LDR.W    R0,??DataTable15  ;; 0xe000ed14
        LDR      R0,[R0, #+0]
        ORRS     R0,R0,#0x20000
        LDR.W    R1,??DataTable15  ;; 0xe000ed14
        STR      R0,[R1, #+0]
        DSB      
        ISB      
        BX       LR               ;; return
          CFI EndBlock cfiBlock0

        SECTION `.text`:CODE:NOROOT(1)
          CFI Block cfiBlock1 Using cfiCommon0
          CFI Function SCB_EnableDCache
          CFI NoCalls
        THUMB
// static __interwork __softfp void SCB_EnableDCache(void)
SCB_EnableDCache:
        PUSH     {R4}
          CFI R4 Frame(CFA, -4)
          CFI CFA R13+4
        MOVS     R3,#+0
        LDR.W    R4,??DataTable10  ;; 0xe000ed84
        STR      R3,[R4, #+0]
        DSB      
        LDR.W    R3,??DataTable10_1  ;; 0xe000ed80
        LDR      R3,[R3, #+0]
        MOVS     R0,R3
        UBFX     R3,R0,#+13,#+15
        MOVS     R1,R3
??SCB_EnableDCache_0:
        UBFX     R3,R0,#+3,#+10
        MOVS     R2,R3
??SCB_EnableDCache_1:
        MOVW     R3,#+16352
        ANDS     R3,R3,R1, LSL #+5
        ORRS     R3,R3,R2, LSL #+30
        LDR.W    R4,??DataTable10_2  ;; 0xe000ef60
        STR      R3,[R4, #+0]
        MOVS     R3,R2
        SUBS     R2,R3,#+1
        CMP      R3,#+0
        BNE.N    ??SCB_EnableDCache_1
        MOVS     R3,R1
        SUBS     R1,R3,#+1
        CMP      R3,#+0
        BNE.N    ??SCB_EnableDCache_0
        DSB      
        LDR.W    R3,??DataTable15  ;; 0xe000ed14
        LDR      R3,[R3, #+0]
        ORRS     R3,R3,#0x10000
        LDR.W    R4,??DataTable15  ;; 0xe000ed14
        STR      R3,[R4, #+0]
        DSB      
        ISB      
        POP      {R4}
          CFI R4 SameValue
          CFI CFA R13+0
        BX       LR               ;; return
          CFI EndBlock cfiBlock1
//    3 #include "DSP.h"
//    4 //#include "waveplayer.h"
//    5 #include "waverecorder.h"
//    6 #include "stm32f7xx_hal_usart.h"
//    7 #include "pdm_filter.h"
//    8 #include "arm_math.h"
//    9 #include <stdio.h>
//   10 
//   11 
//   12 /* Private typedef -----------------------------------------------------------*/
//   13 /* Private define ------------------------------------------------------------*/
//   14 /* Private macro -------------------------------------------------------------*/
//   15 
//   16 
//   17 /* EXTERN VARIABLES ----------------------------------------------------------*/
//   18 //extern __IO AUDIO_IN_BufferTypeDef Buffer1, Buffer2, BufferCtlRecIn;
//   19 //AUDIO_IN_BufferTypeDef Buffer3;
//   20 
//   21 
//   22 
//   23 
//   24 extern Mic_Array_Data Buffer1,Buffer2,Buffer3;
//   25 
//   26 extern __IO uint8_t XferCplt;
//   27 extern __IO AUDIO_IN_BufferTypeDef BufferCtlRecIn;
//   28 extern DMA_HandleTypeDef     DmaHandle;
//   29 
//   30 extern SAI_HandleTypeDef         haudio_out_sai;
//   31 extern uint8_t WaveRecord_flgIni;
//   32 extern uint32_t EnergySound;
//   33 extern I2C_HandleTypeDef hi2c2;
//   34 extern __IO uint16_t cntStrt;
//   35 extern __IO int16_t SPI1_stNipple,I2S1_stNipple, I2S2_stNipple;
//   36 extern __IO   uint8_t I2S1_stPosShft,I2S2_stPosShft,SPI4_stPosShft;
//   37 extern USBD_AUDIO_ItfTypeDef  USBD_AUDIO_fops;
//   38 /* GLOBAL VARIABLE -----------------------------------------------------------*/

        SECTION `.bss`:DATA:REORDER:NOROOT(2)
        DATA
//   39 USBH_HandleTypeDef hUSBHost;
hUSBHost:
        DS8 696

        SECTION `.bss`:DATA:REORDER:NOROOT(2)
        DATA
//   40 USBD_HandleTypeDef hUSBDDevice;
hUSBDDevice:
        DS8 548

        SECTION `.bss`:DATA:REORDER:NOROOT(0)
        DATA
//   41 AUDIO_ApplicationTypeDef appli_state = APPLICATION_IDLE;//APPLICATION_IDLE
appli_state:
        DS8 1
//   42 

        SECTION `.bss`:DATA:REORDER:NOROOT(2)
        DATA
//   43 UART_HandleTypeDef huart3;
huart3:
        DS8 112

        SECTION `.bss`:DATA:REORDER:NOROOT(2)
        DATA
//   44 SPI_HandleTypeDef hspi4;
hspi4:
        DS8 100

        SECTION `.bss`:DATA:REORDER:NOROOT(2)
        DATA
//   45 GPIO_InitTypeDef GPIO_INS;
GPIO_INS:
        DS8 20

        SECTION `.bss`:DATA:REORDER:NOROOT(2)
        DATA
//   46 Mic_Array_Coef_f FacMic;
FacMic:
        DS8 24
//   47 	  

        SECTION `.data`:DATA:REORDER:NOROOT(2)
        DATA
//   48 uint8_t  pI2CData[20]= {0,10,20,30,40,50,60,70,80,90,100,110,120,130,140,150,160,170,180,190};
pI2CData:
        DC8 0, 10, 20, 30, 40, 50, 60, 70, 80, 90, 100, 110, 120, 130, 140, 150
        DC8 160, 170, 180, 190

        SECTION `.bss`:DATA:REORDER:NOROOT(2)
        DATA
//   49 uint8_t  pI2CRx[10];
pI2CRx:
        DS8 12

        SECTION `.bss`:DATA:REORDER:NOROOT(2)
        DATA
//   50 uint16_t BufferTest[2*AUDIO_OUT_BUFFER_SIZE];
BufferTest:
        DS8 4096

        SECTION `.bss`:DATA:REORDER:NOROOT(2)
        DATA
//   51 uint16_t bufferSum[AUDIO_OUT_BUFFER_SIZE];
bufferSum:
        DS8 2048
//   52 

        SECTION `.bss`:DATA:REORDER:NOROOT(1)
        DATA
//   53 __IO uint16_t  WaveRec_idxSens4,WaveRec_idxSens3,I2S2_idxTmp;
WaveRec_idxSens4:
        DS8 2

        SECTION `.bss`:DATA:REORDER:NOROOT(1)
        DATA
WaveRec_idxSens3:
        DS8 2

        SECTION `.bss`:DATA:REORDER:NOROOT(1)
        DATA
I2S2_idxTmp:
        DS8 2

        SECTION `.bss`:DATA:REORDER:NOROOT(1)
        DATA
//   54 __IO uint16_t  WaveRec_idxSens1,WaveRec_idxSens2;
WaveRec_idxSens1:
        DS8 2

        SECTION `.bss`:DATA:REORDER:NOROOT(1)
        DATA
WaveRec_idxSens2:
        DS8 2

        SECTION `.bss`:DATA:REORDER:NOROOT(1)
        DATA
//   55 __IO uint16_t  WaveRec_idxSens5,WaveRec_idxSens6;
WaveRec_idxSens5:
        DS8 2

        SECTION `.bss`:DATA:REORDER:NOROOT(1)
        DATA
WaveRec_idxSens6:
        DS8 2

        SECTION `.bss`:DATA:REORDER:NOROOT(1)
        DATA
//   56 __IO uint16_t  idxSPI5DataBuf3;
idxSPI5DataBuf3:
        DS8 2

        SECTION `.bss`:DATA:REORDER:NOROOT(1)
        DATA
//   57 __IO uint16_t  cntRisingEXTI;
cntRisingEXTI:
        DS8 2

        SECTION `.bss`:DATA:REORDER:NOROOT(0)
        DATA
//   58 __IO uint8_t   btnSW1,btnSW2;
btnSW1:
        DS8 1

        SECTION `.bss`:DATA:REORDER:NOROOT(0)
        DATA
btnSW2:
        DS8 1

        SECTION `.bss`:DATA:REORDER:NOROOT(0)
        DATA
//   59 __IO uint8_t flgDlyUpd; 
flgDlyUpd:
        DS8 1
//   60 
//   61 /* Buffer used for reception */

        SECTION `.bss`:DATA:REORDER:NOROOT(2)
        DATA
//   62 uint8_t aRxBuffer[1024];
aRxBuffer:
        DS8 1024

        SECTION `.bss`:DATA:REORDER:NOROOT(0)
        DATA
//   63 uint8_t idxDec,stFrstFrmStore;
idxDec:
        DS8 1

        SECTION `.bss`:DATA:REORDER:NOROOT(0)
        DATA
stFrstFrmStore:
        DS8 1

        SECTION `.bss`:DATA:REORDER:NOROOT(1)
        DATA
//   64 int16_t DeltaBuf1,DeltaBuf1Old;
DeltaBuf1:
        DS8 2

        SECTION `.bss`:DATA:REORDER:NOROOT(1)
        DATA
DeltaBuf1Old:
        DS8 2

        SECTION `.bss`:DATA:REORDER:NOROOT(1)
        DATA
//   65 int16_t idxLatency13,idxLatency12,idxLatency14,idxLatency25,idxLatency63,idxLatency78;
idxLatency13:
        DS8 2

        SECTION `.bss`:DATA:REORDER:NOROOT(1)
        DATA
idxLatency12:
        DS8 2

        SECTION `.bss`:DATA:REORDER:NOROOT(1)
        DATA
idxLatency14:
        DS8 2

        SECTION `.bss`:DATA:REORDER:NOROOT(1)
        DATA
idxLatency25:
        DS8 2

        SECTION `.bss`:DATA:REORDER:NOROOT(1)
        DATA
idxLatency63:
        DS8 2

        SECTION `.bss`:DATA:REORDER:NOROOT(1)
        DATA
idxLatency78:
        DS8 2
//   66 

        SECTION `.bss`:DATA:REORDER:NOROOT(0)
        DATA
//   67 __IO char flg10ms;
flg10ms:
        DS8 1

        SECTION `.bss`:DATA:REORDER:NOROOT(0)
        DATA
//   68 uint8_t flgSTAIni;
flgSTAIni:
        DS8 1

        SECTION `.bss`:DATA:REORDER:NOROOT(1)
        DATA
//   69 uint16_t cntTime200;
cntTime200:
        DS8 2
//   70 

        SECTION `.data`:DATA:REORDER:NOROOT(0)
        DATA
//   71 uint8_t buffer_switch = 1;
buffer_switch:
        DC8 1

        SECTION `.data`:DATA:REORDER:NOROOT(0)
        DATA
//   72 uint8_t Command_index=1;
Command_index:
        DC8 1
//   73 
//   74 #if MAIN_CRSCORR
//   75 arm_rfft_instance_q15 RealFFT_Ins, RealIFFT_Ins;
//   76 #endif
//   77 

        SECTION `.bss`:DATA:REORDER:NOROOT(2)
        DATA
//   78 arm_cfft_radix4_instance_f32 SS1,SS2,SS3,SS4,ISS; 
SS1:
        DS8 20

        SECTION `.bss`:DATA:REORDER:NOROOT(2)
        DATA
SS2:
        DS8 20

        SECTION `.bss`:DATA:REORDER:NOROOT(2)
        DATA
SS3:
        DS8 20

        SECTION `.bss`:DATA:REORDER:NOROOT(2)
        DATA
SS4:
        DS8 20

        SECTION `.bss`:DATA:REORDER:NOROOT(2)
        DATA
ISS:
        DS8 20

        SECTION `.bss`:DATA:REORDER:NOROOT(2)
        DATA
//   79 arm_rfft_instance_f32 S1,S2,S3,S4,IS;
`S1`:
        DS8 24

        SECTION `.bss`:DATA:REORDER:NOROOT(2)
        DATA
`S2`:
        DS8 24

        SECTION `.bss`:DATA:REORDER:NOROOT(2)
        DATA
`S3`:
        DS8 24

        SECTION `.bss`:DATA:REORDER:NOROOT(2)
        DATA
`S4`:
        DS8 24

        SECTION `.bss`:DATA:REORDER:NOROOT(2)
        DATA
IS:
        DS8 24
//   80 
//   81 //arm_rfft_fast_instance_f32 S1,S2,S3,S4,IS;
//   82 
//   83 
//   84 #if (DEBUG)

        SECTION `.bss`:DATA:REORDER:NOROOT(2)
        DATA
//   85 uint8_t  pUARTBuf[128];
pUARTBuf:
        DS8 128

        SECTION `.bss`:DATA:REORDER:NOROOT(2)
        DATA
//   86 uint32_t Main_CoefMor;
Main_CoefMor:
        DS8 4

        SECTION `.bss`:DATA:REORDER:NOROOT(0)
        DATA
//   87 uint8_t stDir,flgS2,flgS3,flgS4,flgS2Flt,flgS3Flt,flgS4Flt;
stDir:
        DS8 1

        SECTION `.bss`:DATA:REORDER:NOROOT(0)
        DATA
flgS2:
        DS8 1

        SECTION `.bss`:DATA:REORDER:NOROOT(0)
        DATA
flgS3:
        DS8 1

        SECTION `.bss`:DATA:REORDER:NOROOT(0)
        DATA
flgS4:
        DS8 1

        SECTION `.bss`:DATA:REORDER:NOROOT(0)
        DATA
flgS2Flt:
        DS8 1

        SECTION `.bss`:DATA:REORDER:NOROOT(0)
        DATA
flgS3Flt:
        DS8 1

        SECTION `.bss`:DATA:REORDER:NOROOT(0)
        DATA
flgS4Flt:
        DS8 1

        SECTION `.bss`:DATA:REORDER:NOROOT(0)
        DATA
//   88 uint8_t flgS2Ins,flgS3Ins,flgS4Ins;
flgS2Ins:
        DS8 1

        SECTION `.bss`:DATA:REORDER:NOROOT(0)
        DATA
flgS3Ins:
        DS8 1

        SECTION `.bss`:DATA:REORDER:NOROOT(0)
        DATA
flgS4Ins:
        DS8 1
//   89 #endif
//   90 
//   91 /* Private function prototypes -----------------------------------------------*/
//   92 static void SystemClock_Config(void);
//   93 static void USBH_UserProcess(USBH_HandleTypeDef *phost, uint8_t id);
//   94 static void CPU_CACHE_Enable(void);
//   95 
//   96 
//   97 
//   98 
//   99 void HAL_I2C_MspInit(I2C_HandleTypeDef* hi2c);
//  100 void MX_I2C2_Init(void);
//  101 void USART3_Init(void);
//  102 void ReadSTASeq(uint8_t Addr, uint8_t *pBufOut,uint8_t Len );
//  103 void WriteSTAByte(uint8_t Addr, uint8_t *pBufIn, uint8_t len);
//  104 void SPI5_CallBack(SPI_HandleTypeDef *hspi);
//  105 
//  106 
//  107 
//  108 /*--------------INLINE FUNCTION-----------------------------------------------*/
//  109 

        SECTION `.text`:CODE:NOROOT(1)
          CFI Block cfiBlock2 Using cfiCommon0
          CFI Function FFT_Update
        THUMB
//  110 inline static void FFT_Update(void)
//  111 {
FFT_Update:
        PUSH     {R7,LR}
          CFI R14 Frame(CFA, -4)
          CFI CFA R13+8
//  112 
//  113       PDM2PCMSDO78();
          CFI FunCall PDM2PCMSDO78
        BL       PDM2PCMSDO78
//  114       /* Hafl buffer is filled in by I2S data stream in */
//  115       if((flgDlyUpd==0))
        LDR.W    R0,??DataTable12
        LDRB     R0,[R0, #+0]
        CMP      R0,#+0
        BNE.W    ??FFT_Update_0
//  116       {
//  117             //HAL_GPIO_TogglePin(GPIOA, GPIO_PIN_15);
//  118             FactorUpd(&FacMic); 
        LDR.W    R0,??DataTable11
          CFI FunCall FactorUpd
        BL       FactorUpd
//  119             //STM_EVAL_LEDOn(LED3);
//  120             flgDlyUpd = 1; 
        MOVS     R0,#+1
        LDR.W    R1,??DataTable12
        STRB     R0,[R1, #+0]
//  121 /*-------------------------------------------------------------------------------------------------------------
//  122 			  
//  123 	Sequence  Record Data                     Processing Data                 Player Data
//  124 			  
//  125 	1-------  Buffer1                         Buffer2                         Buffer3
//  126 			  
//  127 	2-------  Buffer3                         Buffer1                         Buffer2		  
//  128 			  
//  129 	3-------  Buffer2                         Buffer3                         Buffer1 
//  130  ---------------------------------------------------------------------------------------------------------------*/
//  131             /* Processing Data */
//  132 			switch (buffer_switch)
        LDR.W    R0,??DataTable11_1
        LDRB     R0,[R0, #+0]
        CMP      R0,#+0
        BEQ.N    ??FFT_Update_1
        CMP      R0,#+2
        BEQ.N    ??FFT_Update_2
        BCC.N    ??FFT_Update_3
        B.N      ??FFT_Update_4
//  133 			{             
//  134 			    case BUF1_PLAY:
//  135 #if MAIN_CRSCORR
//  136 					for (uint16_t i=0; i<(_MAX_SS/_MAX_SS);i++)
//  137 					{
//  138 					    //uint16_t i=0;
//  139 						arm_rfft_q15(&RealFFT_Ins,    (q15_t *)&buffer3[i*128],    (q15_t *)&bufferFFT[i*256]);
//  140 						arm_rfft_q15(&RealFFT_Ins,    (q15_t *)&buffer3_1[i*128],   (q15_t *)&bufferFFT_1[i*256]);
//  141 					
//  142 						arm_add_q15((q15_t *)&bufferFFT[i*256],    (q15_t *)&bufferFFT_1[i*256],    (q15_t *)&bufferFFTSum[i*256],2*128);
//  143 					
//  144 						//for (uint16_t j=0; j<256;j++)
//  145 						//{
//  146 						//	  bufferFFTSum[i*256+j]<<=6;
//  147 						//}
//  148 						
//  149 						arm_rfft_q15(&RealIFFT_Ins,    (q15_t *)&bufferFFTSum[i*256],    (q15_t *)&bufferSum[i*128]);
//  150 					}
//  151 #elif MAIN_FFT
//  152                     /* Summing in Buffer3 */
//  153                     Delay_Sum_FFT(&Buffer3,&FacMic,(int16_t *)bufferSum, 512);
//  154 			 	   //FFT_SUM((int16_t *)buffer3, (int16_t * )buffer3_1,fbuffer, 1024);	
//  155 			 	   
//  156 
//  157 #else
//  158 
//  159                     //idxLatency13 = CrssCor(Buffer3.bufMIC1, Buffer3.bufMIC3, AUDIO_OUT_BUFFER_SIZE/2);
//  160                     //idxLatency12 = CrssCor(Buffer3.bufMIC1, Buffer3.bufMIC2, AUDIO_OUT_BUFFER_SIZE/2);
//  161 
//  162 					idxLatency78 = CrssCor(Buffer3.bufMIC7, Buffer3.bufMIC8, AUDIO_OUT_BUFFER_SIZE);
??FFT_Update_1:
        MOV      R2,#+1024
        LDR.W    R1,??DataTable11_2
        LDR.W    R0,??DataTable11_3
          CFI FunCall CrssCor
        BL       CrssCor
        LDR.W    R1,??DataTable12_1
        STRH     R0,[R1, #+0]
//  163                     idxLatency14 = CrssCor(Buffer3.bufMIC1, Buffer3.bufMIC4, AUDIO_OUT_BUFFER_SIZE);
        MOV      R2,#+1024
        LDR.W    R1,??DataTable11_4
        LDR.W    R0,??DataTable11_5
          CFI FunCall CrssCor
        BL       CrssCor
        LDR.W    R1,??DataTable15_1
        STRH     R0,[R1, #+0]
//  164 					idxLatency25 = CrssCor(Buffer3.bufMIC2, Buffer3.bufMIC5, AUDIO_OUT_BUFFER_SIZE);
        MOV      R2,#+1024
        LDR.W    R1,??DataTable11_6
        LDR.W    R0,??DataTable11_7
          CFI FunCall CrssCor
        BL       CrssCor
        LDR.W    R1,??DataTable12_2
        STRH     R0,[R1, #+0]
//  165 					idxLatency63 = CrssCor(Buffer3.bufMIC6, Buffer3.bufMIC3, AUDIO_OUT_BUFFER_SIZE);
        MOV      R2,#+1024
        LDR.W    R1,??DataTable11_8
        LDR.W    R0,??DataTable11_9
          CFI FunCall CrssCor
        BL       CrssCor
        LDR.W    R1,??DataTable13
        STRH     R0,[R1, #+0]
//  166 
//  167 
//  168                     SumDelay(&Buffer3);
        LDR.W    R0,??DataTable11_5
          CFI FunCall SumDelay
        BL       SumDelay
//  169 #endif
//  170 					
//  171 					break;
        B.N      ??FFT_Update_5
//  172 				case BUF2_PLAY:
//  173 
//  174 #if MAIN_CRSCORR
//  175                      for (uint16_t i=0; i<(_MAX_SS/128);i++)
//  176                      { 
//  177                          //uint16_t i=0;
//  178 				         arm_rfft_q15(&RealFFT_Ins,(q15_t *)&buffer1[i*128],(q15_t *)&bufferFFT[i*256]);
//  179 	           		     arm_rfft_q15(&RealFFT_Ins,(q15_t *)&buffer1_1[i*128],(q15_t *)&bufferFFT_1[i*256]);
//  180 
//  181 						 arm_add_q15((q15_t *)&bufferFFT[i*256],    (q15_t *)&bufferFFT_1[i*256],    (q15_t *)&bufferFFTSum[i*256],
//  182 						 	          2*128);
//  183 
//  184 						 //for (uint16_t j=0; j<256;j++)
//  185 						 //{
//  186 						//	   bufferFFTSum[i*256+j]<<=6;
//  187 						 //}
//  188 
//  189 						 
//  190 	                     arm_rfft_q15(&RealIFFT_Ins,(q15_t *)&bufferFFTSum[i*256],(q15_t *)&bufferSum[i*128]);
//  191                      }
//  192 #elif MAIN_FFT
//  193 					/* Summing in Buffer1 */	 
//  194 					Delay_Sum_FFT(&Buffer1, &FacMic,(int16_t * )bufferSum,512);
//  195 					//FFT_SUM((int16_t *)buffer1, (int16_t * )buffer1_1,fbuffer, 1024);
//  196 
//  197 #else
//  198                 
//  199                   //idxLatency13 = CrssCor(Buffer1.bufMIC1, Buffer1.bufMIC3, AUDIO_OUT_BUFFER_SIZE/2); 
//  200                   //idxLatency12 = CrssCor(Buffer1.bufMIC1, Buffer1.bufMIC2, AUDIO_OUT_BUFFER_SIZE/2);
//  201 		
//  202                   idxLatency78 = CrssCor(Buffer1.bufMIC7, Buffer1.bufMIC8, AUDIO_OUT_BUFFER_SIZE);	
??FFT_Update_3:
        MOV      R2,#+1024
        LDR.W    R1,??DataTable12_3
        LDR.W    R0,??DataTable12_4
          CFI FunCall CrssCor
        BL       CrssCor
        LDR.W    R1,??DataTable12_1
        STRH     R0,[R1, #+0]
//  203                   idxLatency14 = CrssCor(Buffer1.bufMIC1, Buffer1.bufMIC4, AUDIO_OUT_BUFFER_SIZE);
        MOV      R2,#+1024
        LDR.W    R1,??DataTable12_5
        LDR.W    R0,??DataTable12_6
          CFI FunCall CrssCor
        BL       CrssCor
        LDR.W    R1,??DataTable15_1
        STRH     R0,[R1, #+0]
//  204                   idxLatency25 = CrssCor(Buffer1.bufMIC2, Buffer1.bufMIC5, AUDIO_OUT_BUFFER_SIZE);
        MOV      R2,#+1024
        LDR.W    R1,??DataTable12_7
        LDR.W    R0,??DataTable12_8
          CFI FunCall CrssCor
        BL       CrssCor
        LDR.W    R1,??DataTable12_2
        STRH     R0,[R1, #+0]
//  205                   idxLatency63 = CrssCor(Buffer1.bufMIC6, Buffer1.bufMIC3, AUDIO_OUT_BUFFER_SIZE);
        MOV      R2,#+1024
        LDR.W    R1,??DataTable12_9
        LDR.W    R0,??DataTable12_10
          CFI FunCall CrssCor
        BL       CrssCor
        LDR.W    R1,??DataTable13
        STRH     R0,[R1, #+0]
//  206 
//  207 
//  208 
//  209                   SumDelay(&Buffer1);
        LDR.W    R0,??DataTable12_6
          CFI FunCall SumDelay
        BL       SumDelay
//  210 #endif
//  211 					break;
        B.N      ??FFT_Update_5
//  212 					
//  213 				case BUF3_PLAY:
//  214 #if MAIN_CRSCORR
//  215 					for (uint16_t i=0; i<(_MAX_SS/128);i++)
//  216 					{
//  217 						
//  218 						arm_rfft_q15(&RealFFT_Ins,(q15_t *)&buffer2[i*128],(q15_t *)&bufferFFT[i*256]);
//  219 						arm_rfft_q15(&RealFFT_Ins,(q15_t *)&buffer2_1[i*128],(q15_t *)&bufferFFT_1[i*256]);
//  220 					
//  221 						arm_add_q15((q15_t *)&bufferFFT[i*256],    (q15_t *)&bufferFFT_1[i*256],	(q15_t *)&bufferFFTSum[i*256],
//  222 									 2*128);
//  223 					
//  224 						//for (uint16_t j=0; j<256;j++)
//  225 						//{
//  226 					    //   bufferFFTSum[i*256+j]<<=6;
//  227 					    //}
//  228 					
//  229 						
//  230 						arm_rfft_q15(&RealIFFT_Ins,(q15_t *)&bufferFFTSum[i*256],(q15_t *)&bufferSum[i*128]);
//  231 					}
//  232 
//  233 #elif MAIN_FFT
//  234 					/* Summing in Buffer2 */
//  235                                         Delay_Sum_FFT(&Buffer2,&FacMic, (int16_t * )bufferSum, 512);
//  236                                        //FFT_SUM((int16_t *)buffer2, (int16_t * )buffer2_1,fbuffer, 1024);
//  237 
//  238 					
//  239 #else
//  240 
//  241 					//idxLatency13 = CrssCor(Buffer2.bufMIC1, Buffer2.bufMIC3, AUDIO_OUT_BUFFER_SIZE/2); 
//  242                     //idxLatency12 = CrssCor(Buffer2.bufMIC1, Buffer2.bufMIC2, AUDIO_OUT_BUFFER_SIZE/2);
//  243 
//  244 					idxLatency78 = CrssCor(Buffer2.bufMIC7, Buffer2.bufMIC8, AUDIO_OUT_BUFFER_SIZE);
??FFT_Update_2:
        MOV      R2,#+1024
        LDR.W    R1,??DataTable12_11
        LDR.W    R0,??DataTable12_12
          CFI FunCall CrssCor
        BL       CrssCor
        LDR.W    R1,??DataTable12_1
        STRH     R0,[R1, #+0]
//  245 					idxLatency14 = CrssCor(Buffer2.bufMIC1, Buffer2.bufMIC4, AUDIO_OUT_BUFFER_SIZE);
        MOV      R2,#+1024
        LDR.W    R1,??DataTable12_13
        LDR.W    R0,??DataTable15_2
          CFI FunCall CrssCor
        BL       CrssCor
        LDR.W    R1,??DataTable15_1
        STRH     R0,[R1, #+0]
//  246 					idxLatency25 = CrssCor(Buffer2.bufMIC2, Buffer2.bufMIC5, AUDIO_OUT_BUFFER_SIZE);
        MOV      R2,#+1024
        LDR.W    R1,??DataTable12_14
        LDR.W    R0,??DataTable12_15
          CFI FunCall CrssCor
        BL       CrssCor
        LDR.W    R1,??DataTable12_2
        STRH     R0,[R1, #+0]
//  247 					idxLatency63 = CrssCor(Buffer2.bufMIC6, Buffer2.bufMIC3, AUDIO_OUT_BUFFER_SIZE);
        MOV      R2,#+1024
        LDR.W    R1,??DataTable12_16
        LDR.W    R0,??DataTable12_17
          CFI FunCall CrssCor
        BL       CrssCor
        LDR.W    R1,??DataTable13
        STRH     R0,[R1, #+0]
//  248 
//  249                      SumDelay(&Buffer2);
        LDR.W    R0,??DataTable15_2
          CFI FunCall SumDelay
        BL       SumDelay
//  250 #endif
//  251 					break;
        B.N      ??FFT_Update_5
//  252 					
//  253 				default:
//  254 					break;
//  255                
//  256 			}
//  257 #if USB_STREAMING
//  258    AudioMerging();
??FFT_Update_4:
??FFT_Update_5:
          CFI FunCall AudioMerging
        BL       AudioMerging
//  259 #endif
//  260 	       //HAL_GPIO_TogglePin(GPIOA, GPIO_PIN_15);
//  261 	  }
//  262 	  
//  263 
//  264 }
??FFT_Update_0:
        POP      {R0,PC}          ;; return
          CFI EndBlock cfiBlock2
//  265 
//  266 

        SECTION `.text`:CODE:NOROOT(1)
          CFI Block cfiBlock3 Using cfiCommon0
          CFI Function Audio_Play_Out
        THUMB
//  267 inline static void Audio_Play_Out(void)
//  268 {
Audio_Play_Out:
        PUSH     {R7,LR}
          CFI R14 Frame(CFA, -4)
          CFI CFA R13+8
//  269   /* wait for DMA transfert complete									*/
//  270   /* This flag is set to 1 in callback function of DMA interrupt  */
//  271   /* if player is finished for curent buffer */ 
//  272   if (XferCplt == 1)
        LDR.W    R0,??DataTable13_1
        LDRB     R0,[R0, #+0]
        CMP      R0,#+1
        BNE.N    ??Audio_Play_Out_0
//  273   {
//  274        RESET_IDX
        MOVS     R0,#+0
        LDR.W    R1,??DataTable12_18
        STRH     R0,[R1, #+0]
        MOVS     R0,#+0
        LDR.W    R1,??DataTable12_19
        STRH     R0,[R1, #+0]
        MOVS     R0,#+0
        LDR.W    R1,??DataTable12_20
        STRH     R0,[R1, #+0]
        MOVS     R0,#+0
        LDR.W    R1,??DataTable13_2
        STRH     R0,[R1, #+0]
        MOVS     R0,#+0
        LDR.W    R1,??DataTable13_3
        STRH     R0,[R1, #+0]
        MOVS     R0,#+0
        LDR.W    R1,??DataTable13_4
        STRH     R0,[R1, #+0]
        MOVS     R0,#+0
        LDR.W    R1,??DataTable13_5
        STRH     R0,[R1, #+0]
        MOVS     R0,#+0
        LDR.W    R1,??DataTable13_6
        STRH     R0,[R1, #+0]
        MOVS     R0,#+0
        LDR.W    R1,??DataTable12
        STRB     R0,[R1, #+0]
//  275        XferCplt = 0; // clear DMA interrupt flag
        MOVS     R0,#+0
        LDR.W    R1,??DataTable13_1
        STRB     R0,[R1, #+0]
//  276 #if USB_STREAMING
//  277 	  AudioProcess();
          CFI FunCall AudioProcess
        BL       AudioProcess
//  278 #endif
//  279 /*-------------------------------------------------------------------------------------------------------------
//  280 			  
//  281 	Sequence  Record Data                     Processing Data                 Player Data
//  282 			  
//  283 	1-------  Buffer1                         Buffer2                          Buffer3
//  284 			  
//  285 	2-------  Buffer3                         Buffer1                           Buffer2		  
//  286 			  
//  287 	3-------  Buffer2                         Buffer3                           Buffer1 
//  288  ---------------------------------------------------------------------------------------------------------------*/
//  289     switch (buffer_switch)
        LDR.W    R0,??DataTable11_1
        LDRB     R0,[R0, #+0]
        CMP      R0,#+0
        BEQ.N    ??Audio_Play_Out_1
        CMP      R0,#+2
        BEQ.N    ??Audio_Play_Out_2
        BCC.N    ??Audio_Play_Out_3
        B.N      ??Audio_Play_Out_4
//  290     {
//  291       case BUF1_PLAY:
//  292         /* Play data from buffer1 */
//  293 	    Audio_MAL_Play(Command_index? (uint32_t)Buffer3.bufMIC1:(uint32_t)Buffer3.bufMIC2 , 4*AUDIO_OUT_BUFFER_SIZE);
??Audio_Play_Out_1:
        LDR.W    R0,??DataTable14
        LDRB     R0,[R0, #+0]
        CMP      R0,#+0
        BEQ.N    ??Audio_Play_Out_5
        LDR.W    R0,??DataTable11_5
        B.N      ??Audio_Play_Out_6
??Audio_Play_Out_5:
        LDR.W    R0,??DataTable11_7
??Audio_Play_Out_6:
        MOV      R1,#+4096
          CFI FunCall Audio_MAL_Play
        BL       Audio_MAL_Play
//  294 		/* set flag for switch buffer */		  
//  295         buffer_switch = BUF3_PLAY;
        MOVS     R0,#+2
        LDR.W    R1,??DataTable11_1
        STRB     R0,[R1, #+0]
//  296 
//  297         break;
        B.N      ??Audio_Play_Out_0
//  298       case BUF2_PLAY:
//  299         /* Play data from buffer2 */
//  300 	    Audio_MAL_Play(Command_index? (uint32_t)Buffer1.bufMIC1:(uint32_t)Buffer1.bufMIC2, 4*AUDIO_OUT_BUFFER_SIZE);
??Audio_Play_Out_3:
        LDR.W    R0,??DataTable14
        LDRB     R0,[R0, #+0]
        CMP      R0,#+0
        BEQ.N    ??Audio_Play_Out_7
        LDR.W    R0,??DataTable12_6
        B.N      ??Audio_Play_Out_8
??Audio_Play_Out_7:
        LDR.W    R0,??DataTable12_8
??Audio_Play_Out_8:
        MOV      R1,#+4096
          CFI FunCall Audio_MAL_Play
        BL       Audio_MAL_Play
//  301 		/* set flag for switch buffer */
//  302         buffer_switch = BUF1_PLAY;
        MOVS     R0,#+0
        LDR.W    R1,??DataTable11_1
        STRB     R0,[R1, #+0]
//  303         
//  304         break;
        B.N      ??Audio_Play_Out_0
//  305       case BUF3_PLAY:
//  306         /* Play data from buffer1 */
//  307        Audio_MAL_Play(Command_index? (uint32_t)Buffer2.bufMIC1:(uint32_t)Buffer2.bufMIC2 ,4*AUDIO_OUT_BUFFER_SIZE);
??Audio_Play_Out_2:
        LDR.W    R0,??DataTable14
        LDRB     R0,[R0, #+0]
        CMP      R0,#+0
        BEQ.N    ??Audio_Play_Out_9
        LDR.W    R0,??DataTable15_2
        B.N      ??Audio_Play_Out_10
??Audio_Play_Out_9:
        LDR.W    R0,??DataTable12_15
??Audio_Play_Out_10:
        MOV      R1,#+4096
          CFI FunCall Audio_MAL_Play
        BL       Audio_MAL_Play
//  308         /* set flag for switch buffer */		  
//  309         buffer_switch = BUF2_PLAY;
        MOVS     R0,#+1
        LDR.W    R1,??DataTable11_1
        STRB     R0,[R1, #+0]
//  310 
//  311         break;
        B.N      ??Audio_Play_Out_0
//  312       default:
//  313         break;
//  314     }
//  315 			   
//  316   }
//  317 }
??Audio_Play_Out_4:
??Audio_Play_Out_0:
        POP      {R0,PC}          ;; return
          CFI EndBlock cfiBlock3
//  318 
//  319 
//  320 /* Private functions ---------------------------------------------------------*/
//  321 
//  322 /**
//  323   * @brief  Main program
//  324   * @param  None
//  325   * @retval None
//  326   */

        SECTION `.text`:CODE:NOROOT(1)
          CFI Block cfiBlock4 Using cfiCommon0
          CFI Function main
        THUMB
//  327 int main(void)
//  328 {
main:
        PUSH     {LR}
          CFI R14 Frame(CFA, -4)
          CFI CFA R13+4
        SUB      SP,SP,#+20
          CFI CFA R13+24
//  329   /* Enable the CPU Cache */
//  330   CPU_CACHE_Enable();
          CFI FunCall CPU_CACHE_Enable
        BL       CPU_CACHE_Enable
//  331   
//  332   /* STM32F7xx HAL library initialization:
//  333        - Configure the Flash ART accelerator on ITCM interface
//  334        - Configure the Systick to generate an interrupt each 1 msec
//  335        - Set NVIC Group Priority to 4
//  336        - Global MSP (MCU Support Package) initialization
//  337      */   
//  338   HAL_Init();
          CFI FunCall HAL_Init
        BL       HAL_Init
//  339   
//  340   /* Configure the system clock to 216 MHz */
//  341   //Test_SystemClock_Config(); 
//  342   SystemClock_Config();
          CFI FunCall SystemClock_Config
        BL       SystemClock_Config
//  343   BSP_AUDIO_OUT_ClockConfig(AUDIO_FREQ, NULL);
        MOVS     R1,#+0
        MOV      R0,#+16000
          CFI FunCall BSP_AUDIO_OUT_ClockConfig
        BL       BSP_AUDIO_OUT_ClockConfig
//  344   
//  345   /* Initialize the SDRAM */
//  346   BSP_SDRAM_Init();
          CFI FunCall BSP_SDRAM_Init
        BL       BSP_SDRAM_Init
//  347 
//  348 
//  349   BSP_LED_Init(LED1);
        MOVS     R0,#+0
          CFI FunCall BSP_LED_Init
        BL       BSP_LED_Init
//  350   BSP_LED_Init(LED2);
        MOVS     R0,#+1
          CFI FunCall BSP_LED_Init
        BL       BSP_LED_Init
//  351 
//  352   /* Button Initialization */
//  353   ButtonInit();
          CFI FunCall ButtonInit
        BL       ButtonInit
//  354   //BSP_PB_Init(BUTTON_KEY,BUTTON_MODE_EXTI);
//  355 
//  356   
//  357   /* Init TS module */
//  358   //BSP_TS_Init(BSP_LCD_GetXSize(), BSP_LCD_GetYSize());
//  359 
//  360 #if (USB_STREAMING)
//  361 
//  362   /* Initialize USB descriptor basing on channels number and sampling frequency */
//  363   USBD_AUDIO_Init_Microphone_Descriptor(&hUSBDDevice, AUDIO_SAMPLING_FREQUENCY, AUDIO_CHANNELS);
        MOVS     R2,#+2
        MOV      R1,#+16000
        LDR.W    R0,??DataTable16
          CFI FunCall USBD_AUDIO_Init_Microphone_Descriptor
        BL       USBD_AUDIO_Init_Microphone_Descriptor
//  364   /* Init Device Library */
//  365   USBD_Init(&hUSBDDevice, &AUDIO_Desc, 0);
        MOVS     R2,#+0
        LDR.W    R1,??DataTable16_1
        LDR.W    R0,??DataTable16
          CFI FunCall USBD_Init
        BL       USBD_Init
//  366   /* Add Supported Class */
//  367   USBD_RegisterClass(&hUSBDDevice, &USBD_AUDIO);
        LDR.W    R1,??DataTable16_2
        LDR.W    R0,??DataTable16
          CFI FunCall USBD_RegisterClass
        BL       USBD_RegisterClass
//  368   /* Add Interface callbacks for AUDIO Class */  
//  369   USBD_AUDIO_RegisterInterface(&hUSBDDevice, &USBD_AUDIO_fops);
        LDR.W    R1,??DataTable16_3
        LDR.W    R0,??DataTable16
          CFI FunCall USBD_AUDIO_RegisterInterface
        BL       USBD_AUDIO_RegisterInterface
//  370   /* Start Device Process */
//  371   USBD_Start(&hUSBDDevice);
        LDR.W    R0,??DataTable16
          CFI FunCall USBD_Start
        BL       USBD_Start
//  372 
//  373 
//  374   /* Init Host Library */
//  375   //USBH_Init(&hUSBHost, USBH_UserProcess, 0);
//  376 
//  377   /* Add Supported Class */
//  378   //USBH_RegisterClass(&hUSBHost, USBH_MSC_CLASS);
//  379   
//  380   /* Start Host Process */
//  381   //USBH_Start(&hUSBHost);
//  382 
//  383 #endif 
//  384    DFT_Init();	
          CFI FunCall DFT_Init
        BL       DFT_Init
//  385 
//  386     /* ---------PA4: LCCKO-------------*/
//  387     __GPIOA_CLK_ENABLE();
        LDR.W    R0,??DataTable16_4  ;; 0x40023830
        LDR      R0,[R0, #+0]
        ORRS     R0,R0,#0x1
        LDR.W    R1,??DataTable16_4  ;; 0x40023830
        STR      R0,[R1, #+0]
        LDR.W    R0,??DataTable16_4  ;; 0x40023830
        LDR      R0,[R0, #+0]
        ANDS     R0,R0,#0x1
        STR      R0,[SP, #+0]
        LDR      R0,[SP, #+0]
//  388     GPIO_INS.Pin = GPIO_PIN_4;
        MOVS     R0,#+16
        LDR.W    R1,??DataTable16_5
        STR      R0,[R1, #+0]
//  389     GPIO_INS.Mode =GPIO_MODE_IT_RISING;
        LDR.W    R0,??DataTable16_6  ;; 0x10110000
        LDR.W    R1,??DataTable16_5
        STR      R0,[R1, #+4]
//  390     GPIO_INS.Pull =GPIO_NOPULL;
        MOVS     R0,#+0
        LDR.W    R1,??DataTable16_5
        STR      R0,[R1, #+8]
//  391     GPIO_INS.Speed =GPIO_SPEED_HIGH;
        MOVS     R0,#+3
        LDR.W    R1,??DataTable16_5
        STR      R0,[R1, #+12]
//  392     HAL_GPIO_Init(GPIOA,&GPIO_INS);
        LDR.W    R1,??DataTable16_5
        LDR.W    R0,??DataTable16_7  ;; 0x40020000
          CFI FunCall HAL_GPIO_Init
        BL       HAL_GPIO_Init
//  393 
//  394     /* Enable and set Button EXTI Interrupt to the lowest priority */
//  395     HAL_NVIC_SetPriority((IRQn_Type)EXTI4_IRQn, INTERRUPT_PRI_EXT_LRCK, 0);
        MOVS     R2,#+0
        MOVS     R1,#+6
        MOVS     R0,#+10
          CFI FunCall HAL_NVIC_SetPriority
        BL       HAL_NVIC_SetPriority
//  396     HAL_NVIC_EnableIRQ((IRQn_Type)EXTI4_IRQn);
        MOVS     R0,#+10
          CFI FunCall HAL_NVIC_EnableIRQ
        BL       HAL_NVIC_EnableIRQ
//  397     /*-----------------------*/
//  398 
//  399     /*---------PE3: POWER DOWN-----------------*/
//  400     __GPIOE_CLK_ENABLE();
        LDR.W    R0,??DataTable16_4  ;; 0x40023830
        LDR      R0,[R0, #+0]
        ORRS     R0,R0,#0x10
        LDR.W    R1,??DataTable16_4  ;; 0x40023830
        STR      R0,[R1, #+0]
        LDR.W    R0,??DataTable16_4  ;; 0x40023830
        LDR      R0,[R0, #+0]
        ANDS     R0,R0,#0x10
        STR      R0,[SP, #+0]
        LDR      R0,[SP, #+0]
//  401     GPIO_INS.Pin = GPIO_PIN_3;
        MOVS     R0,#+8
        LDR.W    R1,??DataTable16_5
        STR      R0,[R1, #+0]
//  402     GPIO_INS.Mode = GPIO_MODE_OUTPUT_PP;
        MOVS     R0,#+1
        LDR.W    R1,??DataTable16_5
        STR      R0,[R1, #+4]
//  403     GPIO_INS.Pull = GPIO_PULLUP;
        MOVS     R0,#+1
        LDR.W    R1,??DataTable16_5
        STR      R0,[R1, #+8]
//  404     GPIO_INS.Speed = GPIO_SPEED_HIGH;
        MOVS     R0,#+3
        LDR.W    R1,??DataTable16_5
        STR      R0,[R1, #+12]
//  405 
//  406     HAL_GPIO_Init(GPIOE, &GPIO_INS);
        LDR.W    R1,??DataTable16_5
        LDR.W    R0,??DataTable16_8  ;; 0x40021000
          CFI FunCall HAL_GPIO_Init
        BL       HAL_GPIO_Init
//  407   
//  408     HAL_GPIO_WritePin(GPIOE, GPIO_PIN_3, GPIO_PIN_RESET);
        MOVS     R2,#+0
        MOVS     R1,#+8
        LDR.W    R0,??DataTable16_8  ;; 0x40021000
          CFI FunCall HAL_GPIO_WritePin
        BL       HAL_GPIO_WritePin
//  409 
//  410     /*----------------------------------------*/
//  411 
//  412 #if (DEBUG)  
//  413 		/* UART for debug */
//  414 		USART3_Init();
          CFI FunCall USART3_Init
        BL       USART3_Init
//  415 #endif
//  416 
//  417 
//  418 
//  419     /*----------------------------------------*/
//  420     MX_I2C2_Init(); //for STA321MP
          CFI FunCall MX_I2C2_Init
        BL       MX_I2C2_Init
//  421     STA321MP_Ini();
          CFI FunCall STA321MP_Ini
        BL       STA321MP_Ini
//  422 	BSP_LED_Toggle(LED1);
        MOVS     R0,#+0
          CFI FunCall BSP_LED_Toggle
        BL       BSP_LED_Toggle
//  423     /* Init Audio Application */
//  424     AUDIO_InitApplication();
          CFI FunCall AUDIO_InitApplication
        BL       AUDIO_InitApplication
//  425 	BSP_LED_Toggle(LED2);
        MOVS     R0,#+1
          CFI FunCall BSP_LED_Toggle
        BL       BSP_LED_Toggle
//  426    
//  427 
//  428 	
//  429 	buffer_switch = BUF3_PLAY;		 /* record data to buffer1 */
        MOVS     R0,#+2
        LDR.W    R1,??DataTable11_1
        STRB     R0,[R1, #+0]
//  430 	MIC1TO6_Init();
          CFI FunCall MIC1TO6_Init
        BL       MIC1TO6_Init
//  431 	                  
//  432 
//  433 	while (1)
//  434     {
//  435 		/* there is data in the buffer */  
//  436 		if((WaveRec_idxSens1>=(2*AUDIO_OUT_BUFFER_SIZE-1))&&(stFrstFrmStore<3))
??main_0:
        LDR.W    R0,??DataTable12_18
        LDRH     R0,[R0, #+0]
        MOVW     R1,#+2047
        CMP      R0,R1
        BLT.N    ??main_1
        LDR.W    R0,??DataTable16_9
        LDRB     R0,[R0, #+0]
        CMP      R0,#+3
        BGE.N    ??main_1
//  437 		{
//  438 			/* this is just run 1 time after 1st frame of I2S data full */
//  439 			if ((stFrstFrmStore<3))
        LDR.W    R0,??DataTable16_9
        LDRB     R0,[R0, #+0]
        CMP      R0,#+3
        BGE.N    ??main_1
//  440 			{
//  441 				stFrstFrmStore++;
        LDR.W    R0,??DataTable16_9
        LDRB     R0,[R0, #+0]
        ADDS     R0,R0,#+1
        LDR.W    R1,??DataTable16_9
        STRB     R0,[R1, #+0]
//  442 				buffer_switch = BUF2_PLAY; /* record data to buffer3 */
        MOVS     R0,#+1
        LDR.W    R1,??DataTable11_1
        STRB     R0,[R1, #+0]
//  443 				if (stFrstFrmStore==2)
        LDR.W    R0,??DataTable16_9
        LDRB     R0,[R0, #+0]
        CMP      R0,#+2
        BNE.N    ??main_1
//  444 				{
//  445 					
//  446 					/*------------------------PLAYER------------------------------------------*/
//  447 					Audio_MAL_Play((uint32_t)Buffer1.bufMIC1,4*AUDIO_OUT_BUFFER_SIZE);
        MOV      R1,#+4096
        LDR.W    R0,??DataTable12_6
          CFI FunCall Audio_MAL_Play
        BL       Audio_MAL_Play
//  448 					/*------------------------------------------------------------------------*/
//  449 					buffer_switch = BUF1_PLAY;
        MOVS     R0,#+0
        LDR.W    R1,??DataTable11_1
        STRB     R0,[R1, #+0]
//  450 					flgDlyUpd = 0;
        MOVS     R0,#+0
        LDR.W    R1,??DataTable12
        STRB     R0,[R1, #+0]
//  451 				}
//  452 			
//  453 			}
//  454 		
//  455 		}
//  456 
//  457 
//  458          if (cntStrt==5)
??main_1:
        LDR.W    R0,??DataTable16_10
        LDRH     R0,[R0, #+0]
        CMP      R0,#+5
        BNE.N    ??main_2
//  459 		 {
//  460 			   if ((WaveRecord_flgIni<200))
        LDR.W    R0,??DataTable16_11
        LDRB     R0,[R0, #+0]
        CMP      R0,#+200
        BGE.N    ??main_3
//  461 			   {
//  462 				  for(char i=0;i<16;i++)
        MOVS     R0,#+0
??main_4:
        UXTB     R0,R0            ;; ZeroExt  R0,R0,#+24,#+24
        CMP      R0,#+16
        BGE.N    ??main_2
//  463 				  {
//  464 					  //if (ValBit(SPI1_stNipple,i)!=0) 
//  465 					  //{
//  466 					//	 I2S1_stPosShft = 0;//MAX(I2S1_stPosShft,i+1);
//  467 					 // }
//  468 
//  469 					  //if (ValBit(I2S2_stNipple,i)!=0) 
//  470 		              //{
//  471 		              //   I2S2_stPosShft = 0;//MAX(I2S2_stPosShft,i+1);
//  472 		              //}
//  473 
//  474 					  if (ValBit(I2S1_stNipple,i)!=0) 
        LDR.W    R1,??DataTable16_12
        LDRSH    R1,[R1, #+0]
        ASRS     R1,R1,R0
        LSLS     R1,R1,#+31
        BPL.N    ??main_5
//  475 					 {
//  476 						 SPI4_stPosShft = MAX(SPI4_stPosShft,i+1);
        UXTB     R0,R0            ;; ZeroExt  R0,R0,#+24,#+24
        ADDS     R1,R0,#+1
        LDR.W    R2,??DataTable16_13
        LDRB     R2,[R2, #+0]
        CMP      R1,R2
        BGE.N    ??main_6
        LDR.W    R1,??DataTable16_13
        LDRB     R1,[R1, #+0]
        B.N      ??main_7
??main_6:
        ADDS     R1,R0,#+1
??main_7:
        LDR.W    R2,??DataTable16_13
        STRB     R1,[R2, #+0]
//  477 					 }
//  478 				  }
??main_5:
        ADDS     R0,R0,#+1
        B.N      ??main_4
//  479 					
//  480 			   }
//  481 		       else if (WaveRecord_flgIni<255)
??main_3:
        LDR.W    R0,??DataTable16_11
        LDRB     R0,[R0, #+0]
        CMP      R0,#+255
        BEQ.N    ??main_2
//  482 		       {
//  483 		           WaveRecord_flgIni++;
        LDR.W    R0,??DataTable16_11
        LDRB     R0,[R0, #+0]
        ADDS     R0,R0,#+1
        LDR.W    R1,??DataTable16_11
        STRB     R0,[R1, #+0]
//  484 		       }
//  485 			   else
//  486 			   {
//  487 
//  488 			   }
//  489 					   
//  490 		 }
//  491 	
//  492 
//  493 		if (cntStrt==6)
??main_2:
        LDR.W    R0,??DataTable16_10
        LDRH     R0,[R0, #+0]
        CMP      R0,#+6
        BNE.N    ??main_8
//  494 		{
//  495 					  if ((WaveRecord_flgIni<200))
        LDR.W    R0,??DataTable16_11
        LDRB     R0,[R0, #+0]
        CMP      R0,#+200
        BGE.N    ??main_8
//  496 					  {
//  497 						 for(char i=0;i<16;i++)
        MOVS     R0,#+0
??main_9:
        UXTB     R0,R0            ;; ZeroExt  R0,R0,#+24,#+24
        CMP      R0,#+16
        BGE.N    ??main_8
        ADDS     R0,R0,#+1
        B.N      ??main_9
//  498 						 {
//  499 
//  500 						 }
//  501 						   
//  502 					  }
//  503 		}
//  504 		else
//  505 		{
//  506 					 
//  507 		} 
//  508 
//  509 		/* USB Host Background task */
//  510 		//USBH_Process(&hUSBHost);
//  511 
//  512 		/* AUDIO Menu Process */
//  513 		//AUDIO_MenuProcess();
//  514 		FFT_Update(); 
??main_8:
          CFI FunCall FFT_Update
        BL       FFT_Update
//  515 
//  516 		if (flg10ms==1)
        LDR.W    R0,??DataTable16_14
        LDRB     R0,[R0, #+0]
        CMP      R0,#+1
        BNE.N    ??main_0
//  517 		{
//  518 		    flg10ms=0;		   		      
        MOVS     R0,#+0
        LDR.W    R1,??DataTable16_14
        STRB     R0,[R1, #+0]
//  519 	         cntTime200++;
        LDR.W    R0,??DataTable16_15
        LDRH     R0,[R0, #+0]
        ADDS     R0,R0,#+1
        LDR.W    R1,??DataTable16_15
        STRH     R0,[R1, #+0]
//  520 	         if (cntTime200==40)
        LDR.W    R0,??DataTable16_15
        LDRH     R0,[R0, #+0]
        CMP      R0,#+40
        BNE.W    ??main_0
//  521 	          {
//  522 	 
//  523 #if (DEBUG)
//  524 
//  525                     //if ((idxLatency14!=0)||(idxLatency25!=0)||(idxLatency36!=0))
//  526                     {
//  527                         int16_t test[5];
//  528                         static uint8_t flagNotMin;
//  529                         test[0] = 0;
        MOVS     R0,#+0
        STRH     R0,[SP, #+8]
//  530                         test[1]= idxLatency63;
        LDR.W    R0,??DataTable13
        LDRH     R0,[R0, #+0]
        STRH     R0,[SP, #+10]
//  531                         test[2]= idxLatency14;
        LDR.W    R0,??DataTable15_1
        LDRH     R0,[R0, #+0]
        STRH     R0,[SP, #+12]
//  532                         test[3]= idxLatency25;
        LDR.W    R0,??DataTable12_2
        LDRH     R0,[R0, #+0]
        STRH     R0,[SP, #+14]
//  533 						test[4]= idxLatency78;
        LDR.W    R0,??DataTable12_1
        LDRH     R0,[R0, #+0]
        STRH     R0,[SP, #+16]
//  534 
//  535 
//  536                         if (EnergySound<2)
        LDR.W    R0,??DataTable16_16
        LDR      R0,[R0, #+0]
        CMP      R0,#+2
        BCC.W    ??main_10
//  537                         {
//  538                                 //sprintf((char *)pUARTBuf,"No Speech:%d  \r\n",EnergySound);
//  539                                 //HAL_UART_Transmit_IT(&huart3,pUARTBuf,30); 
//  540                         }
//  541                         else
//  542                         {
//  543                              sprintf((char *)pUARTBuf,"%d:%d:%d:%d ",idxLatency63,idxLatency14,idxLatency25,idxLatency78);
        LDR.W    R0,??DataTable12_1
        LDRSH    R0,[R0, #+0]
        STR      R0,[SP, #+4]
        LDR.W    R0,??DataTable12_2
        LDRSH    R0,[R0, #+0]
        STR      R0,[SP, #+0]
        LDR.W    R0,??DataTable15_1
        LDRSH    R3,[R0, #+0]
        LDR.W    R0,??DataTable13
        LDRSH    R2,[R0, #+0]
        LDR.W    R1,??DataTable16_17
        LDR.W    R0,??DataTable16_18
          CFI FunCall sprintf
        BL       sprintf
//  544 							 flagNotMin=0 ;
        MOVS     R0,#+0
        LDR.W    R1,??DataTable16_19
        STRB     R0,[R1, #+0]
//  545 
//  546 							if (test[3]>0)
        LDRSH    R0,[SP, #+14]
        CMP      R0,#+1
        BLT.N    ??main_11
//  547 							{
//  548 							   if((test[1]<=0)&&(test[4]<=0))
        LDRSH    R0,[SP, #+10]
        CMP      R0,#+1
        BGE.N    ??main_12
        LDRSH    R0,[SP, #+16]
        CMP      R0,#+1
        BGE.N    ??main_12
//  549 							   {
//  550 								flagNotMin=1 ;
        MOVS     R0,#+1
        LDR.W    R1,??DataTable16_19
        STRB     R0,[R1, #+0]
//  551 								sprintf((char *)(pUARTBuf+15),"Close Mic 2\r\n");
        LDR.W    R1,??DataTable16_20
        LDR.W    R0,??DataTable16_21
          CFI FunCall sprintf
        BL       sprintf
        B.N      ??main_12
//  552 							   }
//  553 							}
//  554 							else if (test[3]<-2)
??main_11:
        LDRSH    R0,[SP, #+14]
        CMN      R0,#+2
        BGE.N    ??main_12
//  555 							{
//  556 							    if((test[1]>1)&&(test[4]>1))
        LDRSH    R0,[SP, #+10]
        CMP      R0,#+2
        BLT.N    ??main_12
        LDRSH    R0,[SP, #+16]
        CMP      R0,#+2
        BLT.N    ??main_12
//  557 							    {
//  558 									flagNotMin=1 ;
        MOVS     R0,#+1
        LDR.W    R1,??DataTable16_19
        STRB     R0,[R1, #+0]
//  559 									sprintf((char *)(pUARTBuf+15),"Clsoe Mic 5\r\n");
        LDR.W    R1,??DataTable16_22
        LDR.W    R0,??DataTable16_21
          CFI FunCall sprintf
        BL       sprintf
//  560 							    }
//  561 
//  562 							}
//  563 							else
//  564 							{
//  565 									}	
//  566 
//  567 							
//  568 
//  569 							if (test[2]>2)
??main_12:
        LDRSH    R0,[SP, #+12]
        CMP      R0,#+3
        BLT.N    ??main_13
//  570                       	    {
//  571                       	       if((test[1]>=-1)&&(test[3]<=-3))
        LDRSH    R0,[SP, #+10]
        CMN      R0,#+1
        BLT.N    ??main_14
        LDRSH    R0,[SP, #+14]
        CMN      R0,#+2
        BGE.N    ??main_14
//  572                       	       {
//  573 								 flagNotMin=1 ;
        MOVS     R0,#+1
        LDR.W    R1,??DataTable16_19
        STRB     R0,[R1, #+0]
//  574 								 sprintf((char *)(pUARTBuf+15),"Clsoe Mic 4\r\n");
        LDR.W    R1,??DataTable16_23
        LDR.W    R0,??DataTable16_21
          CFI FunCall sprintf
        BL       sprintf
        B.N      ??main_14
//  575                       	       }
//  576                       	    }
//  577 							else if (test[2]<=-1)
??main_13:
        LDRSH    R0,[SP, #+12]
        CMP      R0,#+0
        BPL.N    ??main_14
//  578 							{
//  579 							   if((test[1]<=-2)&&(test[3]>=0))
        LDRSH    R0,[SP, #+10]
        CMN      R0,#+1
        BGE.N    ??main_14
        LDRSH    R0,[SP, #+14]
        CMP      R0,#+0
        BMI.N    ??main_14
//  580                       	       {
//  581 								 flagNotMin=1 ;
        MOVS     R0,#+1
        LDR.W    R1,??DataTable16_19
        STRB     R0,[R1, #+0]
//  582 								 sprintf((char *)(pUARTBuf+15),"Clsoe Mic 1\r\n");
        LDR.W    R1,??DataTable16_24
        LDR.W    R0,??DataTable16_21
          CFI FunCall sprintf
        BL       sprintf
//  583 							   }
//  584 							}
//  585 							else
//  586 							{
//  587 
//  588 							}
//  589 
//  590 						   
//  591                             if (test[1]>=0)
??main_14:
        LDRSH    R0,[SP, #+10]
        CMP      R0,#+0
        BMI.N    ??main_15
//  592                       	    {
//  593                       	       if((test[2]>1)&&(test[4]<= 0))
        LDRSH    R0,[SP, #+12]
        CMP      R0,#+2
        BLT.N    ??main_16
        LDRSH    R0,[SP, #+16]
        CMP      R0,#+1
        BGE.N    ??main_16
//  594                       	       {
//  595 								 flagNotMin=1 ;
        MOVS     R0,#+1
        LDR.W    R1,??DataTable16_19
        STRB     R0,[R1, #+0]
//  596 								 sprintf((char *)(pUARTBuf+15),"Clsoe Mic 3\r\n");
        LDR.W    R1,??DataTable16_25
        LDR.W    R0,??DataTable16_21
          CFI FunCall sprintf
        BL       sprintf
        B.N      ??main_16
//  597                       	       }
//  598 
//  599                       	    }
//  600 							else if (test[1]<=-3)
??main_15:
        LDRSH    R0,[SP, #+10]
        CMN      R0,#+2
        BGE.N    ??main_16
//  601 							{
//  602 							   if((test[2]<=0)&&(test[4]>=2))
        LDRSH    R0,[SP, #+12]
        CMP      R0,#+1
        BGE.N    ??main_16
        LDRSH    R0,[SP, #+16]
        CMP      R0,#+2
        BLT.N    ??main_16
//  603                       	       {
//  604 								 flagNotMin=1 ;
        MOVS     R0,#+1
        LDR.W    R1,??DataTable16_19
        STRB     R0,[R1, #+0]
//  605 								 sprintf((char *)(pUARTBuf+15),"Clsoe Mic 6\r\n");
        LDR.W    R1,??DataTable16_26
        LDR.W    R0,??DataTable16_21
          CFI FunCall sprintf
        BL       sprintf
//  606 							   }
//  607 
//  608 							}
//  609 							else
//  610 							{
//  611 
//  612 							}
//  613 
//  614 
//  615 							if ((test[4]<=-1))
??main_16:
        LDRSH    R0,[SP, #+16]
        CMP      R0,#+0
        BPL.N    ??main_17
//  616 							{
//  617 
//  618                                 if ((test[1]>=-1)&&(test[3]>-0))
        LDRSH    R0,[SP, #+10]
        CMN      R0,#+1
        BLT.N    ??main_18
        LDRSH    R0,[SP, #+14]
        CMP      R0,#+1
        BLT.N    ??main_18
//  619                                 {
//  620 									sprintf((char *)(pUARTBuf+15),"Clsoe Mic 7\r\n");
        LDR.W    R1,??DataTable16_27
        LDR.W    R0,??DataTable16_21
          CFI FunCall sprintf
        BL       sprintf
//  621 									flagNotMin=1 ;
        MOVS     R0,#+1
        LDR.W    R1,??DataTable16_19
        STRB     R0,[R1, #+0]
        B.N      ??main_18
//  622 
//  623                                	}
//  624 
//  625 								;
//  626 							}
//  627 							else if (test[4]>=3)
??main_17:
        LDRSH    R0,[SP, #+16]
        CMP      R0,#+3
        BLT.N    ??main_18
//  628 							{
//  629 							    if ((test[1]<-1)&&(test[3]<-2))
        LDRSH    R0,[SP, #+10]
        CMN      R0,#+1
        BGE.N    ??main_18
        LDRSH    R0,[SP, #+14]
        CMN      R0,#+2
        BGE.N    ??main_18
//  630 							   {
//  631 								sprintf((char *)(pUARTBuf+15),"Clsoe Mic 8\r\n");
        LDR.W    R1,??DataTable16_28
        LDR.W    R0,??DataTable16_21
          CFI FunCall sprintf
        BL       sprintf
//  632 								flagNotMin=1 ;
        MOVS     R0,#+1
        LDR.W    R1,??DataTable16_19
        STRB     R0,[R1, #+0]
//  633 							   }
//  634 
//  635 							}
//  636 							else
//  637 							{
//  638 
//  639 							}
//  640 
//  641 
//  642 							if (flagNotMin==0) sprintf((char *)(pUARTBuf+15),"----------- \r\n");
??main_18:
        LDR.W    R0,??DataTable16_19
        LDRB     R0,[R0, #+0]
        CMP      R0,#+0
        BNE.N    ??main_19
        LDR.W    R1,??DataTable16_29
        LDR.W    R0,??DataTable16_21
          CFI FunCall sprintf
        BL       sprintf
//  643 									
//  644            
//  645                           //HAL_UART_Transmit_IT(&huart3,pUARTBuf,15);
//  646                           SrvB_Debound(&flgS2Ins,&flgS2Flt, flgS2,2);
??main_19:
        MOVS     R3,#+2
        LDR.W    R0,??DataTable16_30
        LDRB     R2,[R0, #+0]
        LDR.W    R1,??DataTable16_31
        LDR.W    R0,??DataTable16_32
          CFI FunCall SrvB_Debound
        BL       SrvB_Debound
//  647                           SrvB_Debound(&flgS3Ins,&flgS3Flt, flgS3,2);
        MOVS     R3,#+2
        LDR.W    R0,??DataTable16_33
        LDRB     R2,[R0, #+0]
        LDR.W    R1,??DataTable16_34
        LDR.W    R0,??DataTable16_35
          CFI FunCall SrvB_Debound
        BL       SrvB_Debound
//  648                           SrvB_Debound(&flgS4Ins,&flgS4Flt, flgS4,2);
        MOVS     R3,#+2
        LDR.W    R0,??DataTable16_36
        LDRB     R2,[R0, #+0]
        LDR.W    R1,??DataTable16_37
        LDR.W    R0,??DataTable16_38
          CFI FunCall SrvB_Debound
        BL       SrvB_Debound
//  649 
//  650                           stDir = (flgS2Flt<<2)|(flgS3Flt<<1)|(flgS4Flt); 
        LDR.W    R0,??DataTable16_31
        LDRB     R0,[R0, #+0]
        LDR.W    R1,??DataTable16_34
        LDRB     R1,[R1, #+0]
        LSLS     R1,R1,#+1
        ORRS     R0,R1,R0, LSL #+2
        LDR.W    R1,??DataTable16_37
        LDRB     R1,[R1, #+0]
        ORRS     R0,R1,R0
        LDR.W    R1,??DataTable16_39
        STRB     R0,[R1, #+0]
//  651                            switch (8)
//  652                            {
//  653                                case 0:
//  654                                         sprintf((char *)(pUARTBuf+15),"Direction 0 \r\n");
//  655                                                  
//  656                                     break;
//  657                                case 1:
//  658                                         sprintf((char *)(pUARTBuf+15),"Direction 1 \r\n");
//  659                                         
//  660                                     break;
//  661                                case 2:
//  662                                         sprintf((char *)(pUARTBuf+15),"Direction 2 \r\n");
//  663                                          
//  664                                     break;
//  665                                         
//  666                                case 3:
//  667                                         sprintf((char *)(pUARTBuf+15),"Direction 3 \r\n");
//  668                                  
//  669                                     break;
//  670                                case 4:
//  671                                         sprintf((char *)(pUARTBuf+15),"Direction 4 \r\n");
//  672                                                  
//  673                                     break;
//  674                                 case 5:
//  675                                         sprintf((char *)(pUARTBuf+15),"Direction 5 \r\n");
//  676                                          
//  677                                     break;
//  678                                 case 6:
//  679                                         sprintf((char *)(pUARTBuf+15),"Direction 6 \r\n");
//  680                                  
//  681                                     break;
//  682                                 case 7:
//  683                                         sprintf((char *)(pUARTBuf+15),"Direction 7 \r\n");
//  684                                          
//  685                                     break;
//  686                                  default:
//  687                                     break;
//  688                            }
//  689 
//  690                            HAL_UART_Transmit_IT(&huart3,pUARTBuf,15+15);		
        MOVS     R2,#+30
        LDR.W    R1,??DataTable16_18
        LDR.W    R0,??DataTable16_40
          CFI FunCall HAL_UART_Transmit_IT
        BL       HAL_UART_Transmit_IT
//  691                          }
//  692                     }
//  693 
//  694 #endif
//  695 	   	            cntTime200=0;
??main_10:
        MOVS     R0,#+0
        LDR.W    R1,??DataTable16_15
        STRH     R0,[R1, #+0]
        B.N      ??main_0
//  696                          }
//  697 
//  698 
//  699                     }
//  700 
//  701 
//  702 	
//  703   }
//  704   
//  705 }
          CFI EndBlock cfiBlock4

        SECTION `.bss`:DATA:REORDER:NOROOT(0)
        DATA
??flagNotMin:
        DS8 1
//  706 
//  707 /**
//  708   * @brief  Toggle Leds.
//  709   * @param  None
//  710   * @retval None
//  711   */

        SECTION `.text`:CODE:NOROOT(1)
          CFI Block cfiBlock5 Using cfiCommon0
          CFI Function Toggle_Leds
          CFI NoCalls
        THUMB
//  712 void Toggle_Leds(void)
//  713 {
//  714   static uint32_t ticks = 0;
//  715 
//  716   if (ticks++ > 200)
Toggle_Leds:
        LDR.W    R0,??DataTable16_41
        LDR      R0,[R0, #+0]
        ADDS     R1,R0,#+1
        LDR.W    R2,??DataTable16_41
        STR      R1,[R2, #+0]
        CMP      R0,#+201
        BCC.N    ??Toggle_Leds_0
//  717   {
//  718     //BSP_LED_Toggle(LED1);
//  719     ticks = 0;
        MOVS     R0,#+0
        LDR.W    R1,??DataTable16_41
        STR      R0,[R1, #+0]
//  720   }
//  721 }
??Toggle_Leds_0:
        BX       LR               ;; return
          CFI EndBlock cfiBlock5

        SECTION `.bss`:DATA:REORDER:NOROOT(2)
        DATA
??ticks:
        DS8 4
//  722 
//  723 
//  724 /**
//  725   * @brief  User Process
//  726   * @param  phost: Host Handle
//  727   * @param  id: Host Library user message ID
//  728   * @retval None
//  729   */
//  730 static void USBH_UserProcess(USBH_HandleTypeDef *phost, uint8_t id)
//  731 {
//  732   switch(id)
//  733   { 
//  734   case HOST_USER_SELECT_CONFIGURATION:
//  735     break;
//  736     
//  737   case HOST_USER_DISCONNECTION:
//  738     appli_state = APPLICATION_DISCONNECT;
//  739     break;
//  740 
//  741   case HOST_USER_CLASS_ACTIVE:
//  742     appli_state = APPLICATION_READY;
//  743     break;
//  744  
//  745   case HOST_USER_CONNECTION:
//  746     appli_state = APPLICATION_START;
//  747     break;
//  748    
//  749   default:
//  750     break; 
//  751   }
//  752 }
//  753 
//  754 /**
//  755   * @brief  System Clock Configuration
//  756   *         The system Clock is configured as follow : 
//  757   *            System Clock source            = PLL (HSE)
//  758   *            SYSCLK(Hz)                     = 216000000
//  759   *            HCLK(Hz)                       = 216000000
//  760   *            AHB Prescaler                  = 1
//  761   *            APB1 Prescaler                 = 4
//  762   *            APB2 Prescaler                 = 2
//  763   *            HSE Frequency(Hz)              = 25000000
//  764   *            PLL_M                          = 25
//  765   *            PLL_N                          = 432
//  766   *            PLL_P                          = 2
//  767   *            PLL_Q                          = 9
//  768   *            VDD(V)                         = 3.3
//  769   *            Main regulator output voltage  = Scale1 mode
//  770   *            Flash Latency(WS)              = 7
//  771   * @param  None
//  772   * @retval None
//  773   */

        SECTION `.text`:CODE:NOROOT(1)
          CFI Block cfiBlock6 Using cfiCommon0
          CFI Function SystemClock_Config
        THUMB
//  774 static void SystemClock_Config(void)
//  775 {
SystemClock_Config:
        PUSH     {R4,LR}
          CFI R14 Frame(CFA, -4)
          CFI R4 Frame(CFA, -8)
          CFI CFA R13+8
        SUB      SP,SP,#+200
          CFI CFA R13+208
//  776   RCC_ClkInitTypeDef RCC_ClkInitStruct;
//  777   RCC_OscInitTypeDef RCC_OscInitStruct;
//  778   RCC_PeriphCLKInitTypeDef PeriphClkInitStruct;
//  779   HAL_StatusTypeDef ret = HAL_OK;
        MOVS     R4,#+0
//  780 
//  781   /* Enable HSE Oscillator and activate PLL with HSE as source */
//  782   RCC_OscInitStruct.OscillatorType = RCC_OSCILLATORTYPE_HSE;
        MOVS     R0,#+1
        STR      R0,[SP, #+152]
//  783   RCC_OscInitStruct.HSEState = RCC_HSE_ON;
        MOVS     R0,#+65536
        STR      R0,[SP, #+156]
//  784   RCC_OscInitStruct.PLL.PLLState = RCC_PLL_ON;
        MOVS     R0,#+2
        STR      R0,[SP, #+176]
//  785   RCC_OscInitStruct.PLL.PLLSource = RCC_PLLSOURCE_HSE;
        MOVS     R0,#+4194304
        STR      R0,[SP, #+180]
//  786   RCC_OscInitStruct.PLL.PLLM = 25;
        MOVS     R0,#+25
        STR      R0,[SP, #+184]
//  787   RCC_OscInitStruct.PLL.PLLN = 432;  
        MOV      R0,#+432
        STR      R0,[SP, #+188]
//  788   RCC_OscInitStruct.PLL.PLLP = RCC_PLLP_DIV2;
        MOVS     R0,#+2
        STR      R0,[SP, #+192]
//  789   RCC_OscInitStruct.PLL.PLLQ = 9;
        MOVS     R0,#+9
        STR      R0,[SP, #+196]
//  790 
//  791   ret = HAL_RCC_OscConfig(&RCC_OscInitStruct);
        ADD      R0,SP,#+152
          CFI FunCall HAL_RCC_OscConfig
        BL       HAL_RCC_OscConfig
        MOVS     R4,R0
//  792   if(ret != HAL_OK)
//  793   {
//  794     //while(1) { ; }
//  795   }
//  796 
//  797   /* Activate the OverDrive to reach the 216 MHz Frequency */
//  798   ret = HAL_PWREx_EnableOverDrive();
          CFI FunCall HAL_PWREx_EnableOverDrive
        BL       HAL_PWREx_EnableOverDrive
        MOVS     R4,R0
//  799   if(ret != HAL_OK)
//  800   {
//  801     //while(1) { ; }
//  802   }
//  803 
//  804   /* Select PLLSAI output as USB clock source */
//  805   PeriphClkInitStruct.PeriphClockSelection = RCC_PERIPHCLK_CLK48 ;
        MOVS     R0,#+2097152
        STR      R0,[SP, #+20]
//  806   PeriphClkInitStruct.Clk48ClockSelection = RCC_CLK48SOURCE_PLLSAIP;
        MOVS     R0,#+134217728
        STR      R0,[SP, #+144]
//  807 
//  808   
//  809   PeriphClkInitStruct.PLLSAI.PLLSAIN = 192;
        MOVS     R0,#+192
        STR      R0,[SP, #+40]
//  810   PeriphClkInitStruct.PLLSAI.PLLSAIQ = 4; 
        MOVS     R0,#+4
        STR      R0,[SP, #+44]
//  811   PeriphClkInitStruct.PLLSAI.PLLSAIP = RCC_PLLSAIP_DIV4;
        MOVS     R0,#+1
        STR      R0,[SP, #+52]
//  812   PeriphClkInitStruct.PLLSAI.PLLSAIR = 2;
        MOVS     R0,#+2
        STR      R0,[SP, #+48]
//  813 
//  814 
//  815   ret = HAL_RCCEx_PeriphCLKConfig(&PeriphClkInitStruct);
        ADD      R0,SP,#+20
          CFI FunCall HAL_RCCEx_PeriphCLKConfig
        BL       HAL_RCCEx_PeriphCLKConfig
        MOVS     R4,R0
//  816   
//  817   if(ret != HAL_OK)
//  818   {
//  819     //while(1) { ; }
//  820   }
//  821   
//  822   /* Select PLL as system clock source and configure the HCLK, PCLK1 and PCLK2 clocks dividers */
//  823   RCC_ClkInitStruct.ClockType = (RCC_CLOCKTYPE_SYSCLK | RCC_CLOCKTYPE_HCLK | RCC_CLOCKTYPE_PCLK1 | RCC_CLOCKTYPE_PCLK2);
        MOVS     R0,#+15
        STR      R0,[SP, #+0]
//  824   RCC_ClkInitStruct.SYSCLKSource = RCC_SYSCLKSOURCE_PLLCLK;
        MOVS     R0,#+2
        STR      R0,[SP, #+4]
//  825   RCC_ClkInitStruct.AHBCLKDivider = RCC_SYSCLK_DIV2;
        MOVS     R0,#+128
        STR      R0,[SP, #+8]
//  826   RCC_ClkInitStruct.APB1CLKDivider = RCC_HCLK_DIV4;  
        MOV      R0,#+5120
        STR      R0,[SP, #+12]
//  827   RCC_ClkInitStruct.APB2CLKDivider = RCC_HCLK_DIV2;
        MOV      R0,#+4096
        STR      R0,[SP, #+16]
//  828 
//  829   ret = HAL_RCC_ClockConfig(&RCC_ClkInitStruct, FLASH_LATENCY_7);
        MOVS     R1,#+7
        MOV      R0,SP
          CFI FunCall HAL_RCC_ClockConfig
        BL       HAL_RCC_ClockConfig
        MOVS     R4,R0
//  830   if(ret != HAL_OK)
//  831   {
//  832     //while(1) { ; }
//  833   }
//  834   
//  835  //sop1hc 344/7 = 49.142 MHz
//  836   PeriphClkInitStruct.PeriphClockSelection = RCC_PERIPHCLK_SAI2|RCC_PERIPHCLK_I2S;
        LDR.W    R0,??DataTable16_42  ;; 0x100001
        STR      R0,[SP, #+20]
//  837   PeriphClkInitStruct.Sai2ClockSelection = RCC_SAI2CLKSOURCE_PLLI2S;
        MOVS     R0,#+4194304
        STR      R0,[SP, #+84]
//  838   PeriphClkInitStruct.I2sClockSelection = RCC_I2SCLKSOURCE_PLLI2S;
        MOVS     R0,#+0
        STR      R0,[SP, #+72]
//  839   PeriphClkInitStruct.PLLI2S.PLLI2SP = 8;
        MOVS     R0,#+8
        STR      R0,[SP, #+36]
//  840   PeriphClkInitStruct.PLLI2S.PLLI2SN = 344;//244
        MOV      R0,#+344
        STR      R0,[SP, #+24]
//  841   PeriphClkInitStruct.PLLI2S.PLLI2SQ = 7;
        MOVS     R0,#+7
        STR      R0,[SP, #+32]
//  842   PeriphClkInitStruct.PLLI2S.PLLI2SR = 7;
        MOVS     R0,#+7
        STR      R0,[SP, #+28]
//  843   PeriphClkInitStruct.PLLI2SDivQ = 1;
        MOVS     R0,#+1
        STR      R0,[SP, #+56]
//  844   HAL_RCCEx_PeriphCLKConfig(&PeriphClkInitStruct);	
        ADD      R0,SP,#+20
          CFI FunCall HAL_RCCEx_PeriphCLKConfig
        BL       HAL_RCCEx_PeriphCLKConfig
//  845 }
        ADD      SP,SP,#+200
          CFI CFA R13+8
        POP      {R4,PC}          ;; return
          CFI EndBlock cfiBlock6
//  846 
//  847 /**
//  848   * @brief  Clock Config.
//  849   * @param  hsai: might be required to set audio peripheral predivider if any.
//  850   * @param  AudioFreq: Audio frequency used to play the audio stream.
//  851   * @note   This API is called by BSP_AUDIO_OUT_Init() and BSP_AUDIO_OUT_SetFrequency()
//  852   *         Being __weak it can be overwritten by the application     
//  853   * @retval None
//  854   */

        SECTION `.text`:CODE:NOROOT(1)
          CFI Block cfiBlock7 Using cfiCommon0
          CFI Function BSP_AUDIO_OUT_ClockConfig
        THUMB
//  855 void BSP_AUDIO_OUT_ClockConfig(uint32_t AudioFreq, void *Params)
//  856 {
BSP_AUDIO_OUT_ClockConfig:
        PUSH     {R4,R5,LR}
          CFI R14 Frame(CFA, -4)
          CFI R5 Frame(CFA, -8)
          CFI R4 Frame(CFA, -12)
          CFI CFA R13+12
        SUB      SP,SP,#+132
          CFI CFA R13+144
        MOVS     R4,R0
        MOVS     R5,R1
//  857   RCC_PeriphCLKInitTypeDef RCC_ExCLKInitStruct;
//  858 
//  859   HAL_RCCEx_GetPeriphCLKConfig(&RCC_ExCLKInitStruct);
        MOV      R0,SP
          CFI FunCall HAL_RCCEx_GetPeriphCLKConfig
        BL       HAL_RCCEx_GetPeriphCLKConfig
//  860   
//  861   /* Set the PLL configuration according to the audio frequency */
//  862   if((AudioFreq == AUDIO_FREQUENCY_11K) || (AudioFreq == AUDIO_FREQUENCY_22K) || (AudioFreq == AUDIO_FREQUENCY_44K))
        MOVW     R0,#+11025
        CMP      R4,R0
        BEQ.N    ??BSP_AUDIO_OUT_ClockConfig_0
        MOVW     R0,#+22050
        CMP      R4,R0
        BEQ.N    ??BSP_AUDIO_OUT_ClockConfig_0
        MOVW     R0,#+44100
        CMP      R4,R0
        BNE.N    ??BSP_AUDIO_OUT_ClockConfig_1
//  863   {
//  864     /* Configure PLLSAI prescalers */
//  865     /* PLLI2S_VCO: VCO_429M
//  866     SAI_CLK(first level) = PLLI2S_VCO/PLLSAIQ = 429/2 = 214.5 Mhz
//  867     SAI_CLK_x = SAI_CLK(first level)/PLLI2SDivQ = 214.5/19 = 11.289 Mhz */
//  868     RCC_ExCLKInitStruct.PeriphClockSelection = RCC_PERIPHCLK_SAI2;
??BSP_AUDIO_OUT_ClockConfig_0:
        MOVS     R0,#+1048576
        STR      R0,[SP, #+0]
//  869     RCC_ExCLKInitStruct.Sai2ClockSelection = RCC_SAI2CLKSOURCE_PLLI2S;
        MOVS     R0,#+4194304
        STR      R0,[SP, #+64]
//  870     RCC_ExCLKInitStruct.PLLI2S.PLLI2SP = 8;
        MOVS     R0,#+8
        STR      R0,[SP, #+16]
//  871     RCC_ExCLKInitStruct.PLLI2S.PLLI2SN = 429;
        MOVW     R0,#+429
        STR      R0,[SP, #+4]
//  872     RCC_ExCLKInitStruct.PLLI2S.PLLI2SQ = 2;
        MOVS     R0,#+2
        STR      R0,[SP, #+12]
//  873     RCC_ExCLKInitStruct.PLLI2SDivQ = 19;
        MOVS     R0,#+19
        STR      R0,[SP, #+36]
//  874     HAL_RCCEx_PeriphCLKConfig(&RCC_ExCLKInitStruct);
        MOV      R0,SP
          CFI FunCall HAL_RCCEx_PeriphCLKConfig
        BL       HAL_RCCEx_PeriphCLKConfig
        B.N      ??BSP_AUDIO_OUT_ClockConfig_2
//  875   }
//  876   else /* AUDIO_FREQUENCY_8K, AUDIO_FREQUENCY_16K, AUDIO_FREQUENCY_48K), AUDIO_FREQUENCY_96K */
//  877   {
//  878     /* SAI clock config
//  879     PLLI2S_VCO: VCO_344M
//  880     SAI_CLK(first level) = PLLI2S_VCO/PLLSAIQ = 344/7 = 49.142 Mhz
//  881     SAI_CLK_x = SAI_CLK(first level)/PLLI2SDivQ = 49.142/1 = 49.142 Mhz */
//  882     RCC_ExCLKInitStruct.PeriphClockSelection = RCC_PERIPHCLK_SAI2;
??BSP_AUDIO_OUT_ClockConfig_1:
        MOVS     R0,#+1048576
        STR      R0,[SP, #+0]
//  883     RCC_ExCLKInitStruct.Sai2ClockSelection = RCC_SAI2CLKSOURCE_PLLI2S;
        MOVS     R0,#+4194304
        STR      R0,[SP, #+64]
//  884 	//RCC_ExCLKInitStruct.I2sClockSelection = RCC_I2SCLKSOURCE_PLLI2S;
//  885 //    RCC_ExCLKInitStruct.PLLI2S.PLLI2SP = 8;
//  886     RCC_ExCLKInitStruct.PLLI2S.PLLI2SN = 344;//244
        MOV      R0,#+344
        STR      R0,[SP, #+4]
//  887     RCC_ExCLKInitStruct.PLLI2S.PLLI2SQ = 7;
        MOVS     R0,#+7
        STR      R0,[SP, #+12]
//  888 	//RCC_ExCLKInitStruct.PLLI2S.PLLI2SR = 1;
//  889     RCC_ExCLKInitStruct.PLLI2SDivQ = 1;
        MOVS     R0,#+1
        STR      R0,[SP, #+36]
//  890     HAL_RCCEx_PeriphCLKConfig(&RCC_ExCLKInitStruct);
        MOV      R0,SP
          CFI FunCall HAL_RCCEx_PeriphCLKConfig
        BL       HAL_RCCEx_PeriphCLKConfig
//  891   }
//  892   
//  893 }
??BSP_AUDIO_OUT_ClockConfig_2:
        ADD      SP,SP,#+132
          CFI CFA R13+12
        POP      {R4,R5,PC}       ;; return
          CFI EndBlock cfiBlock7
//  894 
//  895 
//  896 
//  897 #ifdef  USE_FULL_ASSERT
//  898 /**
//  899   * @brief  Reports the name of the source file and the source line number
//  900   *         where the assert_param error has occurred.
//  901   * @param  file: pointer to the source file name
//  902   * @param  line: assert_param error line source number
//  903   * @retval None
//  904   */
//  905 void assert_failed(uint8_t* file, uint32_t line)
//  906 { 
//  907   /* User can add his own implementation to report the file name and line number,
//  908      ex: printf("Wrong parameters value: file %s on line %d\r\n", file, line) */
//  909 
//  910   /* Infinite loop */
//  911   while (1)
//  912   {
//  913   }
//  914 }
//  915 #endif
//  916 
//  917 /**
//  918   * @brief  CPU L1-Cache enable.
//  919   * @param  None
//  920   * @retval None
//  921   */

        SECTION `.text`:CODE:NOROOT(1)
          CFI Block cfiBlock8 Using cfiCommon0
          CFI Function CPU_CACHE_Enable
        THUMB
//  922 static void CPU_CACHE_Enable(void)
//  923 {
CPU_CACHE_Enable:
        PUSH     {R7,LR}
          CFI R14 Frame(CFA, -4)
          CFI CFA R13+8
//  924   /* Enable I-Cache */
//  925   SCB_EnableICache();
          CFI FunCall SCB_EnableICache
        BL       SCB_EnableICache
//  926 
//  927   /* Enable D-Cache */
//  928   SCB_EnableDCache();
          CFI FunCall SCB_EnableDCache
        BL       SCB_EnableDCache
//  929 }
        POP      {R0,PC}          ;; return
          CFI EndBlock cfiBlock8
//  930 
//  931 

        SECTION `.text`:CODE:NOROOT(1)
          CFI Block cfiBlock9 Using cfiCommon0
          CFI Function HAL_I2C_MspInit
        THUMB
//  932 void HAL_I2C_MspInit(I2C_HandleTypeDef* hi2c)
//  933 {
HAL_I2C_MspInit:
        PUSH     {R4,LR}
          CFI R14 Frame(CFA, -4)
          CFI R4 Frame(CFA, -8)
          CFI CFA R13+8
        SUB      SP,SP,#+24
          CFI CFA R13+32
        MOVS     R4,R0
//  934 
//  935   GPIO_InitTypeDef GPIO_InitStruct;
//  936     
//  937   if(hi2c->Instance==I2C1)
        LDR      R0,[R4, #+0]
        LDR.W    R1,??DataTable16_43  ;; 0x40005400
        CMP      R0,R1
        BNE.N    ??HAL_I2C_MspInit_0
//  938   {
//  939 	/* USER CODE BEGIN I2C1_MspInit 0 */
//  940 
//  941 	/*##-1- Configure the I2C clock source. The clock is derived from the SYSCLK #*/
//  942 	//RCC_PeriphCLKInitStruct.PeriphClockSelection = RCC_PERIPHCLK_I2C1;
//  943 	//RCC_PeriphCLKInitStruct.I2c1ClockSelection = RCC_I2C1CLKSOURCE_PCLK1;
//  944 	//HAL_RCCEx_PeriphCLKConfig(&RCC_PeriphCLKInitStruct);
//  945 
//  946 	/*##-2- Enable peripherals and GPIO Clocks #################################*/
//  947 	/* Enable GPIO TX/RX clock */
//  948 	__HAL_RCC_GPIOB_CLK_ENABLE();
        LDR.W    R0,??DataTable16_4  ;; 0x40023830
        LDR      R0,[R0, #+0]
        ORRS     R0,R0,#0x2
        LDR.W    R1,??DataTable16_4  ;; 0x40023830
        STR      R0,[R1, #+0]
        LDR.W    R0,??DataTable16_4  ;; 0x40023830
        LDR      R0,[R0, #+0]
        ANDS     R0,R0,#0x2
        STR      R0,[SP, #+0]
        LDR      R0,[SP, #+0]
//  949 
//  950 	/**I2C1 GPIO Configuration	
//  951 	PB6	  ------> I2C1_SCL (PB6)
//  952 	PB7	  ------> I2C1_SDA (PB7) 
//  953 	*/
//  954 	GPIO_InitStruct.Pin = GPIO_PIN_6|GPIO_PIN_7;
        MOVS     R0,#+192
        STR      R0,[SP, #+4]
//  955 	GPIO_InitStruct.Mode = GPIO_MODE_AF_OD;
        MOVS     R0,#+18
        STR      R0,[SP, #+8]
//  956 	GPIO_InitStruct.Pull = GPIO_PULLUP;
        MOVS     R0,#+1
        STR      R0,[SP, #+12]
//  957 	GPIO_InitStruct.Speed = GPIO_SPEED_HIGH;
        MOVS     R0,#+3
        STR      R0,[SP, #+16]
//  958 	GPIO_InitStruct.Alternate = GPIO_AF4_I2C1;
        MOVS     R0,#+4
        STR      R0,[SP, #+20]
//  959 	HAL_GPIO_Init(GPIOB, &GPIO_InitStruct);
        ADD      R1,SP,#+4
        LDR.W    R0,??DataTable16_44  ;; 0x40020400
          CFI FunCall HAL_GPIO_Init
        BL       HAL_GPIO_Init
//  960 
//  961 	/* Peripheral clock enable */
//  962 	__HAL_RCC_I2C1_CLK_ENABLE();
        LDR.W    R0,??DataTable16_45  ;; 0x40023840
        LDR      R0,[R0, #+0]
        ORRS     R0,R0,#0x200000
        LDR.W    R1,??DataTable16_45  ;; 0x40023840
        STR      R0,[R1, #+0]
        LDR.W    R0,??DataTable16_45  ;; 0x40023840
        LDR      R0,[R0, #+0]
        ANDS     R0,R0,#0x200000
        STR      R0,[SP, #+0]
        LDR      R0,[SP, #+0]
//  963 	/* Peripheral interrupt init*/
//  964 	HAL_NVIC_SetPriority(I2C1_EV_IRQn, 3, 0);
        MOVS     R2,#+0
        MOVS     R1,#+3
        MOVS     R0,#+31
          CFI FunCall HAL_NVIC_SetPriority
        BL       HAL_NVIC_SetPriority
//  965 	HAL_NVIC_EnableIRQ(I2C1_EV_IRQn);
        MOVS     R0,#+31
          CFI FunCall HAL_NVIC_EnableIRQ
        BL       HAL_NVIC_EnableIRQ
        B.N      ??HAL_I2C_MspInit_1
//  966 
//  967   }
//  968   else if(hi2c->Instance==I2C2)
??HAL_I2C_MspInit_0:
        LDR      R0,[R4, #+0]
        LDR.W    R1,??DataTable16_46  ;; 0x40005800
        CMP      R0,R1
        BNE.N    ??HAL_I2C_MspInit_1
//  969   {
//  970   /* USER CODE BEGIN I2C2_MspInit 0 */
//  971 
//  972   /* USER CODE END I2C2_MspInit 0 */
//  973   
//  974     /**I2C2 GPIO Configuration    
//  975     PB10     ------> I2C2_SCL
//  976     PB11     ------> I2C2_SDA 
//  977     */
//  978     __HAL_RCC_GPIOB_CLK_ENABLE();
        LDR.W    R0,??DataTable16_4  ;; 0x40023830
        LDR      R0,[R0, #+0]
        ORRS     R0,R0,#0x2
        LDR.W    R1,??DataTable16_4  ;; 0x40023830
        STR      R0,[R1, #+0]
        LDR.W    R0,??DataTable16_4  ;; 0x40023830
        LDR      R0,[R0, #+0]
        ANDS     R0,R0,#0x2
        STR      R0,[SP, #+0]
        LDR      R0,[SP, #+0]
//  979     
//  980     GPIO_InitStruct.Pin = GPIO_PIN_10|GPIO_PIN_11;
        MOV      R0,#+3072
        STR      R0,[SP, #+4]
//  981     GPIO_InitStruct.Mode = GPIO_MODE_AF_OD;
        MOVS     R0,#+18
        STR      R0,[SP, #+8]
//  982     GPIO_InitStruct.Pull = GPIO_NOPULL;
        MOVS     R0,#+0
        STR      R0,[SP, #+12]
//  983     GPIO_InitStruct.Speed = GPIO_SPEED_HIGH;
        MOVS     R0,#+3
        STR      R0,[SP, #+16]
//  984     GPIO_InitStruct.Alternate = GPIO_AF4_I2C2;
        MOVS     R0,#+4
        STR      R0,[SP, #+20]
//  985     HAL_GPIO_Init(GPIOB, &GPIO_InitStruct);
        ADD      R1,SP,#+4
        LDR.W    R0,??DataTable16_44  ;; 0x40020400
          CFI FunCall HAL_GPIO_Init
        BL       HAL_GPIO_Init
//  986 
//  987     /* Peripheral clock enable */
//  988     __HAL_RCC_I2C2_CLK_ENABLE();
        LDR.W    R0,??DataTable16_45  ;; 0x40023840
        LDR      R0,[R0, #+0]
        ORRS     R0,R0,#0x400000
        LDR.W    R1,??DataTable16_45  ;; 0x40023840
        STR      R0,[R1, #+0]
        LDR.W    R0,??DataTable16_45  ;; 0x40023840
        LDR      R0,[R0, #+0]
        ANDS     R0,R0,#0x400000
        STR      R0,[SP, #+0]
        LDR      R0,[SP, #+0]
//  989     /* Peripheral interrupt init*/
//  990     //HAL_NVIC_SetPriority(I2C2_EV_IRQn, 3, 1);
//  991     //HAL_NVIC_EnableIRQ(I2C2_EV_IRQn);
//  992   }
//  993 
//  994 }
??HAL_I2C_MspInit_1:
        ADD      SP,SP,#+24
          CFI CFA R13+8
        POP      {R4,PC}          ;; return
          CFI EndBlock cfiBlock9
//  995 
//  996 /*---------------------------------------------------*/
//  997 /*   UART                                            */
//  998 /* UART4 init function */

        SECTION `.text`:CODE:NOROOT(1)
          CFI Block cfiBlock10 Using cfiCommon0
          CFI Function USART3_Init
        THUMB
//  999 void USART3_Init(void)
// 1000 {
USART3_Init:
        PUSH     {R7,LR}
          CFI R14 Frame(CFA, -4)
          CFI CFA R13+8
// 1001 
// 1002   huart3.Instance = USART3;
        LDR.W    R0,??DataTable16_47  ;; 0x40004800
        LDR.W    R1,??DataTable16_40
        STR      R0,[R1, #+0]
// 1003   huart3.Init.BaudRate = 115200;
        MOVS     R0,#+115200
        LDR.W    R1,??DataTable16_40
        STR      R0,[R1, #+4]
// 1004   huart3.Init.WordLength = UART_WORDLENGTH_8B;
        MOVS     R0,#+0
        LDR.W    R1,??DataTable16_40
        STR      R0,[R1, #+8]
// 1005   huart3.Init.StopBits = UART_STOPBITS_1;
        MOVS     R0,#+0
        LDR.W    R1,??DataTable16_40
        STR      R0,[R1, #+12]
// 1006   huart3.Init.Parity = UART_PARITY_NONE;
        MOVS     R0,#+0
        LDR.W    R1,??DataTable16_40
        STR      R0,[R1, #+16]
// 1007   huart3.Init.Mode = UART_MODE_TX_RX;
        MOVS     R0,#+12
        LDR.W    R1,??DataTable16_40
        STR      R0,[R1, #+20]
// 1008   huart3.Init.HwFlowCtl = UART_HWCONTROL_NONE;
        MOVS     R0,#+0
        LDR.W    R1,??DataTable16_40
        STR      R0,[R1, #+24]
// 1009   huart3.Init.OverSampling = UART_OVERSAMPLING_16;
        MOVS     R0,#+0
        LDR.W    R1,??DataTable16_40
        STR      R0,[R1, #+28]
// 1010   huart3.Init.OneBitSampling = UART_ONEBIT_SAMPLING_DISABLED ;
        MOVS     R0,#+0
        LDR.W    R1,??DataTable16_40
        STR      R0,[R1, #+32]
// 1011   huart3.AdvancedInit.AdvFeatureInit = UART_ADVFEATURE_NO_INIT;
        MOVS     R0,#+0
        LDR.W    R1,??DataTable16_40
        STR      R0,[R1, #+36]
// 1012   HAL_UART_Init(&huart3);
        LDR.W    R0,??DataTable16_40
          CFI FunCall HAL_UART_Init
        BL       HAL_UART_Init
// 1013 
// 1014   //HAL_NVIC_SetPriority(USART3_IRQn, 1, 1);
// 1015   //HAL_NVIC_EnableIRQ(USART3_IRQn);
// 1016 
// 1017 }
        POP      {R0,PC}          ;; return
          CFI EndBlock cfiBlock10
// 1018 
// 1019 

        SECTION `.text`:CODE:NOROOT(1)
          CFI Block cfiBlock11 Using cfiCommon0
          CFI Function HAL_UART_MspInit
        THUMB
// 1020 void HAL_UART_MspInit(UART_HandleTypeDef *huart)
// 1021 {
HAL_UART_MspInit:
        PUSH     {R4,LR}
          CFI R14 Frame(CFA, -4)
          CFI R4 Frame(CFA, -8)
          CFI CFA R13+8
        SUB      SP,SP,#+24
          CFI CFA R13+32
        MOVS     R4,R0
// 1022 
// 1023   GPIO_InitTypeDef GPIO_InitStruct;
// 1024   if(huart->Instance==USART3)
        LDR      R0,[R4, #+0]
        LDR.W    R1,??DataTable16_47  ;; 0x40004800
        CMP      R0,R1
        BNE.N    ??HAL_UART_MspInit_0
// 1025   {
// 1026 
// 1027 
// 1028   /* USER CODE END UART4_MspInit 0 */
// 1029     /* Peripheral clock enable */
// 1030     __USART3_CLK_ENABLE();
        LDR.W    R0,??DataTable16_45  ;; 0x40023840
        LDR      R0,[R0, #+0]
        ORRS     R0,R0,#0x40000
        LDR.W    R1,??DataTable16_45  ;; 0x40023840
        STR      R0,[R1, #+0]
        LDR.W    R0,??DataTable16_45  ;; 0x40023840
        LDR      R0,[R0, #+0]
        ANDS     R0,R0,#0x40000
        STR      R0,[SP, #+0]
        LDR      R0,[SP, #+0]
// 1031     __GPIOC_CLK_ENABLE();
        LDR.W    R0,??DataTable16_4  ;; 0x40023830
        LDR      R0,[R0, #+0]
        ORRS     R0,R0,#0x4
        LDR.W    R1,??DataTable16_4  ;; 0x40023830
        STR      R0,[R1, #+0]
        LDR.W    R0,??DataTable16_4  ;; 0x40023830
        LDR      R0,[R0, #+0]
        ANDS     R0,R0,#0x4
        STR      R0,[SP, #+0]
        LDR      R0,[SP, #+0]
// 1032   
// 1033     /**UART4 GPIO Configuration    
// 1034     PC10     ------> USART3_TX
// 1035     PC11     ------> USART3_RX
// 1036     */
// 1037     GPIO_InitStruct.Pin = GPIO_PIN_10|GPIO_PIN_11;
        MOV      R0,#+3072
        STR      R0,[SP, #+4]
// 1038     GPIO_InitStruct.Mode = GPIO_MODE_AF_PP;
        MOVS     R0,#+2
        STR      R0,[SP, #+8]
// 1039     GPIO_InitStruct.Pull = GPIO_PULLUP;
        MOVS     R0,#+1
        STR      R0,[SP, #+12]
// 1040     GPIO_InitStruct.Speed = GPIO_SPEED_HIGH;
        MOVS     R0,#+3
        STR      R0,[SP, #+16]
// 1041     GPIO_InitStruct.Alternate = GPIO_AF7_USART3;
        MOVS     R0,#+7
        STR      R0,[SP, #+20]
// 1042     HAL_GPIO_Init(GPIOC, &GPIO_InitStruct);
        ADD      R1,SP,#+4
        LDR.W    R0,??DataTable16_48  ;; 0x40020800
          CFI FunCall HAL_GPIO_Init
        BL       HAL_GPIO_Init
// 1043 
// 1044     /* NVIC for USART */
// 1045     HAL_NVIC_SetPriority(USART3_IRQn, 7, 1);
        MOVS     R2,#+1
        MOVS     R1,#+7
        MOVS     R0,#+39
          CFI FunCall HAL_NVIC_SetPriority
        BL       HAL_NVIC_SetPriority
// 1046     HAL_NVIC_EnableIRQ(USART3_IRQn);
        MOVS     R0,#+39
          CFI FunCall HAL_NVIC_EnableIRQ
        BL       HAL_NVIC_EnableIRQ
// 1047 
// 1048   }
// 1049 
// 1050 }
??HAL_UART_MspInit_0:
        ADD      SP,SP,#+24
          CFI CFA R13+8
        POP      {R4,PC}          ;; return
          CFI EndBlock cfiBlock11

        SECTION `.text`:CODE:NOROOT(2)
        SECTION_TYPE SHT_PROGBITS, 0
        DATA
??DataTable9:
        DC32     0xe000ef50
// 1051 
// 1052 
// 1053 

        SECTION `.text`:CODE:NOROOT(1)
          CFI Block cfiBlock12 Using cfiCommon0
          CFI Function EXTI4_IRQHandler
        THUMB
// 1054 void EXTI4_IRQHandler(void)
// 1055 {
EXTI4_IRQHandler:
        PUSH     {R7,LR}
          CFI R14 Frame(CFA, -4)
          CFI CFA R13+8
// 1056     /* EXTI line interrupt detected */
// 1057   if(__HAL_GPIO_EXTI_GET_IT(GPIO_PIN_4) != RESET)
        LDR.W    R0,??DataTable16_49  ;; 0x40013c14
        LDR      R0,[R0, #+0]
        LSLS     R0,R0,#+27
        BPL.N    ??EXTI4_IRQHandler_0
// 1058   {
// 1059     
// 1060      if (cntRisingEXTI==20)
        LDR.W    R0,??DataTable16_50
        LDRH     R0,[R0, #+0]
        CMP      R0,#+20
        BNE.N    ??EXTI4_IRQHandler_1
// 1061      {
// 1062     	/*--------------Enable read PCM data --------------------*/   
// 1063         //flgDlyUpd = 1;  
// 1064         //__HAL_SPI_ENABLE_IT(&hspi5, (SPI_IT_RXNE| SPI_IT_ERR));
// 1065 		//__HAL_UNLOCK(&hspi5);
// 1066         //__HAL_SPI_ENABLE(&hspi5);
// 1067 		cntRisingEXTI=0;
        MOVS     R0,#+0
        LDR.W    R1,??DataTable16_50
        STRH     R0,[R1, #+0]
// 1068 
// 1069 		/*Disable external interrupt */
// 1070 		HAL_NVIC_DisableIRQ((IRQn_Type)(EXTI4_IRQn));
        MOVS     R0,#+10
          CFI FunCall HAL_NVIC_DisableIRQ
        BL       HAL_NVIC_DisableIRQ
        B.N      ??EXTI4_IRQHandler_2
// 1071 		//HAL_GPIO_DeInit(GPIOB,GPIO_PIN_4);
// 1072      }
// 1073      else
// 1074      {
// 1075          cntRisingEXTI++;
??EXTI4_IRQHandler_1:
        LDR.W    R0,??DataTable16_50
        LDRH     R0,[R0, #+0]
        ADDS     R0,R0,#+1
        LDR.W    R1,??DataTable16_50
        STRH     R0,[R1, #+0]
// 1076 		 //__HAL_SPI_DISABLE(&hspi5);
// 1077      }
// 1078      
// 1079       __HAL_GPIO_EXTI_CLEAR_IT(GPIO_PIN_4);
??EXTI4_IRQHandler_2:
        MOVS     R0,#+16
        LDR.W    R1,??DataTable16_49  ;; 0x40013c14
        STR      R0,[R1, #+0]
// 1080 
// 1081   }
// 1082 }
??EXTI4_IRQHandler_0:
        POP      {R0,PC}          ;; return
          CFI EndBlock cfiBlock12

        SECTION `.text`:CODE:NOROOT(2)
        SECTION_TYPE SHT_PROGBITS, 0
        DATA
??DataTable10:
        DC32     0xe000ed84

        SECTION `.text`:CODE:NOROOT(2)
        SECTION_TYPE SHT_PROGBITS, 0
        DATA
??DataTable10_1:
        DC32     0xe000ed80

        SECTION `.text`:CODE:NOROOT(2)
        SECTION_TYPE SHT_PROGBITS, 0
        DATA
??DataTable10_2:
        DC32     0xe000ef60
// 1083               

        SECTION `.text`:CODE:NOROOT(1)
          CFI Block cfiBlock13 Using cfiCommon0
          CFI Function EXTI15_10_IRQHandler
          CFI NoCalls
        THUMB
// 1084 void EXTI15_10_IRQHandler(void)
// 1085 {
// 1086 
// 1087 }
EXTI15_10_IRQHandler:
        BX       LR               ;; return
          CFI EndBlock cfiBlock13
// 1088 
// 1089 /* Events for Button Press */

        SECTION `.text`:CODE:NOROOT(1)
          CFI Block cfiBlock14 Using cfiCommon0
          CFI Function EXTI9_5_IRQHandler
        THUMB
// 1090 void EXTI9_5_IRQHandler(void)
// 1091 {
EXTI9_5_IRQHandler:
        PUSH     {R7,LR}
          CFI R14 Frame(CFA, -4)
          CFI CFA R13+8
// 1092 
// 1093   /* EXTI line interrupt detected */
// 1094   if(__HAL_GPIO_EXTI_GET_IT(GPIO_PIN_8) != RESET)
        LDR.W    R0,??DataTable16_49  ;; 0x40013c14
        LDR      R0,[R0, #+0]
        LSLS     R0,R0,#+23
        BPL.N    ??EXTI9_5_IRQHandler_0
// 1095   {
// 1096 	  btnSW2 = 1;
        MOVS     R0,#+1
        LDR.W    R1,??DataTable16_51
        STRB     R0,[R1, #+0]
// 1097 	  BSP_LED_Toggle(LED2);
        MOVS     R0,#+1
          CFI FunCall BSP_LED_Toggle
        BL       BSP_LED_Toggle
// 1098 	  __HAL_GPIO_EXTI_CLEAR_IT(GPIO_PIN_8);
        MOV      R0,#+256
        LDR.W    R1,??DataTable16_49  ;; 0x40013c14
        STR      R0,[R1, #+0]
// 1099 
// 1100   }
// 1101 
// 1102 
// 1103   /* EXTI line interrupt detected */
// 1104   if(__HAL_GPIO_EXTI_GET_IT(GPIO_PIN_9) != RESET)
??EXTI9_5_IRQHandler_0:
        LDR.W    R0,??DataTable16_49  ;; 0x40013c14
        LDR      R0,[R0, #+0]
        LSLS     R0,R0,#+22
        BPL.N    ??EXTI9_5_IRQHandler_1
// 1105   {
// 1106 		btnSW1 = 1;
        MOVS     R0,#+1
        LDR.W    R1,??DataTable16_52
        STRB     R0,[R1, #+0]
// 1107 		Command_index^=0x01;
        LDR.N    R0,??DataTable14
        LDRB     R0,[R0, #+0]
        EORS     R0,R0,#0x1
        LDR.N    R1,??DataTable14
        STRB     R0,[R1, #+0]
// 1108 		BSP_LED_Toggle(LED1);
        MOVS     R0,#+0
          CFI FunCall BSP_LED_Toggle
        BL       BSP_LED_Toggle
// 1109 
// 1110 	   __HAL_GPIO_EXTI_CLEAR_IT(GPIO_PIN_9);
        MOV      R0,#+512
        LDR.W    R1,??DataTable16_49  ;; 0x40013c14
        STR      R0,[R1, #+0]
// 1111   }
// 1112 
// 1113 }
??EXTI9_5_IRQHandler_1:
        POP      {R0,PC}          ;; return
          CFI EndBlock cfiBlock14

        SECTION `.text`:CODE:NOROOT(2)
        SECTION_TYPE SHT_PROGBITS, 0
        DATA
??DataTable11:
        DC32     FacMic

        SECTION `.text`:CODE:NOROOT(2)
        SECTION_TYPE SHT_PROGBITS, 0
        DATA
??DataTable11_1:
        DC32     buffer_switch

        SECTION `.text`:CODE:NOROOT(2)
        SECTION_TYPE SHT_PROGBITS, 0
        DATA
??DataTable11_2:
        DC32     Buffer3+0x708C

        SECTION `.text`:CODE:NOROOT(2)
        SECTION_TYPE SHT_PROGBITS, 0
        DATA
??DataTable11_3:
        DC32     Buffer3+0x6078

        SECTION `.text`:CODE:NOROOT(2)
        SECTION_TYPE SHT_PROGBITS, 0
        DATA
??DataTable11_4:
        DC32     Buffer3+0x303C

        SECTION `.text`:CODE:NOROOT(2)
        SECTION_TYPE SHT_PROGBITS, 0
        DATA
??DataTable11_5:
        DC32     Buffer3

        SECTION `.text`:CODE:NOROOT(2)
        SECTION_TYPE SHT_PROGBITS, 0
        DATA
??DataTable11_6:
        DC32     Buffer3+0x4050

        SECTION `.text`:CODE:NOROOT(2)
        SECTION_TYPE SHT_PROGBITS, 0
        DATA
??DataTable11_7:
        DC32     Buffer3+0x1014

        SECTION `.text`:CODE:NOROOT(2)
        SECTION_TYPE SHT_PROGBITS, 0
        DATA
??DataTable11_8:
        DC32     Buffer3+0x2028

        SECTION `.text`:CODE:NOROOT(2)
        SECTION_TYPE SHT_PROGBITS, 0
        DATA
??DataTable11_9:
        DC32     Buffer3+0x5064
// 1114 
// 1115 

        SECTION `.text`:CODE:NOROOT(1)
          CFI Block cfiBlock15 Using cfiCommon0
          CFI Function DFT_Init
        THUMB
// 1116 void DFT_Init(void)
// 1117 {
DFT_Init:
        PUSH     {R7,LR}
          CFI R14 Frame(CFA, -4)
          CFI CFA R13+8
// 1118 #if MAIN_CRSCORR
// 1119 		arm_rfft_init_q15(&RealFFT_Ins,(uint32_t)128,(uint32_t)0,(uint32_t)1);
// 1120 		arm_rfft_init_q15(&RealIFFT_Ins,(uint32_t)128,(uint32_t)1,(uint32_t)1);
// 1121 #endif  
// 1122 		/* Initialize the CFFT/CIFFT module */	
// 1123 		arm_rfft_init_f32(&S1,&SS1, 512,  0, 1); 
        MOVS     R0,#+1
        STR      R0,[SP, #+0]
        MOVS     R3,#+0
        MOV      R2,#+512
        LDR.W    R1,??DataTable16_53
        LDR.W    R0,??DataTable16_54
          CFI FunCall arm_rfft_init_f32
        BL       arm_rfft_init_f32
// 1124 		arm_rfft_init_f32(&S2,&SS2, 512,  0, 1); 
        MOVS     R0,#+1
        STR      R0,[SP, #+0]
        MOVS     R3,#+0
        MOV      R2,#+512
        LDR.N    R1,??DataTable16_55
        LDR.N    R0,??DataTable16_56
          CFI FunCall arm_rfft_init_f32
        BL       arm_rfft_init_f32
// 1125 		arm_rfft_init_f32(&S3,&SS3, 512,  0, 1); 
        MOVS     R0,#+1
        STR      R0,[SP, #+0]
        MOVS     R3,#+0
        MOV      R2,#+512
        LDR.N    R1,??DataTable16_57
        LDR.N    R0,??DataTable16_58
          CFI FunCall arm_rfft_init_f32
        BL       arm_rfft_init_f32
// 1126 		arm_rfft_init_f32(&S4,&SS4, 512,  0, 1);
        MOVS     R0,#+1
        STR      R0,[SP, #+0]
        MOVS     R3,#+0
        MOV      R2,#+512
        LDR.N    R1,??DataTable16_59
        LDR.N    R0,??DataTable16_60
          CFI FunCall arm_rfft_init_f32
        BL       arm_rfft_init_f32
// 1127 		arm_rfft_init_f32(&IS,&ISS, 512,  1, 1);
        MOVS     R0,#+1
        STR      R0,[SP, #+0]
        MOVS     R3,#+1
        MOV      R2,#+512
        LDR.N    R1,??DataTable16_61
        LDR.N    R0,??DataTable16_62
          CFI FunCall arm_rfft_init_f32
        BL       arm_rfft_init_f32
// 1128 
// 1129 		//arm_rfft_fast_init_f32(&S1, 512);
// 1130                 //arm_rfft_fast_init_f32(&S2, 512);
// 1131 		//arm_rfft_fast_init_f32(&S3, 512);
// 1132 		//arm_rfft_fast_init_f32(&S4, 512);
// 1133 		//arm_rfft_fast_init_f32(&IS, 512);
// 1134 }
        POP      {R0,PC}          ;; return
          CFI EndBlock cfiBlock15

        SECTION `.text`:CODE:NOROOT(2)
        SECTION_TYPE SHT_PROGBITS, 0
        DATA
??DataTable12:
        DC32     flgDlyUpd

        SECTION `.text`:CODE:NOROOT(2)
        SECTION_TYPE SHT_PROGBITS, 0
        DATA
??DataTable12_1:
        DC32     idxLatency78

        SECTION `.text`:CODE:NOROOT(2)
        SECTION_TYPE SHT_PROGBITS, 0
        DATA
??DataTable12_2:
        DC32     idxLatency25

        SECTION `.text`:CODE:NOROOT(2)
        SECTION_TYPE SHT_PROGBITS, 0
        DATA
??DataTable12_3:
        DC32     Buffer1+0x708C

        SECTION `.text`:CODE:NOROOT(2)
        SECTION_TYPE SHT_PROGBITS, 0
        DATA
??DataTable12_4:
        DC32     Buffer1+0x6078

        SECTION `.text`:CODE:NOROOT(2)
        SECTION_TYPE SHT_PROGBITS, 0
        DATA
??DataTable12_5:
        DC32     Buffer1+0x303C

        SECTION `.text`:CODE:NOROOT(2)
        SECTION_TYPE SHT_PROGBITS, 0
        DATA
??DataTable12_6:
        DC32     Buffer1

        SECTION `.text`:CODE:NOROOT(2)
        SECTION_TYPE SHT_PROGBITS, 0
        DATA
??DataTable12_7:
        DC32     Buffer1+0x4050

        SECTION `.text`:CODE:NOROOT(2)
        SECTION_TYPE SHT_PROGBITS, 0
        DATA
??DataTable12_8:
        DC32     Buffer1+0x1014

        SECTION `.text`:CODE:NOROOT(2)
        SECTION_TYPE SHT_PROGBITS, 0
        DATA
??DataTable12_9:
        DC32     Buffer1+0x2028

        SECTION `.text`:CODE:NOROOT(2)
        SECTION_TYPE SHT_PROGBITS, 0
        DATA
??DataTable12_10:
        DC32     Buffer1+0x5064

        SECTION `.text`:CODE:NOROOT(2)
        SECTION_TYPE SHT_PROGBITS, 0
        DATA
??DataTable12_11:
        DC32     Buffer2+0x708C

        SECTION `.text`:CODE:NOROOT(2)
        SECTION_TYPE SHT_PROGBITS, 0
        DATA
??DataTable12_12:
        DC32     Buffer2+0x6078

        SECTION `.text`:CODE:NOROOT(2)
        SECTION_TYPE SHT_PROGBITS, 0
        DATA
??DataTable12_13:
        DC32     Buffer2+0x303C

        SECTION `.text`:CODE:NOROOT(2)
        SECTION_TYPE SHT_PROGBITS, 0
        DATA
??DataTable12_14:
        DC32     Buffer2+0x4050

        SECTION `.text`:CODE:NOROOT(2)
        SECTION_TYPE SHT_PROGBITS, 0
        DATA
??DataTable12_15:
        DC32     Buffer2+0x1014

        SECTION `.text`:CODE:NOROOT(2)
        SECTION_TYPE SHT_PROGBITS, 0
        DATA
??DataTable12_16:
        DC32     Buffer2+0x2028

        SECTION `.text`:CODE:NOROOT(2)
        SECTION_TYPE SHT_PROGBITS, 0
        DATA
??DataTable12_17:
        DC32     Buffer2+0x5064

        SECTION `.text`:CODE:NOROOT(2)
        SECTION_TYPE SHT_PROGBITS, 0
        DATA
??DataTable12_18:
        DC32     WaveRec_idxSens1

        SECTION `.text`:CODE:NOROOT(2)
        SECTION_TYPE SHT_PROGBITS, 0
        DATA
??DataTable12_19:
        DC32     WaveRec_idxSens2

        SECTION `.text`:CODE:NOROOT(2)
        SECTION_TYPE SHT_PROGBITS, 0
        DATA
??DataTable12_20:
        DC32     idxSPI5DataBuf3
// 1135 
// 1136 

        SECTION `.text`:CODE:NOROOT(1)
          CFI Block cfiBlock16 Using cfiCommon0
          CFI Function SumDelay
          CFI NoCalls
        THUMB
// 1137 void SumDelay(Mic_Array_Data *BufferIn)
// 1138 {
SumDelay:
        PUSH     {R4,R5}
          CFI R5 Frame(CFA, -4)
          CFI R4 Frame(CFA, -8)
          CFI CFA R13+8
// 1139            //if (idxLatency12>idxLatency13)
// 1140            // {
// 1141            //     if (idxLatency13 > idxLatency14)
// 1142            //     {
// 1143            //         /* MIC2 --> MIC3 --> MIC4 */
// 1144            //     }
// 1145            //             else if (idxLatency14 > idxLatency12)
// 1146            //             {
// 1147            //        /* MIC4-->MIC2-->MIC3  */
// 1148            //            }
// 1149            //             else
// 1150            //             {
// 1151            //       /* MIC2-->MIC4-->MIC3  */
// 1152            //             }
// 1153            // }
// 1154            //else // idxLatency13>idxLatency12
// 1155            //     {
// 1156            //    if (idxLatency12 > idxLatency14)
// 1157            //    {
// 1158            //        //MIC3 --> MIC2 --> MIC4 
// 1159            //    }
// 1160            //        else if (idxLatency14 > idxLatency13)
// 1161            //        {
// 1162            //        //MIC4 --> MIC3 --> MIC2
// 1163            //        }
// 1164            //        else
// 1165            //        {
// 1166            //        //MIC3 --> MIC4 --> MIC2
// 1167 	   //	   }
// 1168 	   //}
// 1169 
// 1170 	
// 1171 	for(uint16_t i=0;i<AUDIO_OUT_BUFFER_SIZE;i++)
        MOVS     R1,#+0
??SumDelay_0:
        UXTH     R1,R1            ;; ZeroExt  R1,R1,#+16,#+16
        CMP      R1,#+1024
        BGE.N    ??SumDelay_1
// 1172 	{
// 1173 
// 1174 		 if (i%2==0)
        UXTH     R1,R1            ;; ZeroExt  R1,R1,#+16,#+16
        MOVS     R2,#+2
        SDIV     R3,R1,R2
        MLS      R3,R3,R2,R1
        CMP      R3,#+0
        BNE.N    ??SumDelay_2
// 1175 		 {
// 1176                     bufferSum[i] = (uint16_t)(BufferIn->bufMIC1[i]*FacMic.facMIC1 + 
// 1177                     BufferIn->bufMIC2[(((i-idxLatency12)>0)?(i-idxLatency12):0)]*FacMic.facMIC2 + 
// 1178                     BufferIn->bufMIC3[(((i-idxLatency13)>0)?(i-idxLatency13):0)]*FacMic.facMIC3 + 
// 1179                     BufferIn->bufMIC4[(((i-idxLatency14)>0)?(i-idxLatency14):0)]*FacMic.facMIC4); 		
        UXTH     R1,R1            ;; ZeroExt  R1,R1,#+16,#+16
        LDR.N    R2,??DataTable16_63
        LDRSH    R2,[R2, #+0]
        SUBS     R2,R1,R2
        CMP      R2,#+1
        BLT.N    ??SumDelay_3
        UXTH     R1,R1            ;; ZeroExt  R1,R1,#+16,#+16
        LDR.N    R2,??DataTable16_63
        LDRSH    R2,[R2, #+0]
        SUBS     R2,R1,R2
        B.N      ??SumDelay_4
??SumDelay_3:
        MOVS     R2,#+0
??SumDelay_4:
        UXTH     R1,R1            ;; ZeroExt  R1,R1,#+16,#+16
        LDR.N    R3,??DataTable16_64
        LDRSH    R3,[R3, #+0]
        SUBS     R3,R1,R3
        CMP      R3,#+1
        BLT.N    ??SumDelay_5
        UXTH     R1,R1            ;; ZeroExt  R1,R1,#+16,#+16
        LDR.N    R3,??DataTable16_64
        LDRSH    R3,[R3, #+0]
        SUBS     R3,R1,R3
        B.N      ??SumDelay_6
??SumDelay_5:
        MOVS     R3,#+0
??SumDelay_6:
        UXTH     R1,R1            ;; ZeroExt  R1,R1,#+16,#+16
        LDR.N    R4,??DataTable15_1
        LDRSH    R4,[R4, #+0]
        SUBS     R4,R1,R4
        CMP      R4,#+1
        BLT.N    ??SumDelay_7
        UXTH     R1,R1            ;; ZeroExt  R1,R1,#+16,#+16
        LDR.N    R4,??DataTable15_1
        LDRSH    R4,[R4, #+0]
        SUBS     R4,R1,R4
        B.N      ??SumDelay_8
??SumDelay_7:
        MOVS     R4,#+0
??SumDelay_8:
        UXTH     R1,R1            ;; ZeroExt  R1,R1,#+16,#+16
        LDRSH    R5,[R0, R1, LSL #+1]
        VMOV     S0,R5
        VCVT.F32.S32 S0,S0
        LDR.N    R5,??DataTable16_65
        VLDR     S1,[R5, #0]
        VMUL.F32 S0,S0,S1
        ADDS     R2,R0,R2, LSL #+1
        MOVW     R5,#+4116
        LDRSH    R2,[R5, R2]
        VMOV     S1,R2
        VCVT.F32.S32 S1,S1
        LDR.N    R2,??DataTable16_65
        VLDR     S2,[R2, #+4]
        VMLA.F32 S0,S1,S2
        ADDS     R2,R0,R3, LSL #+1
        MOVW     R3,#+8232
        LDRSH    R2,[R3, R2]
        VMOV     S1,R2
        VCVT.F32.S32 S1,S1
        LDR.N    R2,??DataTable16_65
        VLDR     S2,[R2, #+8]
        VMLA.F32 S0,S1,S2
        ADDS     R2,R0,R4, LSL #+1
        MOVW     R3,#+12348
        LDRSH    R2,[R3, R2]
        VMOV     S1,R2
        VCVT.F32.S32 S1,S1
        LDR.N    R2,??DataTable16_65
        VLDR     S2,[R2, #+12]
        VMLA.F32 S0,S1,S2
        VCVT.S32.F32 S0,S0
        VMOV     R2,S0
        LDR.N    R3,??DataTable16_66
        UXTH     R1,R1            ;; ZeroExt  R1,R1,#+16,#+16
        STRH     R2,[R3, R1, LSL #+1]
        B.N      ??SumDelay_9
// 1180 		 }
// 1181 		 else
// 1182 		 {
// 1183                      bufferSum[i] = (uint16_t)(BufferIn->bufMIC3[i]);
??SumDelay_2:
        UXTH     R1,R1            ;; ZeroExt  R1,R1,#+16,#+16
        ADDS     R2,R0,R1, LSL #+1
        MOVW     R3,#+8232
        LDRH     R2,[R3, R2]
        LDR.N    R3,??DataTable16_66
        UXTH     R1,R1            ;; ZeroExt  R1,R1,#+16,#+16
        STRH     R2,[R3, R1, LSL #+1]
// 1184 		 }
// 1185 	}
??SumDelay_9:
        ADDS     R1,R1,#+1
        B.N      ??SumDelay_0
// 1186 }
??SumDelay_1:
        POP      {R4,R5}
          CFI R4 SameValue
          CFI R5 SameValue
          CFI CFA R13+0
        BX       LR               ;; return
          CFI EndBlock cfiBlock16

        SECTION `.text`:CODE:NOROOT(2)
        SECTION_TYPE SHT_PROGBITS, 0
        DATA
??DataTable13:
        DC32     idxLatency63

        SECTION `.text`:CODE:NOROOT(2)
        SECTION_TYPE SHT_PROGBITS, 0
        DATA
??DataTable13_1:
        DC32     XferCplt

        SECTION `.text`:CODE:NOROOT(2)
        SECTION_TYPE SHT_PROGBITS, 0
        DATA
??DataTable13_2:
        DC32     WaveRec_idxSens3

        SECTION `.text`:CODE:NOROOT(2)
        SECTION_TYPE SHT_PROGBITS, 0
        DATA
??DataTable13_3:
        DC32     WaveRec_idxSens4

        SECTION `.text`:CODE:NOROOT(2)
        SECTION_TYPE SHT_PROGBITS, 0
        DATA
??DataTable13_4:
        DC32     I2S2_idxTmp

        SECTION `.text`:CODE:NOROOT(2)
        SECTION_TYPE SHT_PROGBITS, 0
        DATA
??DataTable13_5:
        DC32     WaveRec_idxSens5

        SECTION `.text`:CODE:NOROOT(2)
        SECTION_TYPE SHT_PROGBITS, 0
        DATA
??DataTable13_6:
        DC32     WaveRec_idxSens6
// 1187 
// 1188 

        SECTION `.text`:CODE:NOROOT(1)
          CFI Block cfiBlock17 Using cfiCommon0
          CFI Function ButtonInit
        THUMB
// 1189 void ButtonInit(void)
// 1190 {
ButtonInit:
        PUSH     {R7,LR}
          CFI R14 Frame(CFA, -4)
          CFI CFA R13+8
// 1191     /* PI8: SW2 */
// 1192 	/* PI9: SW1 */
// 1193 	 /* ----------------------*/
// 1194 	 __GPIOB_CLK_ENABLE();
        LDR.N    R0,??DataTable16_4  ;; 0x40023830
        LDR      R0,[R0, #+0]
        ORRS     R0,R0,#0x2
        LDR.N    R1,??DataTable16_4  ;; 0x40023830
        STR      R0,[R1, #+0]
        LDR.N    R0,??DataTable16_4  ;; 0x40023830
        LDR      R0,[R0, #+0]
        ANDS     R0,R0,#0x2
        STR      R0,[SP, #+0]
        LDR      R0,[SP, #+0]
// 1195 	GPIO_INS.Pin = GPIO_PIN_8|GPIO_PIN_9;
        MOV      R0,#+768
        LDR.N    R1,??DataTable16_5
        STR      R0,[R1, #+0]
// 1196 	GPIO_INS.Mode =GPIO_MODE_IT_RISING;
        LDR.N    R0,??DataTable16_6  ;; 0x10110000
        LDR.N    R1,??DataTable16_5
        STR      R0,[R1, #+4]
// 1197 	GPIO_INS.Pull =GPIO_NOPULL;
        MOVS     R0,#+0
        LDR.N    R1,??DataTable16_5
        STR      R0,[R1, #+8]
// 1198 	GPIO_INS.Speed =GPIO_SPEED_HIGH;
        MOVS     R0,#+3
        LDR.N    R1,??DataTable16_5
        STR      R0,[R1, #+12]
// 1199 	HAL_GPIO_Init(GPIOI,&GPIO_INS);
        LDR.N    R1,??DataTable16_5
        LDR.N    R0,??DataTable16_67  ;; 0x40022000
          CFI FunCall HAL_GPIO_Init
        BL       HAL_GPIO_Init
// 1200 	
// 1201 	/* Enable and set Button EXTI Interrupt to the lowest priority */
// 1202 	HAL_NVIC_SetPriority((IRQn_Type)EXTI9_5_IRQn, 0x0F, 0x00);
        MOVS     R2,#+0
        MOVS     R1,#+15
        MOVS     R0,#+23
          CFI FunCall HAL_NVIC_SetPriority
        BL       HAL_NVIC_SetPriority
// 1203 	HAL_NVIC_EnableIRQ((IRQn_Type)EXTI9_5_IRQn);
        MOVS     R0,#+23
          CFI FunCall HAL_NVIC_EnableIRQ
        BL       HAL_NVIC_EnableIRQ
// 1204 	/*-----------------------*/
// 1205 
// 1206 }
        POP      {R0,PC}          ;; return
          CFI EndBlock cfiBlock17

        SECTION `.text`:CODE:NOROOT(2)
        SECTION_TYPE SHT_PROGBITS, 0
        DATA
??DataTable14:
        DC32     Command_index
// 1207 
// 1208 
// 1209 /* I2C2 init function */

        SECTION `.text`:CODE:NOROOT(1)
          CFI Block cfiBlock18 Using cfiCommon0
          CFI Function MX_I2C2_Init
        THUMB
// 1210 void MX_I2C2_Init(void)
// 1211 {
MX_I2C2_Init:
        PUSH     {R7,LR}
          CFI R14 Frame(CFA, -4)
          CFI CFA R13+8
// 1212    __HAL_I2C_DISABLE(&hi2c2);
        LDR.N    R0,??DataTable16_68
        LDR      R0,[R0, #+0]
        LDR      R0,[R0, #+0]
        LSRS     R0,R0,#+1
        LSLS     R0,R0,#+1
        LDR.N    R1,??DataTable16_68
        LDR      R1,[R1, #+0]
        STR      R0,[R1, #+0]
// 1213   hi2c2.Instance = I2C2;
        LDR.N    R0,??DataTable16_46  ;; 0x40005800
        LDR.N    R1,??DataTable16_68
        STR      R0,[R1, #+0]
// 1214   hi2c2.Init.Timing =0x00A0689A ;//I2C_TIMING  0x00303D5D 0x00A0689A
        LDR.N    R0,??DataTable16_69  ;; 0xa0689a
        LDR.N    R1,??DataTable16_68
        STR      R0,[R1, #+4]
// 1215   hi2c2.Init.OwnAddress1 = 0;
        MOVS     R0,#+0
        LDR.N    R1,??DataTable16_68
        STR      R0,[R1, #+8]
// 1216   hi2c2.Init.AddressingMode = I2C_ADDRESSINGMODE_7BIT;
        MOVS     R0,#+1
        LDR.N    R1,??DataTable16_68
        STR      R0,[R1, #+12]
// 1217   hi2c2.Init.DualAddressMode = I2C_DUALADDRESS_DISABLE;
        MOVS     R0,#+0
        LDR.N    R1,??DataTable16_68
        STR      R0,[R1, #+16]
// 1218   hi2c2.Init.OwnAddress2 = 0;
        MOVS     R0,#+0
        LDR.N    R1,??DataTable16_68
        STR      R0,[R1, #+20]
// 1219   hi2c2.Init.OwnAddress2Masks = I2C_OA2_NOMASK;
        MOVS     R0,#+0
        LDR.N    R1,??DataTable16_68
        STR      R0,[R1, #+24]
// 1220   hi2c2.Init.GeneralCallMode = I2C_GENERALCALL_DISABLE;
        MOVS     R0,#+0
        LDR.N    R1,??DataTable16_68
        STR      R0,[R1, #+28]
// 1221   hi2c2.Init.NoStretchMode = I2C_NOSTRETCH_DISABLE;
        MOVS     R0,#+0
        LDR.N    R1,??DataTable16_68
        STR      R0,[R1, #+32]
// 1222   HAL_I2C_Init(&hi2c2);
        LDR.N    R0,??DataTable16_68
          CFI FunCall HAL_I2C_Init
        BL       HAL_I2C_Init
// 1223 
// 1224     /**Configure Analogue filter 
// 1225     */
// 1226   //HAL_I2CEx_AnalogFilter_Config(&hi2c2, I2C_ANALOGFILTER_ENABLE);
// 1227 
// 1228 }
        POP      {R0,PC}          ;; return
          CFI EndBlock cfiBlock18

        SECTION `.text`:CODE:NOROOT(2)
        SECTION_TYPE SHT_PROGBITS, 0
        DATA
??DataTable15:
        DC32     0xe000ed14

        SECTION `.text`:CODE:NOROOT(2)
        SECTION_TYPE SHT_PROGBITS, 0
        DATA
??DataTable15_1:
        DC32     idxLatency14

        SECTION `.text`:CODE:NOROOT(2)
        SECTION_TYPE SHT_PROGBITS, 0
        DATA
??DataTable15_2:
        DC32     Buffer2

        SECTION `.text`:CODE:NOROOT(1)
          CFI Block cfiBlock19 Using cfiCommon0
          CFI Function HAL_I2S_TxCpltCallback
        THUMB
HAL_I2S_TxCpltCallback:
        PUSH     {R4,LR}
          CFI R14 Frame(CFA, -4)
          CFI R4 Frame(CFA, -8)
          CFI CFA R13+8
        MOVS     R4,R0
        MOVS     R0,#+1
        LDR.N    R1,??DataTable16_70
        STRB     R0,[R1, #+0]
          CFI FunCall Audio_Play_Out
        BL       Audio_Play_Out
        LDR.N    R0,??DataTable16_10
        LDRH     R0,[R0, #+0]
        CMP      R0,#+100
        BGE.N    ??HAL_I2S_TxCpltCallback_0
        LDR.N    R0,??DataTable16_10
        LDRH     R0,[R0, #+0]
        ADDS     R0,R0,#+1
        LDR.N    R1,??DataTable16_10
        STRH     R0,[R1, #+0]
??HAL_I2S_TxCpltCallback_0:
        POP      {R4,PC}          ;; return
          CFI EndBlock cfiBlock19

        SECTION `.text`:CODE:NOROOT(2)
        SECTION_TYPE SHT_PROGBITS, 0
        DATA
??DataTable16:
        DC32     hUSBDDevice

        SECTION `.text`:CODE:NOROOT(2)
        SECTION_TYPE SHT_PROGBITS, 0
        DATA
??DataTable16_1:
        DC32     AUDIO_Desc

        SECTION `.text`:CODE:NOROOT(2)
        SECTION_TYPE SHT_PROGBITS, 0
        DATA
??DataTable16_2:
        DC32     USBD_AUDIO

        SECTION `.text`:CODE:NOROOT(2)
        SECTION_TYPE SHT_PROGBITS, 0
        DATA
??DataTable16_3:
        DC32     USBD_AUDIO_fops

        SECTION `.text`:CODE:NOROOT(2)
        SECTION_TYPE SHT_PROGBITS, 0
        DATA
??DataTable16_4:
        DC32     0x40023830

        SECTION `.text`:CODE:NOROOT(2)
        SECTION_TYPE SHT_PROGBITS, 0
        DATA
??DataTable16_5:
        DC32     GPIO_INS

        SECTION `.text`:CODE:NOROOT(2)
        SECTION_TYPE SHT_PROGBITS, 0
        DATA
??DataTable16_6:
        DC32     0x10110000

        SECTION `.text`:CODE:NOROOT(2)
        SECTION_TYPE SHT_PROGBITS, 0
        DATA
??DataTable16_7:
        DC32     0x40020000

        SECTION `.text`:CODE:NOROOT(2)
        SECTION_TYPE SHT_PROGBITS, 0
        DATA
??DataTable16_8:
        DC32     0x40021000

        SECTION `.text`:CODE:NOROOT(2)
        SECTION_TYPE SHT_PROGBITS, 0
        DATA
??DataTable16_9:
        DC32     stFrstFrmStore

        SECTION `.text`:CODE:NOROOT(2)
        SECTION_TYPE SHT_PROGBITS, 0
        DATA
??DataTable16_10:
        DC32     cntStrt

        SECTION `.text`:CODE:NOROOT(2)
        SECTION_TYPE SHT_PROGBITS, 0
        DATA
??DataTable16_11:
        DC32     WaveRecord_flgIni

        SECTION `.text`:CODE:NOROOT(2)
        SECTION_TYPE SHT_PROGBITS, 0
        DATA
??DataTable16_12:
        DC32     I2S1_stNipple

        SECTION `.text`:CODE:NOROOT(2)
        SECTION_TYPE SHT_PROGBITS, 0
        DATA
??DataTable16_13:
        DC32     SPI4_stPosShft

        SECTION `.text`:CODE:NOROOT(2)
        SECTION_TYPE SHT_PROGBITS, 0
        DATA
??DataTable16_14:
        DC32     flg10ms

        SECTION `.text`:CODE:NOROOT(2)
        SECTION_TYPE SHT_PROGBITS, 0
        DATA
??DataTable16_15:
        DC32     cntTime200

        SECTION `.text`:CODE:NOROOT(2)
        SECTION_TYPE SHT_PROGBITS, 0
        DATA
??DataTable16_16:
        DC32     EnergySound

        SECTION `.text`:CODE:NOROOT(2)
        SECTION_TYPE SHT_PROGBITS, 0
        DATA
??DataTable16_17:
        DC32     ?_0

        SECTION `.text`:CODE:NOROOT(2)
        SECTION_TYPE SHT_PROGBITS, 0
        DATA
??DataTable16_18:
        DC32     pUARTBuf

        SECTION `.text`:CODE:NOROOT(2)
        SECTION_TYPE SHT_PROGBITS, 0
        DATA
??DataTable16_19:
        DC32     ??flagNotMin

        SECTION `.text`:CODE:NOROOT(2)
        SECTION_TYPE SHT_PROGBITS, 0
        DATA
??DataTable16_20:
        DC32     ?_1

        SECTION `.text`:CODE:NOROOT(2)
        SECTION_TYPE SHT_PROGBITS, 0
        DATA
??DataTable16_21:
        DC32     pUARTBuf+0xF

        SECTION `.text`:CODE:NOROOT(2)
        SECTION_TYPE SHT_PROGBITS, 0
        DATA
??DataTable16_22:
        DC32     ?_2

        SECTION `.text`:CODE:NOROOT(2)
        SECTION_TYPE SHT_PROGBITS, 0
        DATA
??DataTable16_23:
        DC32     ?_3

        SECTION `.text`:CODE:NOROOT(2)
        SECTION_TYPE SHT_PROGBITS, 0
        DATA
??DataTable16_24:
        DC32     ?_4

        SECTION `.text`:CODE:NOROOT(2)
        SECTION_TYPE SHT_PROGBITS, 0
        DATA
??DataTable16_25:
        DC32     ?_5

        SECTION `.text`:CODE:NOROOT(2)
        SECTION_TYPE SHT_PROGBITS, 0
        DATA
??DataTable16_26:
        DC32     ?_6

        SECTION `.text`:CODE:NOROOT(2)
        SECTION_TYPE SHT_PROGBITS, 0
        DATA
??DataTable16_27:
        DC32     ?_7

        SECTION `.text`:CODE:NOROOT(2)
        SECTION_TYPE SHT_PROGBITS, 0
        DATA
??DataTable16_28:
        DC32     ?_8

        SECTION `.text`:CODE:NOROOT(2)
        SECTION_TYPE SHT_PROGBITS, 0
        DATA
??DataTable16_29:
        DC32     ?_9

        SECTION `.text`:CODE:NOROOT(2)
        SECTION_TYPE SHT_PROGBITS, 0
        DATA
??DataTable16_30:
        DC32     flgS2

        SECTION `.text`:CODE:NOROOT(2)
        SECTION_TYPE SHT_PROGBITS, 0
        DATA
??DataTable16_31:
        DC32     flgS2Flt

        SECTION `.text`:CODE:NOROOT(2)
        SECTION_TYPE SHT_PROGBITS, 0
        DATA
??DataTable16_32:
        DC32     flgS2Ins

        SECTION `.text`:CODE:NOROOT(2)
        SECTION_TYPE SHT_PROGBITS, 0
        DATA
??DataTable16_33:
        DC32     flgS3

        SECTION `.text`:CODE:NOROOT(2)
        SECTION_TYPE SHT_PROGBITS, 0
        DATA
??DataTable16_34:
        DC32     flgS3Flt

        SECTION `.text`:CODE:NOROOT(2)
        SECTION_TYPE SHT_PROGBITS, 0
        DATA
??DataTable16_35:
        DC32     flgS3Ins

        SECTION `.text`:CODE:NOROOT(2)
        SECTION_TYPE SHT_PROGBITS, 0
        DATA
??DataTable16_36:
        DC32     flgS4

        SECTION `.text`:CODE:NOROOT(2)
        SECTION_TYPE SHT_PROGBITS, 0
        DATA
??DataTable16_37:
        DC32     flgS4Flt

        SECTION `.text`:CODE:NOROOT(2)
        SECTION_TYPE SHT_PROGBITS, 0
        DATA
??DataTable16_38:
        DC32     flgS4Ins

        SECTION `.text`:CODE:NOROOT(2)
        SECTION_TYPE SHT_PROGBITS, 0
        DATA
??DataTable16_39:
        DC32     stDir

        SECTION `.text`:CODE:NOROOT(2)
        SECTION_TYPE SHT_PROGBITS, 0
        DATA
??DataTable16_40:
        DC32     huart3

        SECTION `.text`:CODE:NOROOT(2)
        SECTION_TYPE SHT_PROGBITS, 0
        DATA
??DataTable16_41:
        DC32     ??ticks

        SECTION `.text`:CODE:NOROOT(2)
        SECTION_TYPE SHT_PROGBITS, 0
        DATA
??DataTable16_42:
        DC32     0x100001

        SECTION `.text`:CODE:NOROOT(2)
        SECTION_TYPE SHT_PROGBITS, 0
        DATA
??DataTable16_43:
        DC32     0x40005400

        SECTION `.text`:CODE:NOROOT(2)
        SECTION_TYPE SHT_PROGBITS, 0
        DATA
??DataTable16_44:
        DC32     0x40020400

        SECTION `.text`:CODE:NOROOT(2)
        SECTION_TYPE SHT_PROGBITS, 0
        DATA
??DataTable16_45:
        DC32     0x40023840

        SECTION `.text`:CODE:NOROOT(2)
        SECTION_TYPE SHT_PROGBITS, 0
        DATA
??DataTable16_46:
        DC32     0x40005800

        SECTION `.text`:CODE:NOROOT(2)
        SECTION_TYPE SHT_PROGBITS, 0
        DATA
??DataTable16_47:
        DC32     0x40004800

        SECTION `.text`:CODE:NOROOT(2)
        SECTION_TYPE SHT_PROGBITS, 0
        DATA
??DataTable16_48:
        DC32     0x40020800

        SECTION `.text`:CODE:NOROOT(2)
        SECTION_TYPE SHT_PROGBITS, 0
        DATA
??DataTable16_49:
        DC32     0x40013c14

        SECTION `.text`:CODE:NOROOT(2)
        SECTION_TYPE SHT_PROGBITS, 0
        DATA
??DataTable16_50:
        DC32     cntRisingEXTI

        SECTION `.text`:CODE:NOROOT(2)
        SECTION_TYPE SHT_PROGBITS, 0
        DATA
??DataTable16_51:
        DC32     btnSW2

        SECTION `.text`:CODE:NOROOT(2)
        SECTION_TYPE SHT_PROGBITS, 0
        DATA
??DataTable16_52:
        DC32     btnSW1

        SECTION `.text`:CODE:NOROOT(2)
        SECTION_TYPE SHT_PROGBITS, 0
        DATA
??DataTable16_53:
        DC32     SS1

        SECTION `.text`:CODE:NOROOT(2)
        SECTION_TYPE SHT_PROGBITS, 0
        DATA
??DataTable16_54:
        DC32     `S1`

        SECTION `.text`:CODE:NOROOT(2)
        SECTION_TYPE SHT_PROGBITS, 0
        DATA
??DataTable16_55:
        DC32     SS2

        SECTION `.text`:CODE:NOROOT(2)
        SECTION_TYPE SHT_PROGBITS, 0
        DATA
??DataTable16_56:
        DC32     `S2`

        SECTION `.text`:CODE:NOROOT(2)
        SECTION_TYPE SHT_PROGBITS, 0
        DATA
??DataTable16_57:
        DC32     SS3

        SECTION `.text`:CODE:NOROOT(2)
        SECTION_TYPE SHT_PROGBITS, 0
        DATA
??DataTable16_58:
        DC32     `S3`

        SECTION `.text`:CODE:NOROOT(2)
        SECTION_TYPE SHT_PROGBITS, 0
        DATA
??DataTable16_59:
        DC32     SS4

        SECTION `.text`:CODE:NOROOT(2)
        SECTION_TYPE SHT_PROGBITS, 0
        DATA
??DataTable16_60:
        DC32     `S4`

        SECTION `.text`:CODE:NOROOT(2)
        SECTION_TYPE SHT_PROGBITS, 0
        DATA
??DataTable16_61:
        DC32     ISS

        SECTION `.text`:CODE:NOROOT(2)
        SECTION_TYPE SHT_PROGBITS, 0
        DATA
??DataTable16_62:
        DC32     IS

        SECTION `.text`:CODE:NOROOT(2)
        SECTION_TYPE SHT_PROGBITS, 0
        DATA
??DataTable16_63:
        DC32     idxLatency12

        SECTION `.text`:CODE:NOROOT(2)
        SECTION_TYPE SHT_PROGBITS, 0
        DATA
??DataTable16_64:
        DC32     idxLatency13

        SECTION `.text`:CODE:NOROOT(2)
        SECTION_TYPE SHT_PROGBITS, 0
        DATA
??DataTable16_65:
        DC32     FacMic

        SECTION `.text`:CODE:NOROOT(2)
        SECTION_TYPE SHT_PROGBITS, 0
        DATA
??DataTable16_66:
        DC32     bufferSum

        SECTION `.text`:CODE:NOROOT(2)
        SECTION_TYPE SHT_PROGBITS, 0
        DATA
??DataTable16_67:
        DC32     0x40022000

        SECTION `.text`:CODE:NOROOT(2)
        SECTION_TYPE SHT_PROGBITS, 0
        DATA
??DataTable16_68:
        DC32     hi2c2

        SECTION `.text`:CODE:NOROOT(2)
        SECTION_TYPE SHT_PROGBITS, 0
        DATA
??DataTable16_69:
        DC32     0xa0689a

        SECTION `.text`:CODE:NOROOT(2)
        SECTION_TYPE SHT_PROGBITS, 0
        DATA
??DataTable16_70:
        DC32     XferCplt

        SECTION `.text`:CODE:REORDER:NOROOT(1)
        SECTION_GROUP ADD_U8
          CFI Block cfiBlock20 Using cfiCommon0
          CFI Function ADD_U8
          CFI NoCalls
        THUMB
// __interwork __softfp uint8_t ADD_U8(uint8_t, uint8_t)
ADD_U8:
        MOVS     R2,R0
        UXTB     R1,R1            ;; ZeroExt  R1,R1,#+24,#+24
        RSBS     R0,R1,#+255
        UXTB     R2,R2            ;; ZeroExt  R2,R2,#+24,#+24
        CMP      R0,R2
        BGE.N    ??ADD_U8_0
        MOVS     R0,#+255
        B.N      ??ADD_U8_1
??ADD_U8_0:
        ADDS     R0,R1,R2
        UXTB     R0,R0            ;; ZeroExt  R0,R0,#+24,#+24
??ADD_U8_1:
        BX       LR               ;; return
          CFI EndBlock cfiBlock20

        SECTION `.text`:CODE:REORDER:NOROOT(1)
        SECTION_GROUP SrvB_Debound
          CFI Block cfiBlock21 Using cfiCommon0
          CFI Function SrvB_Debound
        THUMB
// __interwork __softfp uint8_t SrvB_Debound(uint8_t *, uint8_t *, uint8_t, uint16_t)
SrvB_Debound:
        PUSH     {R3-R7,LR}
          CFI R14 Frame(CFA, -4)
          CFI R7 Frame(CFA, -8)
          CFI R6 Frame(CFA, -12)
          CFI R5 Frame(CFA, -16)
          CFI R4 Frame(CFA, -20)
          CFI CFA R13+24
        MOVS     R4,R0
        MOVS     R5,R1
        MOVS     R6,R2
        MOVS     R7,R3
        LDRB     R0,[R5, #+0]
        UXTB     R6,R6            ;; ZeroExt  R6,R6,#+24,#+24
        CMP      R6,R0
        BEQ.N    ??SrvB_Debound_0
        MOVS     R1,#+1
        LDRB     R0,[R4, #+0]
          CFI FunCall ADD_U8
        BL       ADD_U8
        STRB     R0,[R4, #+0]
        B.N      ??SrvB_Debound_1
??SrvB_Debound_0:
        MOVS     R0,#+0
        STRB     R0,[R4, #+0]
??SrvB_Debound_1:
        LDRB     R0,[R4, #+0]
        UXTH     R7,R7            ;; ZeroExt  R7,R7,#+16,#+16
        UXTH     R0,R0            ;; ZeroExt  R0,R0,#+16,#+16
        CMP      R7,R0
        BCS.N    ??SrvB_Debound_2
        STRB     R6,[R5, #+0]
??SrvB_Debound_2:
        LDRB     R0,[R5, #+0]
        POP      {R1,R4-R7,PC}    ;; return
          CFI EndBlock cfiBlock21

        SECTION `.iar_vfe_header`:DATA:NOALLOC:NOROOT(2)
        SECTION_TYPE SHT_PROGBITS, 0
        DATA
        DC32 0

        SECTION __DLIB_PERTHREAD:DATA:REORDER:NOROOT(0)
        SECTION_TYPE SHT_PROGBITS, 0

        SECTION __DLIB_PERTHREAD_init:DATA:REORDER:NOROOT(0)
        SECTION_TYPE SHT_PROGBITS, 0

        SECTION `.rodata`:CONST:REORDER:NOROOT(2)
        DATA
?_0:
        DC8 "%d:%d:%d:%d "
        DC8 0, 0, 0

        SECTION `.rodata`:CONST:REORDER:NOROOT(2)
        DATA
?_1:
        DC8 "Close Mic 2\015\012"
        DC8 0, 0

        SECTION `.rodata`:CONST:REORDER:NOROOT(2)
        DATA
?_2:
        DC8 "Clsoe Mic 5\015\012"
        DC8 0, 0

        SECTION `.rodata`:CONST:REORDER:NOROOT(2)
        DATA
?_3:
        DC8 "Clsoe Mic 4\015\012"
        DC8 0, 0

        SECTION `.rodata`:CONST:REORDER:NOROOT(2)
        DATA
?_4:
        DC8 "Clsoe Mic 1\015\012"
        DC8 0, 0

        SECTION `.rodata`:CONST:REORDER:NOROOT(2)
        DATA
?_5:
        DC8 "Clsoe Mic 3\015\012"
        DC8 0, 0

        SECTION `.rodata`:CONST:REORDER:NOROOT(2)
        DATA
?_6:
        DC8 "Clsoe Mic 6\015\012"
        DC8 0, 0

        SECTION `.rodata`:CONST:REORDER:NOROOT(2)
        DATA
?_7:
        DC8 "Clsoe Mic 7\015\012"
        DC8 0, 0

        SECTION `.rodata`:CONST:REORDER:NOROOT(2)
        DATA
?_8:
        DC8 "Clsoe Mic 8\015\012"
        DC8 0, 0

        SECTION `.rodata`:CONST:REORDER:NOROOT(2)
        DATA
?_9:
        DC8 "----------- \015\012"
        DC8 0

        END
// 1229 
// 1230  void HAL_I2S_TxCpltCallback(I2S_HandleTypeDef *hi2s)
// 1231 {
// 1232 	 //sop1hc if(AudioState == AUDIO_STATE_PLAY)
// 1233 	 //if (BufferCtlPlayOut.state == BUFFER_OFFSET_HALF)
// 1234 	 {
// 1235 	   //BufferCtlPlayOut.state = BUFFER_OFFSET_FULL;
// 1236 	   XferCplt=1;
// 1237 	   Audio_Play_Out(); 
// 1238 
// 1239 	   if (cntStrt<100) cntStrt++;
// 1240 	 }
// 1241 	 
// 1242 
// 1243 }
// 1244 
// 1245 /*****************************END OF FILE**************************************/
// 
// 9 091 bytes in section .bss
//    22 bytes in section .data
//   160 bytes in section .rodata
// 3 982 bytes in section .text
// 
// 3 908 bytes of CODE  memory (+ 74 bytes shared)
//   160 bytes of CONST memory
// 9 113 bytes of DATA  memory
//
//Errors: none
//Warnings: 2
