///////////////////////////////////////////////////////////////////////////////
//
// IAR ANSI C/C++ Compiler V7.50.2.10312/W32 for ARM      20/Feb/2016  22:27:30
// Copyright 1999-2015 IAR Systems AB.
//
//    Cpu mode     =  thumb
//    Endian       =  little
//    Source file  =  
//        H:\PhanLeSon\ActivNoise\Microphone\F7\Mic_Array_Project\Mic_Array\Projects\STM32746G\Applications\Audio\Mic_Array\Src\main.c
//    Command line =  
//        H:\PhanLeSon\ActivNoise\Microphone\F7\Mic_Array_Project\Mic_Array\Projects\STM32746G\Applications\Audio\Mic_Array\Src\main.c
//        -D USE_HAL_DRIVER -D STM32F746xx -D USE_STM32746G_DISCO -D
//        USE_IOEXPANDER -D USE_USB_FS -lC
//        H:\PhanLeSon\ActivNoise\Microphone\F7\Mic_Array_Project\Mic_Array\Projects\STM32746G\Applications\Audio\Mic_Array\EWARM\STM32F7\List
//        -lA
//        H:\PhanLeSon\ActivNoise\Microphone\F7\Mic_Array_Project\Mic_Array\Projects\STM32746G\Applications\Audio\Mic_Array\EWARM\STM32F7\List
//        -o
//        H:\PhanLeSon\ActivNoise\Microphone\F7\Mic_Array_Project\Mic_Array\Projects\STM32746G\Applications\Audio\Mic_Array\EWARM\STM32F7\Obj
//        --no_cse --no_unroll --no_inline --no_code_motion --no_tbaa
//        --no_clustering --no_scheduling --debug --endian=little
//        --cpu=Cortex-M7 -e --fpu=VFPv5_sp --dlib_config "D:\Program Files
//        (x86)\IAR Systems\Embedded Workbench
//        7.3\arm\INC\c\DLib_Config_Full.h" -I
//        H:\PhanLeSon\ActivNoise\Microphone\F7\Mic_Array_Project\Mic_Array\Projects\STM32746G\Applications\Audio\Mic_Array\EWARM\..\Inc\
//        -I
//        H:\PhanLeSon\ActivNoise\Microphone\F7\Mic_Array_Project\Mic_Array\Projects\STM32746G\Applications\Audio\Mic_Array\EWARM\..\..\..\..\..\..\Drivers\CMSIS\Device\ST\STM32F7xx\Include\
//        -I
//        H:\PhanLeSon\ActivNoise\Microphone\F7\Mic_Array_Project\Mic_Array\Projects\STM32746G\Applications\Audio\Mic_Array\EWARM\..\..\..\..\..\..\Drivers\STM32F7xx_HAL_Driver\Inc\
//        -I
//        H:\PhanLeSon\ActivNoise\Microphone\F7\Mic_Array_Project\Mic_Array\Projects\STM32746G\Applications\Audio\Mic_Array\EWARM\..\..\..\..\..\..\Drivers\BSP\STM32746G-Discovery\
//        -I
//        H:\PhanLeSon\ActivNoise\Microphone\F7\Mic_Array_Project\Mic_Array\Projects\STM32746G\Applications\Audio\Mic_Array\EWARM\..\..\..\..\..\..\Drivers\BSP\Components\Common\
//        -I
//        H:\PhanLeSon\ActivNoise\Microphone\F7\Mic_Array_Project\Mic_Array\Projects\STM32746G\Applications\Audio\Mic_Array\EWARM\..\..\..\..\..\..\Utilities\Log\
//        -I
//        H:\PhanLeSon\ActivNoise\Microphone\F7\Mic_Array_Project\Mic_Array\Projects\STM32746G\Applications\Audio\Mic_Array\EWARM\..\..\..\..\..\..\Utilities\Fonts\
//        -I
//        H:\PhanLeSon\ActivNoise\Microphone\F7\Mic_Array_Project\Mic_Array\Projects\STM32746G\Applications\Audio\Mic_Array\EWARM\..\..\..\..\..\..\Utilities\CPU\
//        -I
//        H:\PhanLeSon\ActivNoise\Microphone\F7\Mic_Array_Project\Mic_Array\Projects\STM32746G\Applications\Audio\Mic_Array\EWARM\..\..\..\..\..\..\Middlewares\ST\STM32_USB_Device_Library\Core\Inc\
//        -I
//        H:\PhanLeSon\ActivNoise\Microphone\F7\Mic_Array_Project\Mic_Array\Projects\STM32746G\Applications\Audio\Mic_Array\EWARM\..\..\..\..\..\..\Middlewares\ST\STM32_USB_HOST_Library\Core\Inc\
//        -I
//        H:\PhanLeSon\ActivNoise\Microphone\F7\Mic_Array_Project\Mic_Array\Projects\STM32746G\Applications\Audio\Mic_Array\EWARM\..\..\..\..\..\..\Middlewares\ST\STM32_USB_HOST_Library\Class\MSC\Inc\
//        -I
//        H:\PhanLeSon\ActivNoise\Microphone\F7\Mic_Array_Project\Mic_Array\Projects\STM32746G\Applications\Audio\Mic_Array\EWARM\..\..\..\..\..\..\Middlewares\Third_Party\FatFs\src\
//        -I
//        H:\PhanLeSon\ActivNoise\Microphone\F7\Mic_Array_Project\Mic_Array\Projects\STM32746G\Applications\Audio\Mic_Array\EWARM\..\..\..\..\..\..\Middlewares\Third_Party\FatFs\src\drivers\
//        -I
//        H:\PhanLeSon\ActivNoise\Microphone\F7\Mic_Array_Project\Mic_Array\Projects\STM32746G\Applications\Audio\Mic_Array\EWARM\..\..\..\..\..\..\Middlewares\ST\STM32_Audio\Addons\PDM\
//        -I
//        H:\PhanLeSon\ActivNoise\Microphone\F7\Mic_Array_Project\Mic_Array\Projects\STM32746G\Applications\Audio\Mic_Array\EWARM\..\..\..\..\..\..\Middlewares\ST\STM32_USB_Device_Library\Class\AUDIO\Inc\
//        -On --use_c++_inline --require_prototypes -I "D:\Program Files
//        (x86)\IAR Systems\Embedded Workbench 7.3\arm\CMSIS\Include\" -D
//        ARM_MATH_CM7
//    List file    =  
//        H:\PhanLeSon\ActivNoise\Microphone\F7\Mic_Array_Project\Mic_Array\Projects\STM32746G\Applications\Audio\Mic_Array\EWARM\STM32F7\List\main.s
//
///////////////////////////////////////////////////////////////////////////////

        RTMODEL "__SystemLibrary", "DLib"
        RTMODEL "__dlib_file_descriptor", "1"
        RTMODEL "__dlib_full_locale_support", "1"
        AAPCS BASE,INTERWORK,VFP
        PRESERVE8
        REQUIRE8

        #define SHT_PROGBITS 0x1

        EXTERN AUDIO_Desc
        EXTERN AUDIO_InitApplication
        EXTERN AudioMerging
        EXTERN Audio_MAL_Play
        EXTERN BSP_LED_Init
        EXTERN BSP_LED_Toggle
        EXTERN BSP_SDRAM_Init
        EXTERN Buffer1
        EXTERN Buffer2
        EXTERN Buffer3
        EXTERN CrssCor
        EXTERN FactorUpd
        EXTERN HAL_GPIO_Init
        EXTERN HAL_GPIO_WritePin
        EXTERN HAL_I2C_Init
        EXTERN HAL_Init
        EXTERN HAL_NVIC_DisableIRQ
        EXTERN HAL_NVIC_EnableIRQ
        EXTERN HAL_NVIC_SetPriority
        EXTERN HAL_PWREx_EnableOverDrive
        EXTERN HAL_RCCEx_GetPeriphCLKConfig
        EXTERN HAL_RCCEx_PeriphCLKConfig
        EXTERN HAL_RCC_ClockConfig
        EXTERN HAL_RCC_OscConfig
        EXTERN HAL_UART_Init
        EXTERN I2S1_stNipple
        EXTERN MIC1TO6_Init
        EXTERN PDM2PCMSDO78
        EXTERN SPI4_stPosShft
        EXTERN STA321MP_Ini
        EXTERN USBD_AUDIO
        EXTERN USBD_AUDIO_Init_Microphone_Descriptor
        EXTERN USBD_AUDIO_RegisterInterface
        EXTERN USBD_AUDIO_fops
        EXTERN USBD_Init
        EXTERN USBD_RegisterClass
        EXTERN USBD_Start
        EXTERN WaveRecord_flgIni
        EXTERN XferCplt
        EXTERN arm_rfft_init_f32
        EXTERN cntStrt
        EXTERN hi2c2

        PUBLIC BSP_AUDIO_OUT_ClockConfig
        PUBLIC BufferTest
        PUBLIC ButtonInit
        PUBLIC Command_index
        PUBLIC DFT_Init
        PUBLIC DeltaBuf1
        PUBLIC DeltaBuf1Old
        PUBLIC EXTI15_10_IRQHandler
        PUBLIC EXTI4_IRQHandler
        PUBLIC EXTI9_5_IRQHandler
        PUBLIC FacMic
        PUBLIC GPIO_INS
        PUBLIC HAL_I2C_MspInit
        PUBLIC HAL_I2S_TxCpltCallback
        PUBLIC HAL_UART_MspInit
        PUBLIC I2S2_idxTmp
        PUBLIC IS
        PUBLIC ISS
        PUBLIC MX_I2C2_Init
        PUBLIC `S1`
        PUBLIC `S2`
        PUBLIC `S3`
        PUBLIC `S4`
        PUBLIC SS1
        PUBLIC SS2
        PUBLIC SS3
        PUBLIC SS4
        PUBLIC SumDelay
        PUBLIC Toggle_Leds
        PUBLIC USART3_Init
        PUBLIC WaveRec_idxSens1
        PUBLIC WaveRec_idxSens2
        PUBLIC WaveRec_idxSens3
        PUBLIC WaveRec_idxSens4
        PUBLIC WaveRec_idxSens5
        PUBLIC WaveRec_idxSens6
        PUBLIC aRxBuffer
        PUBLIC appli_state
        PUBLIC btnSW1
        PUBLIC btnSW2
        PUBLIC bufferSum
        PUBLIC buffer_switch
        PUBLIC cntRisingEXTI
        PUBLIC cntTime200
        PUBLIC flg10ms
        PUBLIC flgDlyUpd
        PUBLIC flgSTAIni
        PUBLIC hUSBDDevice
        PUBLIC hUSBHost
        PUBLIC hspi4
        PUBLIC huart3
        PUBLIC idxDec
        PUBLIC idxLatency12
        PUBLIC idxLatency13
        PUBLIC idxLatency14
        PUBLIC idxLatency25
        PUBLIC idxLatency63
        PUBLIC idxLatency78
        PUBLIC idxSPI5DataBuf3
        PUBLIC main
        PUBLIC pI2CData
        PUBLIC pI2CRx
        PUBLIC stFrstFrmStore
        
          CFI Names cfiNames0
          CFI StackFrame CFA R13 DATA
          CFI Resource R0:32, R1:32, R2:32, R3:32, R4:32, R5:32, R6:32, R7:32
          CFI Resource R8:32, R9:32, R10:32, R11:32, R12:32, R13:32, R14:32
          CFI Resource D0:64, D1:64, D2:64, D3:64, D4:64, D5:64, D6:64, D7:64
          CFI Resource D8:64, D9:64, D10:64, D11:64, D12:64, D13:64, D14:64
          CFI Resource D15:64
          CFI EndNames cfiNames0
        
          CFI Common cfiCommon0 Using cfiNames0
          CFI CodeAlign 2
          CFI DataAlign 4
          CFI ReturnAddress R14 CODE
          CFI CFA R13+0
          CFI R0 Undefined
          CFI R1 Undefined
          CFI R2 Undefined
          CFI R3 Undefined
          CFI R4 SameValue
          CFI R5 SameValue
          CFI R6 SameValue
          CFI R7 SameValue
          CFI R8 SameValue
          CFI R9 SameValue
          CFI R10 SameValue
          CFI R11 SameValue
          CFI R12 Undefined
          CFI R14 SameValue
          CFI D0 Undefined
          CFI D1 Undefined
          CFI D2 Undefined
          CFI D3 Undefined
          CFI D4 Undefined
          CFI D5 Undefined
          CFI D6 Undefined
          CFI D7 Undefined
          CFI D8 SameValue
          CFI D9 SameValue
          CFI D10 SameValue
          CFI D11 SameValue
          CFI D12 SameValue
          CFI D13 SameValue
          CFI D14 SameValue
          CFI D15 SameValue
          CFI EndCommon cfiCommon0
        
// H:\PhanLeSon\ActivNoise\Microphone\F7\Mic_Array_Project\Mic_Array\Projects\STM32746G\Applications\Audio\Mic_Array\Src\main.c
//    1 /* Includes ------------------------------------------------------------------*/
//    2 #include "main.h"

        SECTION `.text`:CODE:NOROOT(1)
          CFI Block cfiBlock0 Using cfiCommon0
          CFI Function SCB_EnableICache
          CFI NoCalls
        THUMB
// static __interwork __softfp void SCB_EnableICache(void)
SCB_EnableICache:
        DSB      
        ISB      
        MOVS     R0,#+0
        LDR.W    R1,??DataTable14  ;; 0xe000ef50
        STR      R0,[R1, #+0]
        LDR.W    R0,??DataTable16  ;; 0xe000ed14
        LDR      R0,[R0, #+0]
        ORRS     R0,R0,#0x20000
        LDR.W    R1,??DataTable16  ;; 0xe000ed14
        STR      R0,[R1, #+0]
        DSB      
        ISB      
        BX       LR               ;; return
          CFI EndBlock cfiBlock0

        SECTION `.text`:CODE:NOROOT(1)
          CFI Block cfiBlock1 Using cfiCommon0
          CFI Function SCB_EnableDCache
          CFI NoCalls
        THUMB
// static __interwork __softfp void SCB_EnableDCache(void)
SCB_EnableDCache:
        PUSH     {R4}
          CFI R4 Frame(CFA, -4)
          CFI CFA R13+4
        MOVS     R3,#+0
        LDR.W    R4,??DataTable15  ;; 0xe000ed84
        STR      R3,[R4, #+0]
        DSB      
        LDR.W    R3,??DataTable15_1  ;; 0xe000ed80
        LDR      R3,[R3, #+0]
        MOVS     R0,R3
        UBFX     R3,R0,#+13,#+15
        MOVS     R1,R3
??SCB_EnableDCache_0:
        UBFX     R3,R0,#+3,#+10
        MOVS     R2,R3
??SCB_EnableDCache_1:
        MOVW     R3,#+16352
        ANDS     R3,R3,R1, LSL #+5
        ORRS     R3,R3,R2, LSL #+30
        LDR.W    R4,??DataTable16_1  ;; 0xe000ef60
        STR      R3,[R4, #+0]
        MOVS     R3,R2
        SUBS     R2,R3,#+1
        CMP      R3,#+0
        BNE.N    ??SCB_EnableDCache_1
        MOVS     R3,R1
        SUBS     R1,R3,#+1
        CMP      R3,#+0
        BNE.N    ??SCB_EnableDCache_0
        DSB      
        LDR.W    R3,??DataTable16  ;; 0xe000ed14
        LDR      R3,[R3, #+0]
        ORRS     R3,R3,#0x10000
        LDR.W    R4,??DataTable16  ;; 0xe000ed14
        STR      R3,[R4, #+0]
        DSB      
        ISB      
        POP      {R4}
          CFI R4 SameValue
          CFI CFA R13+0
        BX       LR               ;; return
          CFI EndBlock cfiBlock1
//    3 #include "DSP.h"
//    4 //#include "waveplayer.h"
//    5 #include "waverecorder.h"
//    6 #include "stm32f7xx_hal_usart.h"
//    7 #include "pdm_filter.h"
//    8 #include "arm_math.h"
//    9 #include <stdio.h>
//   10 
//   11 
//   12 /* Private typedef -----------------------------------------------------------*/
//   13 /* Private define ------------------------------------------------------------*/
//   14 /* Private macro -------------------------------------------------------------*/
//   15 
//   16 
//   17 /* EXTERN VARIABLES ----------------------------------------------------------*/
//   18 //extern __IO AUDIO_IN_BufferTypeDef Buffer1, Buffer2, BufferCtlRecIn;
//   19 //AUDIO_IN_BufferTypeDef Buffer3;
//   20 
//   21 
//   22 
//   23 
//   24 extern Mic_Array_Data Buffer1,Buffer2,Buffer3;
//   25 
//   26 extern __IO uint8_t XferCplt;
//   27 extern __IO AUDIO_IN_BufferTypeDef BufferCtlRecIn;
//   28 extern DMA_HandleTypeDef     DmaHandle;
//   29 
//   30 extern SAI_HandleTypeDef         haudio_out_sai;
//   31 extern uint8_t WaveRecord_flgIni;
//   32 extern uint32_t EnergySound;
//   33 extern I2C_HandleTypeDef hi2c2;
//   34 extern __IO uint16_t cntStrt;
//   35 extern __IO int16_t SPI1_stNipple,I2S1_stNipple, I2S2_stNipple;
//   36 extern __IO   uint8_t I2S1_stPosShft,I2S2_stPosShft,SPI4_stPosShft;
//   37 extern USBD_AUDIO_ItfTypeDef  USBD_AUDIO_fops;
//   38 /* GLOBAL VARIABLE -----------------------------------------------------------*/

        SECTION `.bss`:DATA:REORDER:NOROOT(2)
        DATA
//   39 USBH_HandleTypeDef hUSBHost;
hUSBHost:
        DS8 696

        SECTION `.bss`:DATA:REORDER:NOROOT(2)
        DATA
//   40 USBD_HandleTypeDef hUSBDDevice;
hUSBDDevice:
        DS8 548

        SECTION `.bss`:DATA:REORDER:NOROOT(0)
        DATA
//   41 AUDIO_ApplicationTypeDef appli_state = APPLICATION_IDLE;//APPLICATION_IDLE
appli_state:
        DS8 1
//   42 

        SECTION `.bss`:DATA:REORDER:NOROOT(2)
        DATA
//   43 UART_HandleTypeDef huart3;
huart3:
        DS8 112

        SECTION `.bss`:DATA:REORDER:NOROOT(2)
        DATA
//   44 SPI_HandleTypeDef hspi4;
hspi4:
        DS8 100

        SECTION `.bss`:DATA:REORDER:NOROOT(2)
        DATA
//   45 GPIO_InitTypeDef GPIO_INS;
GPIO_INS:
        DS8 20

        SECTION `.bss`:DATA:REORDER:NOROOT(2)
        DATA
//   46 Mic_Array_Coef_f FacMic;
FacMic:
        DS8 24
//   47 	  

        SECTION `.data`:DATA:REORDER:NOROOT(2)
        DATA
//   48 uint8_t  pI2CData[20]= {0,10,20,30,40,50,60,70,80,90,100,110,120,130,140,150,160,170,180,190};
pI2CData:
        DC8 0, 10, 20, 30, 40, 50, 60, 70, 80, 90, 100, 110, 120, 130, 140, 150
        DC8 160, 170, 180, 190

        SECTION `.bss`:DATA:REORDER:NOROOT(2)
        DATA
//   49 uint8_t  pI2CRx[10];
pI2CRx:
        DS8 12

        SECTION `.bss`:DATA:REORDER:NOROOT(2)
        DATA
//   50 uint16_t BufferTest[2*AUDIO_OUT_BUFFER_SIZE];
BufferTest:
        DS8 4096

        SECTION `.bss`:DATA:REORDER:NOROOT(2)
        DATA
//   51 uint16_t bufferSum[AUDIO_OUT_BUFFER_SIZE];
bufferSum:
        DS8 2048
//   52 

        SECTION `.bss`:DATA:REORDER:NOROOT(1)
        DATA
//   53 __IO uint16_t  WaveRec_idxSens4,WaveRec_idxSens3,I2S2_idxTmp;
WaveRec_idxSens4:
        DS8 2

        SECTION `.bss`:DATA:REORDER:NOROOT(1)
        DATA
WaveRec_idxSens3:
        DS8 2

        SECTION `.bss`:DATA:REORDER:NOROOT(1)
        DATA
I2S2_idxTmp:
        DS8 2

        SECTION `.bss`:DATA:REORDER:NOROOT(1)
        DATA
//   54 __IO uint16_t  WaveRec_idxSens1,WaveRec_idxSens2;
WaveRec_idxSens1:
        DS8 2

        SECTION `.bss`:DATA:REORDER:NOROOT(1)
        DATA
WaveRec_idxSens2:
        DS8 2

        SECTION `.bss`:DATA:REORDER:NOROOT(1)
        DATA
//   55 __IO uint16_t  WaveRec_idxSens5,WaveRec_idxSens6;
WaveRec_idxSens5:
        DS8 2

        SECTION `.bss`:DATA:REORDER:NOROOT(1)
        DATA
WaveRec_idxSens6:
        DS8 2

        SECTION `.bss`:DATA:REORDER:NOROOT(1)
        DATA
//   56 __IO uint16_t  idxSPI5DataBuf3;
idxSPI5DataBuf3:
        DS8 2

        SECTION `.bss`:DATA:REORDER:NOROOT(1)
        DATA
//   57 __IO uint16_t  cntRisingEXTI;
cntRisingEXTI:
        DS8 2

        SECTION `.bss`:DATA:REORDER:NOROOT(0)
        DATA
//   58 __IO uint8_t   btnSW1,btnSW2;
btnSW1:
        DS8 1

        SECTION `.bss`:DATA:REORDER:NOROOT(0)
        DATA
btnSW2:
        DS8 1

        SECTION `.bss`:DATA:REORDER:NOROOT(0)
        DATA
//   59 __IO uint8_t flgDlyUpd; 
flgDlyUpd:
        DS8 1
//   60 
//   61 /* Buffer used for reception */

        SECTION `.bss`:DATA:REORDER:NOROOT(2)
        DATA
//   62 uint8_t aRxBuffer[1024];
aRxBuffer:
        DS8 1024

        SECTION `.bss`:DATA:REORDER:NOROOT(0)
        DATA
//   63 uint8_t idxDec,stFrstFrmStore;
idxDec:
        DS8 1

        SECTION `.bss`:DATA:REORDER:NOROOT(0)
        DATA
stFrstFrmStore:
        DS8 1

        SECTION `.bss`:DATA:REORDER:NOROOT(1)
        DATA
//   64 int16_t DeltaBuf1,DeltaBuf1Old;
DeltaBuf1:
        DS8 2

        SECTION `.bss`:DATA:REORDER:NOROOT(1)
        DATA
DeltaBuf1Old:
        DS8 2

        SECTION `.bss`:DATA:REORDER:NOROOT(1)
        DATA
//   65 int16_t idxLatency13,idxLatency12,idxLatency14,idxLatency25,idxLatency63,idxLatency78;
idxLatency13:
        DS8 2

        SECTION `.bss`:DATA:REORDER:NOROOT(1)
        DATA
idxLatency12:
        DS8 2

        SECTION `.bss`:DATA:REORDER:NOROOT(1)
        DATA
idxLatency14:
        DS8 2

        SECTION `.bss`:DATA:REORDER:NOROOT(1)
        DATA
idxLatency25:
        DS8 2

        SECTION `.bss`:DATA:REORDER:NOROOT(1)
        DATA
idxLatency63:
        DS8 2

        SECTION `.bss`:DATA:REORDER:NOROOT(1)
        DATA
idxLatency78:
        DS8 2
//   66 

        SECTION `.bss`:DATA:REORDER:NOROOT(0)
        DATA
//   67 __IO char flg10ms;
flg10ms:
        DS8 1

        SECTION `.bss`:DATA:REORDER:NOROOT(0)
        DATA
//   68 uint8_t flgSTAIni;
flgSTAIni:
        DS8 1

        SECTION `.bss`:DATA:REORDER:NOROOT(1)
        DATA
//   69 uint16_t cntTime200;
cntTime200:
        DS8 2
//   70 

        SECTION `.data`:DATA:REORDER:NOROOT(0)
        DATA
//   71 uint8_t buffer_switch = 1;
buffer_switch:
        DC8 1

        SECTION `.data`:DATA:REORDER:NOROOT(0)
        DATA
//   72 uint8_t Command_index=1;
Command_index:
        DC8 1
//   73 
//   74 #if MAIN_CRSCORR
//   75 arm_rfft_instance_q15 RealFFT_Ins, RealIFFT_Ins;
//   76 #endif
//   77 

        SECTION `.bss`:DATA:REORDER:NOROOT(2)
        DATA
//   78 arm_cfft_radix4_instance_f32 SS1,SS2,SS3,SS4,ISS; 
SS1:
        DS8 20

        SECTION `.bss`:DATA:REORDER:NOROOT(2)
        DATA
SS2:
        DS8 20

        SECTION `.bss`:DATA:REORDER:NOROOT(2)
        DATA
SS3:
        DS8 20

        SECTION `.bss`:DATA:REORDER:NOROOT(2)
        DATA
SS4:
        DS8 20

        SECTION `.bss`:DATA:REORDER:NOROOT(2)
        DATA
ISS:
        DS8 20

        SECTION `.bss`:DATA:REORDER:NOROOT(2)
        DATA
//   79 arm_rfft_instance_f32 S1,S2,S3,S4,IS;
`S1`:
        DS8 24

        SECTION `.bss`:DATA:REORDER:NOROOT(2)
        DATA
`S2`:
        DS8 24

        SECTION `.bss`:DATA:REORDER:NOROOT(2)
        DATA
`S3`:
        DS8 24

        SECTION `.bss`:DATA:REORDER:NOROOT(2)
        DATA
`S4`:
        DS8 24

        SECTION `.bss`:DATA:REORDER:NOROOT(2)
        DATA
IS:
        DS8 24
//   80 
//   81 //arm_rfft_fast_instance_f32 S1,S2,S3,S4,IS;
//   82 
//   83 
//   84 #if (DEBUG)
//   85 uint8_t  pUARTBuf[128];
//   86 uint32_t Main_CoefMor;
//   87 uint8_t stDir,flgS2,flgS3,flgS4,flgS2Flt,flgS3Flt,flgS4Flt;
//   88 uint8_t flgS2Ins,flgS3Ins,flgS4Ins;
//   89 #endif
//   90 
//   91 /* Private function prototypes -----------------------------------------------*/
//   92 static void SystemClock_Config(void);
//   93 static void USBH_UserProcess(USBH_HandleTypeDef *phost, uint8_t id);
//   94 static void CPU_CACHE_Enable(void);
//   95 
//   96 
//   97 
//   98 
//   99 void HAL_I2C_MspInit(I2C_HandleTypeDef* hi2c);
//  100 void MX_I2C2_Init(void);
//  101 void USART3_Init(void);
//  102 void ReadSTASeq(uint8_t Addr, uint8_t *pBufOut,uint8_t Len );
//  103 void WriteSTAByte(uint8_t Addr, uint8_t *pBufIn, uint8_t len);
//  104 void SPI5_CallBack(SPI_HandleTypeDef *hspi);
//  105 
//  106 
//  107 
//  108 /*--------------INLINE FUNCTION-----------------------------------------------*/
//  109 

        SECTION `.text`:CODE:NOROOT(1)
          CFI Block cfiBlock2 Using cfiCommon0
          CFI Function FFT_Update
        THUMB
//  110 inline static void FFT_Update(void)
//  111 {
FFT_Update:
        PUSH     {R7,LR}
          CFI R14 Frame(CFA, -4)
          CFI CFA R13+8
//  112 
//  113       PDM2PCMSDO78();
          CFI FunCall PDM2PCMSDO78
        BL       PDM2PCMSDO78
//  114       /* Hafl buffer is filled in by I2S data stream in */
//  115       if((flgDlyUpd==0))
        LDR.W    R0,??DataTable16_2
        LDRB     R0,[R0, #+0]
        CMP      R0,#+0
        BNE.W    ??FFT_Update_0
//  116       {
//  117             //HAL_GPIO_TogglePin(GPIOA, GPIO_PIN_15);
//  118             FactorUpd(&FacMic); 
        LDR.W    R0,??DataTable16_3
          CFI FunCall FactorUpd
        BL       FactorUpd
//  119             //STM_EVAL_LEDOn(LED3);
//  120             flgDlyUpd = 1; 
        MOVS     R0,#+1
        LDR.W    R1,??DataTable16_2
        STRB     R0,[R1, #+0]
//  121 /*-------------------------------------------------------------------------------------------------------------
//  122 			  
//  123 	Sequence  Record Data                     Processing Data                 Player Data
//  124 			  
//  125 	1-------  Buffer1                         Buffer2                         Buffer3
//  126 			  
//  127 	2-------  Buffer3                         Buffer1                         Buffer2		  
//  128 			  
//  129 	3-------  Buffer2                         Buffer3                         Buffer1 
//  130  ---------------------------------------------------------------------------------------------------------------*/
//  131             /* Processing Data */
//  132 			switch (buffer_switch)
        LDR.W    R0,??DataTable16_4
        LDRB     R0,[R0, #+0]
        CMP      R0,#+0
        BEQ.N    ??FFT_Update_1
        CMP      R0,#+2
        BEQ.N    ??FFT_Update_2
        BCC.N    ??FFT_Update_3
        B.N      ??FFT_Update_4
//  133 			{             
//  134 			    case BUF1_PLAY:
//  135 #if MAIN_CRSCORR
//  136 					for (uint16_t i=0; i<(_MAX_SS/_MAX_SS);i++)
//  137 					{
//  138 					    //uint16_t i=0;
//  139 						arm_rfft_q15(&RealFFT_Ins,    (q15_t *)&buffer3[i*128],    (q15_t *)&bufferFFT[i*256]);
//  140 						arm_rfft_q15(&RealFFT_Ins,    (q15_t *)&buffer3_1[i*128],   (q15_t *)&bufferFFT_1[i*256]);
//  141 					
//  142 						arm_add_q15((q15_t *)&bufferFFT[i*256],    (q15_t *)&bufferFFT_1[i*256],    (q15_t *)&bufferFFTSum[i*256],2*128);
//  143 					
//  144 						//for (uint16_t j=0; j<256;j++)
//  145 						//{
//  146 						//	  bufferFFTSum[i*256+j]<<=6;
//  147 						//}
//  148 						
//  149 						arm_rfft_q15(&RealIFFT_Ins,    (q15_t *)&bufferFFTSum[i*256],    (q15_t *)&bufferSum[i*128]);
//  150 					}
//  151 #elif MAIN_FFT
//  152                     /* Summing in Buffer3 */
//  153                     Delay_Sum_FFT(&Buffer3,&FacMic,(int16_t *)bufferSum, 512);
//  154 			 	   //FFT_SUM((int16_t *)buffer3, (int16_t * )buffer3_1,fbuffer, 1024);	
//  155 			 	   
//  156 
//  157 #else
//  158 
//  159                     //idxLatency13 = CrssCor(Buffer3.bufMIC1, Buffer3.bufMIC3, AUDIO_OUT_BUFFER_SIZE/2);
//  160                     //idxLatency12 = CrssCor(Buffer3.bufMIC1, Buffer3.bufMIC2, AUDIO_OUT_BUFFER_SIZE/2);
//  161 
//  162 					idxLatency78 = CrssCor(Buffer3.bufMIC7, Buffer3.bufMIC8, AUDIO_OUT_BUFFER_SIZE);
??FFT_Update_1:
        MOV      R2,#+1024
        LDR.W    R1,??DataTable16_5
        LDR.W    R0,??DataTable16_6
          CFI FunCall CrssCor
        BL       CrssCor
        LDR.W    R1,??DataTable16_7
        STRH     R0,[R1, #+0]
//  163                     idxLatency14 = CrssCor(Buffer3.bufMIC1, Buffer3.bufMIC4, AUDIO_OUT_BUFFER_SIZE);
        MOV      R2,#+1024
        LDR.W    R1,??DataTable16_8
        LDR.W    R0,??DataTable16_9
          CFI FunCall CrssCor
        BL       CrssCor
        LDR.W    R1,??DataTable16_10
        STRH     R0,[R1, #+0]
//  164 					idxLatency25 = CrssCor(Buffer3.bufMIC2, Buffer3.bufMIC5, AUDIO_OUT_BUFFER_SIZE);
        MOV      R2,#+1024
        LDR.W    R1,??DataTable16_11
        LDR.W    R0,??DataTable16_12
          CFI FunCall CrssCor
        BL       CrssCor
        LDR.W    R1,??DataTable16_13
        STRH     R0,[R1, #+0]
//  165 					idxLatency63 = CrssCor(Buffer3.bufMIC6, Buffer3.bufMIC3, AUDIO_OUT_BUFFER_SIZE);
        MOV      R2,#+1024
        LDR.W    R1,??DataTable16_14
        LDR.W    R0,??DataTable16_15
          CFI FunCall CrssCor
        BL       CrssCor
        LDR.W    R1,??DataTable16_16
        STRH     R0,[R1, #+0]
//  166 
//  167 
//  168                     SumDelay(&Buffer3);
        LDR.W    R0,??DataTable16_9
          CFI FunCall SumDelay
        BL       SumDelay
//  169 #endif
//  170 					
//  171 					break;
        B.N      ??FFT_Update_5
//  172 				case BUF2_PLAY:
//  173 
//  174 #if MAIN_CRSCORR
//  175                      for (uint16_t i=0; i<(_MAX_SS/128);i++)
//  176                      { 
//  177                          //uint16_t i=0;
//  178 				         arm_rfft_q15(&RealFFT_Ins,(q15_t *)&buffer1[i*128],(q15_t *)&bufferFFT[i*256]);
//  179 	           		     arm_rfft_q15(&RealFFT_Ins,(q15_t *)&buffer1_1[i*128],(q15_t *)&bufferFFT_1[i*256]);
//  180 
//  181 						 arm_add_q15((q15_t *)&bufferFFT[i*256],    (q15_t *)&bufferFFT_1[i*256],    (q15_t *)&bufferFFTSum[i*256],
//  182 						 	          2*128);
//  183 
//  184 						 //for (uint16_t j=0; j<256;j++)
//  185 						 //{
//  186 						//	   bufferFFTSum[i*256+j]<<=6;
//  187 						 //}
//  188 
//  189 						 
//  190 	                     arm_rfft_q15(&RealIFFT_Ins,(q15_t *)&bufferFFTSum[i*256],(q15_t *)&bufferSum[i*128]);
//  191                      }
//  192 #elif MAIN_FFT
//  193 					/* Summing in Buffer1 */	 
//  194 					Delay_Sum_FFT(&Buffer1, &FacMic,(int16_t * )bufferSum,512);
//  195 					//FFT_SUM((int16_t *)buffer1, (int16_t * )buffer1_1,fbuffer, 1024);
//  196 
//  197 #else
//  198                 
//  199                   //idxLatency13 = CrssCor(Buffer1.bufMIC1, Buffer1.bufMIC3, AUDIO_OUT_BUFFER_SIZE/2); 
//  200                   //idxLatency12 = CrssCor(Buffer1.bufMIC1, Buffer1.bufMIC2, AUDIO_OUT_BUFFER_SIZE/2);
//  201 		
//  202                   idxLatency78 = CrssCor(Buffer1.bufMIC7, Buffer1.bufMIC8, AUDIO_OUT_BUFFER_SIZE);	
??FFT_Update_3:
        MOV      R2,#+1024
        LDR.W    R1,??DataTable16_17
        LDR.W    R0,??DataTable16_18
          CFI FunCall CrssCor
        BL       CrssCor
        LDR.W    R1,??DataTable16_7
        STRH     R0,[R1, #+0]
//  203                   idxLatency14 = CrssCor(Buffer1.bufMIC1, Buffer1.bufMIC4, AUDIO_OUT_BUFFER_SIZE);
        MOV      R2,#+1024
        LDR.W    R1,??DataTable16_19
        LDR.W    R0,??DataTable16_20
          CFI FunCall CrssCor
        BL       CrssCor
        LDR.W    R1,??DataTable16_10
        STRH     R0,[R1, #+0]
//  204                   idxLatency25 = CrssCor(Buffer1.bufMIC2, Buffer1.bufMIC5, AUDIO_OUT_BUFFER_SIZE);
        MOV      R2,#+1024
        LDR.W    R1,??DataTable16_21
        LDR.W    R0,??DataTable16_22
          CFI FunCall CrssCor
        BL       CrssCor
        LDR.W    R1,??DataTable16_13
        STRH     R0,[R1, #+0]
//  205                   idxLatency63 = CrssCor(Buffer1.bufMIC6, Buffer1.bufMIC3, AUDIO_OUT_BUFFER_SIZE);
        MOV      R2,#+1024
        LDR.W    R1,??DataTable16_23
        LDR.W    R0,??DataTable16_24
          CFI FunCall CrssCor
        BL       CrssCor
        LDR.W    R1,??DataTable16_16
        STRH     R0,[R1, #+0]
//  206 
//  207 
//  208 
//  209                   SumDelay(&Buffer1);
        LDR.W    R0,??DataTable16_20
          CFI FunCall SumDelay
        BL       SumDelay
//  210 #endif
//  211 					break;
        B.N      ??FFT_Update_5
//  212 					
//  213 				case BUF3_PLAY:
//  214 #if MAIN_CRSCORR
//  215 					for (uint16_t i=0; i<(_MAX_SS/128);i++)
//  216 					{
//  217 						
//  218 						arm_rfft_q15(&RealFFT_Ins,(q15_t *)&buffer2[i*128],(q15_t *)&bufferFFT[i*256]);
//  219 						arm_rfft_q15(&RealFFT_Ins,(q15_t *)&buffer2_1[i*128],(q15_t *)&bufferFFT_1[i*256]);
//  220 					
//  221 						arm_add_q15((q15_t *)&bufferFFT[i*256],    (q15_t *)&bufferFFT_1[i*256],	(q15_t *)&bufferFFTSum[i*256],
//  222 									 2*128);
//  223 					
//  224 						//for (uint16_t j=0; j<256;j++)
//  225 						//{
//  226 					    //   bufferFFTSum[i*256+j]<<=6;
//  227 					    //}
//  228 					
//  229 						
//  230 						arm_rfft_q15(&RealIFFT_Ins,(q15_t *)&bufferFFTSum[i*256],(q15_t *)&bufferSum[i*128]);
//  231 					}
//  232 
//  233 #elif MAIN_FFT
//  234 					/* Summing in Buffer2 */
//  235                                         Delay_Sum_FFT(&Buffer2,&FacMic, (int16_t * )bufferSum, 512);
//  236                                        //FFT_SUM((int16_t *)buffer2, (int16_t * )buffer2_1,fbuffer, 1024);
//  237 
//  238 					
//  239 #else
//  240 
//  241 					//idxLatency13 = CrssCor(Buffer2.bufMIC1, Buffer2.bufMIC3, AUDIO_OUT_BUFFER_SIZE/2); 
//  242                     //idxLatency12 = CrssCor(Buffer2.bufMIC1, Buffer2.bufMIC2, AUDIO_OUT_BUFFER_SIZE/2);
//  243 
//  244 					idxLatency78 = CrssCor(Buffer2.bufMIC7, Buffer2.bufMIC8, AUDIO_OUT_BUFFER_SIZE);
??FFT_Update_2:
        MOV      R2,#+1024
        LDR.W    R1,??DataTable16_25
        LDR.W    R0,??DataTable16_26
          CFI FunCall CrssCor
        BL       CrssCor
        LDR.W    R1,??DataTable16_7
        STRH     R0,[R1, #+0]
//  245 					idxLatency14 = CrssCor(Buffer2.bufMIC1, Buffer2.bufMIC4, AUDIO_OUT_BUFFER_SIZE);
        MOV      R2,#+1024
        LDR.W    R1,??DataTable16_27
        LDR.W    R0,??DataTable16_28
          CFI FunCall CrssCor
        BL       CrssCor
        LDR.W    R1,??DataTable16_10
        STRH     R0,[R1, #+0]
//  246 					idxLatency25 = CrssCor(Buffer2.bufMIC2, Buffer2.bufMIC5, AUDIO_OUT_BUFFER_SIZE);
        MOV      R2,#+1024
        LDR.W    R1,??DataTable16_29
        LDR.W    R0,??DataTable16_30
          CFI FunCall CrssCor
        BL       CrssCor
        LDR.W    R1,??DataTable16_13
        STRH     R0,[R1, #+0]
//  247 					idxLatency63 = CrssCor(Buffer2.bufMIC6, Buffer2.bufMIC3, AUDIO_OUT_BUFFER_SIZE);
        MOV      R2,#+1024
        LDR.W    R1,??DataTable16_31
        LDR.W    R0,??DataTable16_32
          CFI FunCall CrssCor
        BL       CrssCor
        LDR.W    R1,??DataTable16_16
        STRH     R0,[R1, #+0]
//  248 
//  249                      SumDelay(&Buffer2);
        LDR.W    R0,??DataTable16_28
          CFI FunCall SumDelay
        BL       SumDelay
//  250 #endif
//  251 					break;
        B.N      ??FFT_Update_5
//  252 					
//  253 				default:
//  254 					break;
//  255                
//  256 			}
//  257 #if USB_STREAMING
//  258    AudioMerging();
??FFT_Update_4:
??FFT_Update_5:
          CFI FunCall AudioMerging
        BL       AudioMerging
//  259 #endif
//  260 	       //HAL_GPIO_TogglePin(GPIOA, GPIO_PIN_15);
//  261 	  }
//  262 	  
//  263 
//  264 }
??FFT_Update_0:
        POP      {R0,PC}          ;; return
          CFI EndBlock cfiBlock2
//  265 
//  266 

        SECTION `.text`:CODE:NOROOT(1)
          CFI Block cfiBlock3 Using cfiCommon0
          CFI Function Audio_Play_Out
        THUMB
//  267 inline static void Audio_Play_Out(void)
//  268 {
Audio_Play_Out:
        PUSH     {R7,LR}
          CFI R14 Frame(CFA, -4)
          CFI CFA R13+8
//  269   /* wait for DMA transfert complete									*/
//  270   /* This flag is set to 1 in callback function of DMA interrupt  */
//  271   /* if player is finished for curent buffer */ 
//  272   if (XferCplt == 1)
        LDR.W    R0,??DataTable16_33
        LDRB     R0,[R0, #+0]
        CMP      R0,#+1
        BNE.N    ??Audio_Play_Out_0
//  273   {
//  274        RESET_IDX
        MOVS     R0,#+0
        LDR.W    R1,??DataTable16_34
        STRH     R0,[R1, #+0]
        MOVS     R0,#+0
        LDR.W    R1,??DataTable16_35
        STRH     R0,[R1, #+0]
        MOVS     R0,#+0
        LDR.W    R1,??DataTable16_36
        STRH     R0,[R1, #+0]
        MOVS     R0,#+0
        LDR.W    R1,??DataTable16_37
        STRH     R0,[R1, #+0]
        MOVS     R0,#+0
        LDR.W    R1,??DataTable16_38
        STRH     R0,[R1, #+0]
        MOVS     R0,#+0
        LDR.W    R1,??DataTable16_39
        STRH     R0,[R1, #+0]
        MOVS     R0,#+0
        LDR.W    R1,??DataTable16_40
        STRH     R0,[R1, #+0]
        MOVS     R0,#+0
        LDR.W    R1,??DataTable16_41
        STRH     R0,[R1, #+0]
        MOVS     R0,#+0
        LDR.W    R1,??DataTable16_2
        STRB     R0,[R1, #+0]
//  275        XferCplt = 0; // clear DMA interrupt flag
        MOVS     R0,#+0
        LDR.W    R1,??DataTable16_33
        STRB     R0,[R1, #+0]
//  276 #if USB_STREAMING
//  277 	  //AudioProcess();
//  278 #endif
//  279 /*-------------------------------------------------------------------------------------------------------------
//  280 			  
//  281 	Sequence  Record Data                     Processing Data                 Player Data
//  282 			  
//  283 	1-------  Buffer1                         Buffer2                          Buffer3
//  284 			  
//  285 	2-------  Buffer3                         Buffer1                           Buffer2		  
//  286 			  
//  287 	3-------  Buffer2                         Buffer3                           Buffer1 
//  288  ---------------------------------------------------------------------------------------------------------------*/
//  289     switch (buffer_switch)
        LDR.W    R0,??DataTable16_4
        LDRB     R0,[R0, #+0]
        CMP      R0,#+0
        BEQ.N    ??Audio_Play_Out_1
        CMP      R0,#+2
        BEQ.N    ??Audio_Play_Out_2
        BCC.N    ??Audio_Play_Out_3
        B.N      ??Audio_Play_Out_4
//  290     {
//  291       case BUF1_PLAY:
//  292         /* Play data from buffer1 */
//  293 	    Audio_MAL_Play(Command_index? (uint32_t)Buffer3.bufMIC1:(uint32_t)Buffer3.bufMIC2 , 4*AUDIO_OUT_BUFFER_SIZE);
??Audio_Play_Out_1:
        LDR.W    R0,??DataTable16_42
        LDRB     R0,[R0, #+0]
        CMP      R0,#+0
        BEQ.N    ??Audio_Play_Out_5
        LDR.W    R0,??DataTable16_9
        B.N      ??Audio_Play_Out_6
??Audio_Play_Out_5:
        LDR.W    R0,??DataTable16_12
??Audio_Play_Out_6:
        MOV      R1,#+4096
          CFI FunCall Audio_MAL_Play
        BL       Audio_MAL_Play
//  294 		/* set flag for switch buffer */		  
//  295         buffer_switch = BUF3_PLAY;
        MOVS     R0,#+2
        LDR.W    R1,??DataTable16_4
        STRB     R0,[R1, #+0]
//  296 
//  297         break;
        B.N      ??Audio_Play_Out_0
//  298       case BUF2_PLAY:
//  299         /* Play data from buffer2 */
//  300 	    Audio_MAL_Play(Command_index? (uint32_t)Buffer1.bufMIC1:(uint32_t)Buffer1.bufMIC2, 4*AUDIO_OUT_BUFFER_SIZE);
??Audio_Play_Out_3:
        LDR.W    R0,??DataTable16_42
        LDRB     R0,[R0, #+0]
        CMP      R0,#+0
        BEQ.N    ??Audio_Play_Out_7
        LDR.W    R0,??DataTable16_20
        B.N      ??Audio_Play_Out_8
??Audio_Play_Out_7:
        LDR.W    R0,??DataTable16_22
??Audio_Play_Out_8:
        MOV      R1,#+4096
          CFI FunCall Audio_MAL_Play
        BL       Audio_MAL_Play
//  301 		/* set flag for switch buffer */
//  302         buffer_switch = BUF1_PLAY;
        MOVS     R0,#+0
        LDR.W    R1,??DataTable16_4
        STRB     R0,[R1, #+0]
//  303         
//  304         break;
        B.N      ??Audio_Play_Out_0
//  305       case BUF3_PLAY:
//  306         /* Play data from buffer1 */
//  307        Audio_MAL_Play(Command_index? (uint32_t)Buffer2.bufMIC1:(uint32_t)Buffer2.bufMIC2 ,4*AUDIO_OUT_BUFFER_SIZE);
??Audio_Play_Out_2:
        LDR.W    R0,??DataTable16_42
        LDRB     R0,[R0, #+0]
        CMP      R0,#+0
        BEQ.N    ??Audio_Play_Out_9
        LDR.W    R0,??DataTable16_28
        B.N      ??Audio_Play_Out_10
??Audio_Play_Out_9:
        LDR.W    R0,??DataTable16_30
??Audio_Play_Out_10:
        MOV      R1,#+4096
          CFI FunCall Audio_MAL_Play
        BL       Audio_MAL_Play
//  308         /* set flag for switch buffer */		  
//  309         buffer_switch = BUF2_PLAY;
        MOVS     R0,#+1
        LDR.W    R1,??DataTable16_4
        STRB     R0,[R1, #+0]
//  310 
//  311         break;
        B.N      ??Audio_Play_Out_0
//  312       default:
//  313         break;
//  314     }
//  315 			   
//  316   }
//  317 }
??Audio_Play_Out_4:
??Audio_Play_Out_0:
        POP      {R0,PC}          ;; return
          CFI EndBlock cfiBlock3
//  318 
//  319 
//  320 /* Private functions ---------------------------------------------------------*/
//  321 
//  322 /**
//  323   * @brief  Main program
//  324   * @param  None
//  325   * @retval None
//  326   */

        SECTION `.text`:CODE:NOROOT(1)
          CFI Block cfiBlock4 Using cfiCommon0
          CFI Function main
        THUMB
//  327 int main(void)
//  328 {
main:
        PUSH     {R7,LR}
          CFI R14 Frame(CFA, -4)
          CFI CFA R13+8
//  329   /* Enable the CPU Cache */
//  330   CPU_CACHE_Enable();
          CFI FunCall CPU_CACHE_Enable
        BL       CPU_CACHE_Enable
//  331   
//  332   /* STM32F7xx HAL library initialization:
//  333        - Configure the Flash ART accelerator on ITCM interface
//  334        - Configure the Systick to generate an interrupt each 1 msec
//  335        - Set NVIC Group Priority to 4
//  336        - Global MSP (MCU Support Package) initialization
//  337      */   
//  338   HAL_Init();
          CFI FunCall HAL_Init
        BL       HAL_Init
//  339   
//  340   /* Configure the system clock to 216 MHz */
//  341   //Test_SystemClock_Config(); 
//  342   SystemClock_Config();
          CFI FunCall SystemClock_Config
        BL       SystemClock_Config
//  343   BSP_AUDIO_OUT_ClockConfig(AUDIO_FREQ, NULL);
        MOVS     R1,#+0
        MOV      R0,#+16000
          CFI FunCall BSP_AUDIO_OUT_ClockConfig
        BL       BSP_AUDIO_OUT_ClockConfig
//  344   
//  345   /* Initialize the SDRAM */
//  346   BSP_SDRAM_Init();
          CFI FunCall BSP_SDRAM_Init
        BL       BSP_SDRAM_Init
//  347 
//  348 
//  349   BSP_LED_Init(LED1);
        MOVS     R0,#+0
          CFI FunCall BSP_LED_Init
        BL       BSP_LED_Init
//  350   BSP_LED_Init(LED2);
        MOVS     R0,#+1
          CFI FunCall BSP_LED_Init
        BL       BSP_LED_Init
//  351 
//  352   /* Button Initialization */
//  353   ButtonInit();
          CFI FunCall ButtonInit
        BL       ButtonInit
//  354   //BSP_PB_Init(BUTTON_KEY,BUTTON_MODE_EXTI);
//  355 
//  356   
//  357   /* Init TS module */
//  358   //BSP_TS_Init(BSP_LCD_GetXSize(), BSP_LCD_GetYSize());
//  359    DFT_Init();	
          CFI FunCall DFT_Init
        BL       DFT_Init
//  360 
//  361     /* ---------PA4: LCCKO-------------*/
//  362     __GPIOA_CLK_ENABLE();
        LDR.W    R0,??DataTable16_43  ;; 0x40023830
        LDR      R0,[R0, #+0]
        ORRS     R0,R0,#0x1
        LDR.W    R1,??DataTable16_43  ;; 0x40023830
        STR      R0,[R1, #+0]
        LDR.W    R0,??DataTable16_43  ;; 0x40023830
        LDR      R0,[R0, #+0]
        ANDS     R0,R0,#0x1
        STR      R0,[SP, #+0]
        LDR      R0,[SP, #+0]
//  363     GPIO_INS.Pin = GPIO_PIN_4;
        MOVS     R0,#+16
        LDR.W    R1,??DataTable16_44
        STR      R0,[R1, #+0]
//  364     GPIO_INS.Mode =GPIO_MODE_IT_RISING;
        LDR.W    R0,??DataTable16_45  ;; 0x10110000
        LDR.W    R1,??DataTable16_44
        STR      R0,[R1, #+4]
//  365     GPIO_INS.Pull =GPIO_NOPULL;
        MOVS     R0,#+0
        LDR.W    R1,??DataTable16_44
        STR      R0,[R1, #+8]
//  366     GPIO_INS.Speed =GPIO_SPEED_HIGH;
        MOVS     R0,#+3
        LDR.W    R1,??DataTable16_44
        STR      R0,[R1, #+12]
//  367     HAL_GPIO_Init(GPIOA,&GPIO_INS);
        LDR.W    R1,??DataTable16_44
        LDR.W    R0,??DataTable16_46  ;; 0x40020000
          CFI FunCall HAL_GPIO_Init
        BL       HAL_GPIO_Init
//  368 
//  369     /* Enable and set Button EXTI Interrupt to the lowest priority */
//  370     HAL_NVIC_SetPriority((IRQn_Type)EXTI4_IRQn, INTERRUPT_PRI_EXT_LRCK, 0);
        MOVS     R2,#+0
        MOVS     R1,#+6
        MOVS     R0,#+10
          CFI FunCall HAL_NVIC_SetPriority
        BL       HAL_NVIC_SetPriority
//  371     HAL_NVIC_EnableIRQ((IRQn_Type)EXTI4_IRQn);
        MOVS     R0,#+10
          CFI FunCall HAL_NVIC_EnableIRQ
        BL       HAL_NVIC_EnableIRQ
//  372     /*-----------------------*/
//  373 
//  374     /*---------PE3: POWER DOWN-----------------*/
//  375     __GPIOE_CLK_ENABLE();
        LDR.W    R0,??DataTable16_43  ;; 0x40023830
        LDR      R0,[R0, #+0]
        ORRS     R0,R0,#0x10
        LDR.W    R1,??DataTable16_43  ;; 0x40023830
        STR      R0,[R1, #+0]
        LDR.W    R0,??DataTable16_43  ;; 0x40023830
        LDR      R0,[R0, #+0]
        ANDS     R0,R0,#0x10
        STR      R0,[SP, #+0]
        LDR      R0,[SP, #+0]
//  376     GPIO_INS.Pin = GPIO_PIN_3;
        MOVS     R0,#+8
        LDR.W    R1,??DataTable16_44
        STR      R0,[R1, #+0]
//  377     GPIO_INS.Mode = GPIO_MODE_OUTPUT_PP;
        MOVS     R0,#+1
        LDR.W    R1,??DataTable16_44
        STR      R0,[R1, #+4]
//  378     GPIO_INS.Pull = GPIO_PULLUP;
        MOVS     R0,#+1
        LDR.W    R1,??DataTable16_44
        STR      R0,[R1, #+8]
//  379     GPIO_INS.Speed = GPIO_SPEED_HIGH;
        MOVS     R0,#+3
        LDR.W    R1,??DataTable16_44
        STR      R0,[R1, #+12]
//  380 
//  381     HAL_GPIO_Init(GPIOE, &GPIO_INS);
        LDR.W    R1,??DataTable16_44
        LDR.W    R0,??DataTable16_47  ;; 0x40021000
          CFI FunCall HAL_GPIO_Init
        BL       HAL_GPIO_Init
//  382   
//  383     HAL_GPIO_WritePin(GPIOE, GPIO_PIN_3, GPIO_PIN_RESET);
        MOVS     R2,#+0
        MOVS     R1,#+8
        LDR.W    R0,??DataTable16_47  ;; 0x40021000
          CFI FunCall HAL_GPIO_WritePin
        BL       HAL_GPIO_WritePin
//  384 
//  385     /*----------------------------------------*/
//  386 
//  387 #if (DEBUG)  
//  388 		/* UART for debug */
//  389 		USART3_Init();
//  390 #endif
//  391 
//  392 #if (USB_STREAMING)
//  393 						  
//  394 		/* Initialize USB descriptor basing on channels number and sampling frequency */
//  395 		USBD_AUDIO_Init_Microphone_Descriptor(&hUSBDDevice, AUDIO_SAMPLING_FREQUENCY, AUDIO_CHANNELS);
        MOVS     R2,#+2
        MOV      R1,#+16000
        LDR.W    R0,??DataTable16_48
          CFI FunCall USBD_AUDIO_Init_Microphone_Descriptor
        BL       USBD_AUDIO_Init_Microphone_Descriptor
//  396 		/* Init Device Library */
//  397 		USBD_Init(&hUSBDDevice, &AUDIO_Desc, 0);
        MOVS     R2,#+0
        LDR.W    R1,??DataTable16_49
        LDR.W    R0,??DataTable16_48
          CFI FunCall USBD_Init
        BL       USBD_Init
//  398 		/* Add Supported Class */
//  399 		USBD_RegisterClass(&hUSBDDevice, &USBD_AUDIO);
        LDR.W    R1,??DataTable16_50
        LDR.W    R0,??DataTable16_48
          CFI FunCall USBD_RegisterClass
        BL       USBD_RegisterClass
//  400 		/* Add Interface callbacks for AUDIO Class */  
//  401 		USBD_AUDIO_RegisterInterface(&hUSBDDevice, &USBD_AUDIO_fops);
        LDR.W    R1,??DataTable16_51
        LDR.W    R0,??DataTable16_48
          CFI FunCall USBD_AUDIO_RegisterInterface
        BL       USBD_AUDIO_RegisterInterface
//  402 		/* Start Device Process */
//  403 		USBD_Start(&hUSBDDevice);
        LDR.W    R0,??DataTable16_48
          CFI FunCall USBD_Start
        BL       USBD_Start
//  404 	  
//  405 	  
//  406 		/* Init Host Library */
//  407 		//test GIT //USBH_Init(&hUSBHost, USBH_UserProcess, 0);
//  408 	  
//  409 		/* Add Supported Class */
//  410 		//test GIT //USBH_RegisterClass(&hUSBHost, USBH_MSC_CLASS);
//  411 		
//  412 		/* Start Host Process */
//  413 		//test GIT //USBH_Start(&hUSBHost);
//  414 						  
//  415 #endif 
//  416 
//  417 
//  418     /*----------------------------------------*/
//  419     MX_I2C2_Init(); //for STA321MP
          CFI FunCall MX_I2C2_Init
        BL       MX_I2C2_Init
//  420     STA321MP_Ini();
          CFI FunCall STA321MP_Ini
        BL       STA321MP_Ini
//  421 	BSP_LED_Toggle(LED1);
        MOVS     R0,#+0
          CFI FunCall BSP_LED_Toggle
        BL       BSP_LED_Toggle
//  422     /* Init Audio Application */
//  423     AUDIO_InitApplication();
          CFI FunCall AUDIO_InitApplication
        BL       AUDIO_InitApplication
//  424 	BSP_LED_Toggle(LED2);
        MOVS     R0,#+1
          CFI FunCall BSP_LED_Toggle
        BL       BSP_LED_Toggle
//  425    
//  426 
//  427 	
//  428 	buffer_switch = BUF3_PLAY;		 /* record data to buffer1 */
        MOVS     R0,#+2
        LDR.W    R1,??DataTable16_4
        STRB     R0,[R1, #+0]
//  429 	MIC1TO6_Init();
          CFI FunCall MIC1TO6_Init
        BL       MIC1TO6_Init
//  430 	                  
//  431 					  
//  432 
//  433 
//  434 	while (1)
//  435     {
//  436 		/* there is data in the buffer */  
//  437 		if((WaveRec_idxSens1>=(2*AUDIO_OUT_BUFFER_SIZE-1))&&(stFrstFrmStore<3))
??main_0:
        LDR.W    R0,??DataTable16_34
        LDRH     R0,[R0, #+0]
        MOVW     R1,#+2047
        CMP      R0,R1
        BLT.N    ??main_1
        LDR.W    R0,??DataTable16_52
        LDRB     R0,[R0, #+0]
        CMP      R0,#+3
        BGE.N    ??main_1
//  438 		{
//  439 			/* this is just run 1 time after 1st frame of I2S data full */
//  440 			if ((stFrstFrmStore<3))
        LDR.W    R0,??DataTable16_52
        LDRB     R0,[R0, #+0]
        CMP      R0,#+3
        BGE.N    ??main_1
//  441 			{
//  442 				stFrstFrmStore++;
        LDR.W    R0,??DataTable16_52
        LDRB     R0,[R0, #+0]
        ADDS     R0,R0,#+1
        LDR.W    R1,??DataTable16_52
        STRB     R0,[R1, #+0]
//  443 				buffer_switch = BUF2_PLAY; /* record data to buffer3 */
        MOVS     R0,#+1
        LDR.W    R1,??DataTable16_4
        STRB     R0,[R1, #+0]
//  444 				if (stFrstFrmStore==2)
        LDR.W    R0,??DataTable16_52
        LDRB     R0,[R0, #+0]
        CMP      R0,#+2
        BNE.N    ??main_1
//  445 				{
//  446 					
//  447 					/*------------------------PLAYER------------------------------------------*/
//  448 					Audio_MAL_Play((uint32_t)Buffer1.bufMIC1,4*AUDIO_OUT_BUFFER_SIZE);
        MOV      R1,#+4096
        LDR.W    R0,??DataTable16_20
          CFI FunCall Audio_MAL_Play
        BL       Audio_MAL_Play
//  449 					/*------------------------------------------------------------------------*/
//  450 					buffer_switch = BUF1_PLAY;
        MOVS     R0,#+0
        LDR.W    R1,??DataTable16_4
        STRB     R0,[R1, #+0]
//  451 					flgDlyUpd = 0;
        MOVS     R0,#+0
        LDR.W    R1,??DataTable16_2
        STRB     R0,[R1, #+0]
//  452 				}
//  453 			
//  454 			}
//  455 		
//  456 		}
//  457 
//  458 
//  459          if (cntStrt==5)
??main_1:
        LDR.W    R0,??DataTable16_53
        LDRH     R0,[R0, #+0]
        CMP      R0,#+5
        BNE.N    ??main_2
//  460 		 {
//  461 			   if ((WaveRecord_flgIni<200))
        LDR.W    R0,??DataTable16_54
        LDRB     R0,[R0, #+0]
        CMP      R0,#+200
        BGE.N    ??main_3
//  462 			   {
//  463 				  for(char i=0;i<16;i++)
        MOVS     R0,#+0
??main_4:
        UXTB     R0,R0            ;; ZeroExt  R0,R0,#+24,#+24
        CMP      R0,#+16
        BGE.N    ??main_2
//  464 				  {
//  465 					  //if (ValBit(SPI1_stNipple,i)!=0) 
//  466 					  //{
//  467 					//	 I2S1_stPosShft = 0;//MAX(I2S1_stPosShft,i+1);
//  468 					 // }
//  469 
//  470 					  //if (ValBit(I2S2_stNipple,i)!=0) 
//  471 		              //{
//  472 		              //   I2S2_stPosShft = 0;//MAX(I2S2_stPosShft,i+1);
//  473 		              //}
//  474 
//  475 					  if (ValBit(I2S1_stNipple,i)!=0) 
        LDR.W    R1,??DataTable16_55
        LDRSH    R1,[R1, #+0]
        ASRS     R1,R1,R0
        LSLS     R1,R1,#+31
        BPL.N    ??main_5
//  476 					 {
//  477 						 SPI4_stPosShft = MAX(SPI4_stPosShft,i+1);
        UXTB     R0,R0            ;; ZeroExt  R0,R0,#+24,#+24
        ADDS     R1,R0,#+1
        LDR.W    R2,??DataTable16_56
        LDRB     R2,[R2, #+0]
        CMP      R1,R2
        BGE.N    ??main_6
        LDR.W    R1,??DataTable16_56
        LDRB     R1,[R1, #+0]
        B.N      ??main_7
??main_6:
        ADDS     R1,R0,#+1
??main_7:
        LDR.W    R2,??DataTable16_56
        STRB     R1,[R2, #+0]
//  478 					 }
//  479 				  }
??main_5:
        ADDS     R0,R0,#+1
        B.N      ??main_4
//  480 					
//  481 			   }
//  482 		       else if (WaveRecord_flgIni<255)
??main_3:
        LDR.W    R0,??DataTable16_54
        LDRB     R0,[R0, #+0]
        CMP      R0,#+255
        BEQ.N    ??main_2
//  483 		       {
//  484 		           WaveRecord_flgIni++;
        LDR.W    R0,??DataTable16_54
        LDRB     R0,[R0, #+0]
        ADDS     R0,R0,#+1
        LDR.W    R1,??DataTable16_54
        STRB     R0,[R1, #+0]
//  485 		       }
//  486 			   else
//  487 			   {
//  488 
//  489 			   }
//  490 					   
//  491 		 }
//  492 	
//  493 
//  494 		if (cntStrt==6)
??main_2:
        LDR.W    R0,??DataTable16_53
        LDRH     R0,[R0, #+0]
        CMP      R0,#+6
        BNE.N    ??main_8
//  495 		{
//  496 					  if ((WaveRecord_flgIni<200))
        LDR.W    R0,??DataTable16_54
        LDRB     R0,[R0, #+0]
        CMP      R0,#+200
        BGE.N    ??main_8
//  497 					  {
//  498 						 for(char i=0;i<16;i++)
        MOVS     R0,#+0
??main_9:
        UXTB     R0,R0            ;; ZeroExt  R0,R0,#+24,#+24
        CMP      R0,#+16
        BGE.N    ??main_8
        ADDS     R0,R0,#+1
        B.N      ??main_9
//  499 						 {
//  500 
//  501 						 }
//  502 						   
//  503 					  }
//  504 		}
//  505 		else
//  506 		{
//  507 					 
//  508 		} 
//  509 
//  510 		/* USB Host Background task */
//  511 		//USBH_Process(&hUSBHost);
//  512 
//  513 		/* AUDIO Menu Process */
//  514 		//AUDIO_MenuProcess();
//  515 		FFT_Update(); 
??main_8:
          CFI FunCall FFT_Update
        BL       FFT_Update
//  516 
//  517 		if (flg10ms==1)
        LDR.W    R0,??DataTable16_57
        LDRB     R0,[R0, #+0]
        CMP      R0,#+1
        BNE.N    ??main_0
//  518 		{
//  519 		    flg10ms=0;		   		      
        MOVS     R0,#+0
        LDR.W    R1,??DataTable16_57
        STRB     R0,[R1, #+0]
//  520 	         cntTime200++;
        LDR.W    R0,??DataTable16_58
        LDRH     R0,[R0, #+0]
        ADDS     R0,R0,#+1
        LDR.W    R1,??DataTable16_58
        STRH     R0,[R1, #+0]
//  521 	         if (cntTime200==40)
        LDR.W    R0,??DataTable16_58
        LDRH     R0,[R0, #+0]
        CMP      R0,#+40
        BNE.W    ??main_0
//  522 	          {
//  523 	 
//  524 #if (DEBUG)
//  525 
//  526                     //if ((idxLatency14!=0)||(idxLatency25!=0)||(idxLatency36!=0))
//  527                     {
//  528                         int16_t test[5];
//  529                         static uint8_t flagNotMin;
//  530                         test[0] = 0;
//  531                         test[1]= idxLatency63;
//  532                         test[2]= idxLatency14;
//  533                         test[3]= idxLatency25;
//  534 						test[4]= idxLatency78;
//  535 
//  536 
//  537                         if (EnergySound<2)
//  538                         {
//  539                                 //sprintf((char *)pUARTBuf,"No Speech:%d  \r\n",EnergySound);
//  540                                 //HAL_UART_Transmit_IT(&huart3,pUARTBuf,30); 
//  541                         }
//  542                         else
//  543                         {
//  544                              sprintf((char *)pUARTBuf,"%d:%d:%d:%d ",idxLatency63,idxLatency14,idxLatency25,idxLatency78);
//  545 							 flagNotMin=0 ;
//  546 
//  547 							if (test[3]>0)
//  548 							{
//  549 							   if((test[1]<=0)&&(test[4]<=0))
//  550 							   {
//  551 								flagNotMin=1 ;
//  552 								sprintf((char *)(pUARTBuf+15),"Close Mic 2\r\n");
//  553 							   }
//  554 							}
//  555 							else if (test[3]<-2)
//  556 							{
//  557 							    if((test[1]>1)&&(test[4]>1))
//  558 							    {
//  559 									flagNotMin=1 ;
//  560 									sprintf((char *)(pUARTBuf+15),"Clsoe Mic 5\r\n");
//  561 							    }
//  562 
//  563 							}
//  564 							else
//  565 							{
//  566 									}	
//  567 
//  568 							
//  569 
//  570 							if (test[2]>2)
//  571                       	    {
//  572                       	       if((test[1]>=-1)&&(test[3]<=-3))
//  573                       	       {
//  574 								 flagNotMin=1 ;
//  575 								 sprintf((char *)(pUARTBuf+15),"Clsoe Mic 4\r\n");
//  576                       	       }
//  577                       	    }
//  578 							else if (test[2]<=-1)
//  579 							{
//  580 							   if((test[1]<=-2)&&(test[3]>=0))
//  581                       	       {
//  582 								 flagNotMin=1 ;
//  583 								 sprintf((char *)(pUARTBuf+15),"Clsoe Mic 1\r\n");
//  584 							   }
//  585 							}
//  586 							else
//  587 							{
//  588 
//  589 							}
//  590 
//  591 						   
//  592                             if (test[1]>=0)
//  593                       	    {
//  594                       	       if((test[2]>1)&&(test[4]<= 0))
//  595                       	       {
//  596 								 flagNotMin=1 ;
//  597 								 sprintf((char *)(pUARTBuf+15),"Clsoe Mic 3\r\n");
//  598                       	       }
//  599 
//  600                       	    }
//  601 							else if (test[1]<=-3)
//  602 							{
//  603 							   if((test[2]<=0)&&(test[4]>=2))
//  604                       	       {
//  605 								 flagNotMin=1 ;
//  606 								 sprintf((char *)(pUARTBuf+15),"Clsoe Mic 6\r\n");
//  607 							   }
//  608 
//  609 							}
//  610 							else
//  611 							{
//  612 
//  613 							}
//  614 
//  615 
//  616 							if ((test[4]<=-1))
//  617 							{
//  618 
//  619                                 if ((test[1]>=-1)&&(test[3]>-0))
//  620                                 {
//  621 									sprintf((char *)(pUARTBuf+15),"Clsoe Mic 7\r\n");
//  622 									flagNotMin=1 ;
//  623 
//  624                                	}
//  625 
//  626 								;
//  627 							}
//  628 							else if (test[4]>=3)
//  629 							{
//  630 							    if ((test[1]<-1)&&(test[3]<-2))
//  631 							   {
//  632 								sprintf((char *)(pUARTBuf+15),"Clsoe Mic 8\r\n");
//  633 								flagNotMin=1 ;
//  634 							   }
//  635 
//  636 							}
//  637 							else
//  638 							{
//  639 
//  640 							}
//  641 
//  642 
//  643 							if (flagNotMin==0) sprintf((char *)(pUARTBuf+15),"----------- \r\n");
//  644 									
//  645            
//  646                           //HAL_UART_Transmit_IT(&huart3,pUARTBuf,15);
//  647                           SrvB_Debound(&flgS2Ins,&flgS2Flt, flgS2,2);
//  648                           SrvB_Debound(&flgS3Ins,&flgS3Flt, flgS3,2);
//  649                           SrvB_Debound(&flgS4Ins,&flgS4Flt, flgS4,2);
//  650 
//  651                           stDir = (flgS2Flt<<2)|(flgS3Flt<<1)|(flgS4Flt); 
//  652                            switch (8)
//  653                            {
//  654                                case 0:
//  655                                         sprintf((char *)(pUARTBuf+15),"Direction 0 \r\n");
//  656                                                  
//  657                                     break;
//  658                                case 1:
//  659                                         sprintf((char *)(pUARTBuf+15),"Direction 1 \r\n");
//  660                                         
//  661                                     break;
//  662                                case 2:
//  663                                         sprintf((char *)(pUARTBuf+15),"Direction 2 \r\n");
//  664                                          
//  665                                     break;
//  666                                         
//  667                                case 3:
//  668                                         sprintf((char *)(pUARTBuf+15),"Direction 3 \r\n");
//  669                                  
//  670                                     break;
//  671                                case 4:
//  672                                         sprintf((char *)(pUARTBuf+15),"Direction 4 \r\n");
//  673                                                  
//  674                                     break;
//  675                                 case 5:
//  676                                         sprintf((char *)(pUARTBuf+15),"Direction 5 \r\n");
//  677                                          
//  678                                     break;
//  679                                 case 6:
//  680                                         sprintf((char *)(pUARTBuf+15),"Direction 6 \r\n");
//  681                                  
//  682                                     break;
//  683                                 case 7:
//  684                                         sprintf((char *)(pUARTBuf+15),"Direction 7 \r\n");
//  685                                          
//  686                                     break;
//  687                                  default:
//  688                                     break;
//  689                            }
//  690 
//  691                            HAL_UART_Transmit_IT(&huart3,pUARTBuf,15+15);		
//  692                          }
//  693                     }
//  694 
//  695 #endif
//  696 	   	            cntTime200=0;
        MOVS     R0,#+0
        LDR.W    R1,??DataTable16_58
        STRH     R0,[R1, #+0]
        B.N      ??main_0
//  697                          }
//  698 
//  699 
//  700                     }
//  701 
//  702 
//  703 	
//  704   }
//  705   
//  706 }
          CFI EndBlock cfiBlock4
//  707 
//  708 /**
//  709   * @brief  Toggle Leds.
//  710   * @param  None
//  711   * @retval None
//  712   */

        SECTION `.text`:CODE:NOROOT(1)
          CFI Block cfiBlock5 Using cfiCommon0
          CFI Function Toggle_Leds
          CFI NoCalls
        THUMB
//  713 void Toggle_Leds(void)
//  714 {
//  715   static uint32_t ticks = 0;
//  716 
//  717   if (ticks++ > 200)
Toggle_Leds:
        LDR.W    R0,??DataTable16_59
        LDR      R0,[R0, #+0]
        ADDS     R1,R0,#+1
        LDR.W    R2,??DataTable16_59
        STR      R1,[R2, #+0]
        CMP      R0,#+201
        BCC.N    ??Toggle_Leds_0
//  718   {
//  719     //BSP_LED_Toggle(LED1);
//  720     ticks = 0;
        MOVS     R0,#+0
        LDR.W    R1,??DataTable16_59
        STR      R0,[R1, #+0]
//  721   }
//  722 }
??Toggle_Leds_0:
        BX       LR               ;; return
          CFI EndBlock cfiBlock5

        SECTION `.bss`:DATA:REORDER:NOROOT(2)
        DATA
??ticks:
        DS8 4
//  723 
//  724 
//  725 /**
//  726   * @brief  User Process
//  727   * @param  phost: Host Handle
//  728   * @param  id: Host Library user message ID
//  729   * @retval None
//  730   */
//  731 static void USBH_UserProcess(USBH_HandleTypeDef *phost, uint8_t id)
//  732 {
//  733   switch(id)
//  734   { 
//  735   case HOST_USER_SELECT_CONFIGURATION:
//  736     break;
//  737     
//  738   case HOST_USER_DISCONNECTION:
//  739     appli_state = APPLICATION_DISCONNECT;
//  740     break;
//  741 
//  742   case HOST_USER_CLASS_ACTIVE:
//  743     appli_state = APPLICATION_READY;
//  744     break;
//  745  
//  746   case HOST_USER_CONNECTION:
//  747     appli_state = APPLICATION_START;
//  748     break;
//  749    
//  750   default:
//  751     break; 
//  752   }
//  753 }
//  754 
//  755 /**
//  756   * @brief  System Clock Configuration
//  757   *         The system Clock is configured as follow : 
//  758   *            System Clock source            = PLL (HSE)
//  759   *            SYSCLK(Hz)                     = 216000000
//  760   *            HCLK(Hz)                       = 216000000
//  761   *            AHB Prescaler                  = 1
//  762   *            APB1 Prescaler                 = 4
//  763   *            APB2 Prescaler                 = 2
//  764   *            HSE Frequency(Hz)              = 25000000
//  765   *            PLL_M                          = 25
//  766   *            PLL_N                          = 432
//  767   *            PLL_P                          = 2
//  768   *            PLL_Q                          = 9
//  769   *            VDD(V)                         = 3.3
//  770   *            Main regulator output voltage  = Scale1 mode
//  771   *            Flash Latency(WS)              = 7
//  772   * @param  None
//  773   * @retval None
//  774   */

        SECTION `.text`:CODE:NOROOT(1)
          CFI Block cfiBlock6 Using cfiCommon0
          CFI Function SystemClock_Config
        THUMB
//  775 static void SystemClock_Config(void)
//  776 {
SystemClock_Config:
        PUSH     {R4,LR}
          CFI R14 Frame(CFA, -4)
          CFI R4 Frame(CFA, -8)
          CFI CFA R13+8
        SUB      SP,SP,#+200
          CFI CFA R13+208
//  777   RCC_ClkInitTypeDef RCC_ClkInitStruct;
//  778   RCC_OscInitTypeDef RCC_OscInitStruct;
//  779   RCC_PeriphCLKInitTypeDef PeriphClkInitStruct;
//  780   HAL_StatusTypeDef ret = HAL_OK;
        MOVS     R4,#+0
//  781 
//  782   /* Enable HSE Oscillator and activate PLL with HSE as source */
//  783   RCC_OscInitStruct.OscillatorType = RCC_OSCILLATORTYPE_HSE;
        MOVS     R0,#+1
        STR      R0,[SP, #+152]
//  784   RCC_OscInitStruct.HSEState = RCC_HSE_ON;
        MOVS     R0,#+65536
        STR      R0,[SP, #+156]
//  785   RCC_OscInitStruct.PLL.PLLState = RCC_PLL_ON;
        MOVS     R0,#+2
        STR      R0,[SP, #+176]
//  786   RCC_OscInitStruct.PLL.PLLSource = RCC_PLLSOURCE_HSE;
        MOVS     R0,#+4194304
        STR      R0,[SP, #+180]
//  787   RCC_OscInitStruct.PLL.PLLM = 25;
        MOVS     R0,#+25
        STR      R0,[SP, #+184]
//  788   RCC_OscInitStruct.PLL.PLLN = 432;  
        MOV      R0,#+432
        STR      R0,[SP, #+188]
//  789   RCC_OscInitStruct.PLL.PLLP = RCC_PLLP_DIV2;
        MOVS     R0,#+2
        STR      R0,[SP, #+192]
//  790   RCC_OscInitStruct.PLL.PLLQ = 9;
        MOVS     R0,#+9
        STR      R0,[SP, #+196]
//  791 
//  792   ret = HAL_RCC_OscConfig(&RCC_OscInitStruct);
        ADD      R0,SP,#+152
          CFI FunCall HAL_RCC_OscConfig
        BL       HAL_RCC_OscConfig
        MOVS     R4,R0
//  793   if(ret != HAL_OK)
//  794   {
//  795     //while(1) { ; }
//  796   }
//  797 
//  798   /* Activate the OverDrive to reach the 216 MHz Frequency */
//  799   ret = HAL_PWREx_EnableOverDrive();
          CFI FunCall HAL_PWREx_EnableOverDrive
        BL       HAL_PWREx_EnableOverDrive
        MOVS     R4,R0
//  800   if(ret != HAL_OK)
//  801   {
//  802     //while(1) { ; }
//  803   }
//  804 
//  805   /* Select PLLSAI output as USB clock source */
//  806   PeriphClkInitStruct.PeriphClockSelection = RCC_PERIPHCLK_CLK48 ;
        MOVS     R0,#+2097152
        STR      R0,[SP, #+20]
//  807   PeriphClkInitStruct.Clk48ClockSelection = RCC_CLK48SOURCE_PLLSAIP;
        MOVS     R0,#+134217728
        STR      R0,[SP, #+144]
//  808 
//  809   
//  810   PeriphClkInitStruct.PLLSAI.PLLSAIN = 192;
        MOVS     R0,#+192
        STR      R0,[SP, #+40]
//  811   PeriphClkInitStruct.PLLSAI.PLLSAIQ = 4; 
        MOVS     R0,#+4
        STR      R0,[SP, #+44]
//  812   PeriphClkInitStruct.PLLSAI.PLLSAIP = RCC_PLLSAIP_DIV4;
        MOVS     R0,#+1
        STR      R0,[SP, #+52]
//  813   PeriphClkInitStruct.PLLSAI.PLLSAIR = 2;
        MOVS     R0,#+2
        STR      R0,[SP, #+48]
//  814 
//  815 
//  816   ret = HAL_RCCEx_PeriphCLKConfig(&PeriphClkInitStruct);
        ADD      R0,SP,#+20
          CFI FunCall HAL_RCCEx_PeriphCLKConfig
        BL       HAL_RCCEx_PeriphCLKConfig
        MOVS     R4,R0
//  817   
//  818   if(ret != HAL_OK)
//  819   {
//  820     //while(1) { ; }
//  821   }
//  822   
//  823   /* Select PLL as system clock source and configure the HCLK, PCLK1 and PCLK2 clocks dividers */
//  824   RCC_ClkInitStruct.ClockType = (RCC_CLOCKTYPE_SYSCLK | RCC_CLOCKTYPE_HCLK | RCC_CLOCKTYPE_PCLK1 | RCC_CLOCKTYPE_PCLK2);
        MOVS     R0,#+15
        STR      R0,[SP, #+0]
//  825   RCC_ClkInitStruct.SYSCLKSource = RCC_SYSCLKSOURCE_PLLCLK;
        MOVS     R0,#+2
        STR      R0,[SP, #+4]
//  826   RCC_ClkInitStruct.AHBCLKDivider = RCC_SYSCLK_DIV2;
        MOVS     R0,#+128
        STR      R0,[SP, #+8]
//  827   RCC_ClkInitStruct.APB1CLKDivider = RCC_HCLK_DIV4;  
        MOV      R0,#+5120
        STR      R0,[SP, #+12]
//  828   RCC_ClkInitStruct.APB2CLKDivider = RCC_HCLK_DIV2;
        MOV      R0,#+4096
        STR      R0,[SP, #+16]
//  829 
//  830   ret = HAL_RCC_ClockConfig(&RCC_ClkInitStruct, FLASH_LATENCY_7);
        MOVS     R1,#+7
        MOV      R0,SP
          CFI FunCall HAL_RCC_ClockConfig
        BL       HAL_RCC_ClockConfig
        MOVS     R4,R0
//  831   if(ret != HAL_OK)
//  832   {
//  833     //while(1) { ; }
//  834   }
//  835   
//  836  //sop1hc 344/7 = 49.142 MHz
//  837   PeriphClkInitStruct.PeriphClockSelection = RCC_PERIPHCLK_SAI2|RCC_PERIPHCLK_I2S;
        LDR.W    R0,??DataTable16_60  ;; 0x100001
        STR      R0,[SP, #+20]
//  838   PeriphClkInitStruct.Sai2ClockSelection = RCC_SAI2CLKSOURCE_PLLI2S;
        MOVS     R0,#+4194304
        STR      R0,[SP, #+84]
//  839   PeriphClkInitStruct.I2sClockSelection = RCC_I2SCLKSOURCE_PLLI2S;
        MOVS     R0,#+0
        STR      R0,[SP, #+72]
//  840   PeriphClkInitStruct.PLLI2S.PLLI2SP = 8;
        MOVS     R0,#+8
        STR      R0,[SP, #+36]
//  841   PeriphClkInitStruct.PLLI2S.PLLI2SN = 344;//244
        MOV      R0,#+344
        STR      R0,[SP, #+24]
//  842   PeriphClkInitStruct.PLLI2S.PLLI2SQ = 7;
        MOVS     R0,#+7
        STR      R0,[SP, #+32]
//  843   PeriphClkInitStruct.PLLI2S.PLLI2SR = 7;
        MOVS     R0,#+7
        STR      R0,[SP, #+28]
//  844   PeriphClkInitStruct.PLLI2SDivQ = 1;
        MOVS     R0,#+1
        STR      R0,[SP, #+56]
//  845   HAL_RCCEx_PeriphCLKConfig(&PeriphClkInitStruct);	
        ADD      R0,SP,#+20
          CFI FunCall HAL_RCCEx_PeriphCLKConfig
        BL       HAL_RCCEx_PeriphCLKConfig
//  846 }
        ADD      SP,SP,#+200
          CFI CFA R13+8
        POP      {R4,PC}          ;; return
          CFI EndBlock cfiBlock6
//  847 
//  848 /**
//  849   * @brief  Clock Config.
//  850   * @param  hsai: might be required to set audio peripheral predivider if any.
//  851   * @param  AudioFreq: Audio frequency used to play the audio stream.
//  852   * @note   This API is called by BSP_AUDIO_OUT_Init() and BSP_AUDIO_OUT_SetFrequency()
//  853   *         Being __weak it can be overwritten by the application     
//  854   * @retval None
//  855   */

        SECTION `.text`:CODE:NOROOT(1)
          CFI Block cfiBlock7 Using cfiCommon0
          CFI Function BSP_AUDIO_OUT_ClockConfig
        THUMB
//  856 void BSP_AUDIO_OUT_ClockConfig(uint32_t AudioFreq, void *Params)
//  857 {
BSP_AUDIO_OUT_ClockConfig:
        PUSH     {R4,R5,LR}
          CFI R14 Frame(CFA, -4)
          CFI R5 Frame(CFA, -8)
          CFI R4 Frame(CFA, -12)
          CFI CFA R13+12
        SUB      SP,SP,#+132
          CFI CFA R13+144
        MOVS     R4,R0
        MOVS     R5,R1
//  858   RCC_PeriphCLKInitTypeDef RCC_ExCLKInitStruct;
//  859 
//  860   HAL_RCCEx_GetPeriphCLKConfig(&RCC_ExCLKInitStruct);
        MOV      R0,SP
          CFI FunCall HAL_RCCEx_GetPeriphCLKConfig
        BL       HAL_RCCEx_GetPeriphCLKConfig
//  861   
//  862   /* Set the PLL configuration according to the audio frequency */
//  863   if((AudioFreq == AUDIO_FREQUENCY_11K) || (AudioFreq == AUDIO_FREQUENCY_22K) || (AudioFreq == AUDIO_FREQUENCY_44K))
        MOVW     R0,#+11025
        CMP      R4,R0
        BEQ.N    ??BSP_AUDIO_OUT_ClockConfig_0
        MOVW     R0,#+22050
        CMP      R4,R0
        BEQ.N    ??BSP_AUDIO_OUT_ClockConfig_0
        MOVW     R0,#+44100
        CMP      R4,R0
        BNE.N    ??BSP_AUDIO_OUT_ClockConfig_1
//  864   {
//  865     /* Configure PLLSAI prescalers */
//  866     /* PLLI2S_VCO: VCO_429M
//  867     SAI_CLK(first level) = PLLI2S_VCO/PLLSAIQ = 429/2 = 214.5 Mhz
//  868     SAI_CLK_x = SAI_CLK(first level)/PLLI2SDivQ = 214.5/19 = 11.289 Mhz */
//  869     RCC_ExCLKInitStruct.PeriphClockSelection = RCC_PERIPHCLK_SAI2;
??BSP_AUDIO_OUT_ClockConfig_0:
        MOVS     R0,#+1048576
        STR      R0,[SP, #+0]
//  870     RCC_ExCLKInitStruct.Sai2ClockSelection = RCC_SAI2CLKSOURCE_PLLI2S;
        MOVS     R0,#+4194304
        STR      R0,[SP, #+64]
//  871     RCC_ExCLKInitStruct.PLLI2S.PLLI2SP = 8;
        MOVS     R0,#+8
        STR      R0,[SP, #+16]
//  872     RCC_ExCLKInitStruct.PLLI2S.PLLI2SN = 429;
        MOVW     R0,#+429
        STR      R0,[SP, #+4]
//  873     RCC_ExCLKInitStruct.PLLI2S.PLLI2SQ = 2;
        MOVS     R0,#+2
        STR      R0,[SP, #+12]
//  874     RCC_ExCLKInitStruct.PLLI2SDivQ = 19;
        MOVS     R0,#+19
        STR      R0,[SP, #+36]
//  875     HAL_RCCEx_PeriphCLKConfig(&RCC_ExCLKInitStruct);
        MOV      R0,SP
          CFI FunCall HAL_RCCEx_PeriphCLKConfig
        BL       HAL_RCCEx_PeriphCLKConfig
        B.N      ??BSP_AUDIO_OUT_ClockConfig_2
//  876   }
//  877   else /* AUDIO_FREQUENCY_8K, AUDIO_FREQUENCY_16K, AUDIO_FREQUENCY_48K), AUDIO_FREQUENCY_96K */
//  878   {
//  879     /* SAI clock config
//  880     PLLI2S_VCO: VCO_344M
//  881     SAI_CLK(first level) = PLLI2S_VCO/PLLSAIQ = 344/7 = 49.142 Mhz
//  882     SAI_CLK_x = SAI_CLK(first level)/PLLI2SDivQ = 49.142/1 = 49.142 Mhz */
//  883     RCC_ExCLKInitStruct.PeriphClockSelection = RCC_PERIPHCLK_SAI2;
??BSP_AUDIO_OUT_ClockConfig_1:
        MOVS     R0,#+1048576
        STR      R0,[SP, #+0]
//  884     RCC_ExCLKInitStruct.Sai2ClockSelection = RCC_SAI2CLKSOURCE_PLLI2S;
        MOVS     R0,#+4194304
        STR      R0,[SP, #+64]
//  885 	//RCC_ExCLKInitStruct.I2sClockSelection = RCC_I2SCLKSOURCE_PLLI2S;
//  886 //    RCC_ExCLKInitStruct.PLLI2S.PLLI2SP = 8;
//  887     RCC_ExCLKInitStruct.PLLI2S.PLLI2SN = 344;//244
        MOV      R0,#+344
        STR      R0,[SP, #+4]
//  888     RCC_ExCLKInitStruct.PLLI2S.PLLI2SQ = 7;
        MOVS     R0,#+7
        STR      R0,[SP, #+12]
//  889 	//RCC_ExCLKInitStruct.PLLI2S.PLLI2SR = 1;
//  890     RCC_ExCLKInitStruct.PLLI2SDivQ = 1;
        MOVS     R0,#+1
        STR      R0,[SP, #+36]
//  891     HAL_RCCEx_PeriphCLKConfig(&RCC_ExCLKInitStruct);
        MOV      R0,SP
          CFI FunCall HAL_RCCEx_PeriphCLKConfig
        BL       HAL_RCCEx_PeriphCLKConfig
//  892   }
//  893   
//  894 }
??BSP_AUDIO_OUT_ClockConfig_2:
        ADD      SP,SP,#+132
          CFI CFA R13+12
        POP      {R4,R5,PC}       ;; return
          CFI EndBlock cfiBlock7
//  895 
//  896 
//  897 
//  898 #ifdef  USE_FULL_ASSERT
//  899 /**
//  900   * @brief  Reports the name of the source file and the source line number
//  901   *         where the assert_param error has occurred.
//  902   * @param  file: pointer to the source file name
//  903   * @param  line: assert_param error line source number
//  904   * @retval None
//  905   */
//  906 void assert_failed(uint8_t* file, uint32_t line)
//  907 { 
//  908   /* User can add his own implementation to report the file name and line number,
//  909      ex: printf("Wrong parameters value: file %s on line %d\r\n", file, line) */
//  910 
//  911   /* Infinite loop */
//  912   while (1)
//  913   {
//  914   }
//  915 }
//  916 #endif
//  917 
//  918 /**
//  919   * @brief  CPU L1-Cache enable.
//  920   * @param  None
//  921   * @retval None
//  922   */

        SECTION `.text`:CODE:NOROOT(1)
          CFI Block cfiBlock8 Using cfiCommon0
          CFI Function CPU_CACHE_Enable
        THUMB
//  923 static void CPU_CACHE_Enable(void)
//  924 {
CPU_CACHE_Enable:
        PUSH     {R7,LR}
          CFI R14 Frame(CFA, -4)
          CFI CFA R13+8
//  925   /* Enable I-Cache */
//  926   SCB_EnableICache();
          CFI FunCall SCB_EnableICache
        BL       SCB_EnableICache
//  927 
//  928   /* Enable D-Cache */
//  929   SCB_EnableDCache();
          CFI FunCall SCB_EnableDCache
        BL       SCB_EnableDCache
//  930 }
        POP      {R0,PC}          ;; return
          CFI EndBlock cfiBlock8
//  931 
//  932 

        SECTION `.text`:CODE:NOROOT(1)
          CFI Block cfiBlock9 Using cfiCommon0
          CFI Function HAL_I2C_MspInit
        THUMB
//  933 void HAL_I2C_MspInit(I2C_HandleTypeDef* hi2c)
//  934 {
HAL_I2C_MspInit:
        PUSH     {R4,LR}
          CFI R14 Frame(CFA, -4)
          CFI R4 Frame(CFA, -8)
          CFI CFA R13+8
        SUB      SP,SP,#+24
          CFI CFA R13+32
        MOVS     R4,R0
//  935 
//  936   GPIO_InitTypeDef GPIO_InitStruct;
//  937     
//  938   if(hi2c->Instance==I2C1)
        LDR      R0,[R4, #+0]
        LDR.W    R1,??DataTable16_61  ;; 0x40005400
        CMP      R0,R1
        BNE.N    ??HAL_I2C_MspInit_0
//  939   {
//  940 	/* USER CODE BEGIN I2C1_MspInit 0 */
//  941 
//  942 	/*##-1- Configure the I2C clock source. The clock is derived from the SYSCLK #*/
//  943 	//RCC_PeriphCLKInitStruct.PeriphClockSelection = RCC_PERIPHCLK_I2C1;
//  944 	//RCC_PeriphCLKInitStruct.I2c1ClockSelection = RCC_I2C1CLKSOURCE_PCLK1;
//  945 	//HAL_RCCEx_PeriphCLKConfig(&RCC_PeriphCLKInitStruct);
//  946 
//  947 	/*##-2- Enable peripherals and GPIO Clocks #################################*/
//  948 	/* Enable GPIO TX/RX clock */
//  949 	__HAL_RCC_GPIOB_CLK_ENABLE();
        LDR.W    R0,??DataTable16_43  ;; 0x40023830
        LDR      R0,[R0, #+0]
        ORRS     R0,R0,#0x2
        LDR.W    R1,??DataTable16_43  ;; 0x40023830
        STR      R0,[R1, #+0]
        LDR.W    R0,??DataTable16_43  ;; 0x40023830
        LDR      R0,[R0, #+0]
        ANDS     R0,R0,#0x2
        STR      R0,[SP, #+0]
        LDR      R0,[SP, #+0]
//  950 
//  951 	/**I2C1 GPIO Configuration	
//  952 	PB6	  ------> I2C1_SCL (PB6)
//  953 	PB7	  ------> I2C1_SDA (PB7) 
//  954 	*/
//  955 	GPIO_InitStruct.Pin = GPIO_PIN_6|GPIO_PIN_7;
        MOVS     R0,#+192
        STR      R0,[SP, #+4]
//  956 	GPIO_InitStruct.Mode = GPIO_MODE_AF_OD;
        MOVS     R0,#+18
        STR      R0,[SP, #+8]
//  957 	GPIO_InitStruct.Pull = GPIO_PULLUP;
        MOVS     R0,#+1
        STR      R0,[SP, #+12]
//  958 	GPIO_InitStruct.Speed = GPIO_SPEED_HIGH;
        MOVS     R0,#+3
        STR      R0,[SP, #+16]
//  959 	GPIO_InitStruct.Alternate = GPIO_AF4_I2C1;
        MOVS     R0,#+4
        STR      R0,[SP, #+20]
//  960 	HAL_GPIO_Init(GPIOB, &GPIO_InitStruct);
        ADD      R1,SP,#+4
        LDR.W    R0,??DataTable16_62  ;; 0x40020400
          CFI FunCall HAL_GPIO_Init
        BL       HAL_GPIO_Init
//  961 
//  962 	/* Peripheral clock enable */
//  963 	__HAL_RCC_I2C1_CLK_ENABLE();
        LDR.W    R0,??DataTable16_63  ;; 0x40023840
        LDR      R0,[R0, #+0]
        ORRS     R0,R0,#0x200000
        LDR.W    R1,??DataTable16_63  ;; 0x40023840
        STR      R0,[R1, #+0]
        LDR.W    R0,??DataTable16_63  ;; 0x40023840
        LDR      R0,[R0, #+0]
        ANDS     R0,R0,#0x200000
        STR      R0,[SP, #+0]
        LDR      R0,[SP, #+0]
//  964 	/* Peripheral interrupt init*/
//  965 	HAL_NVIC_SetPriority(I2C1_EV_IRQn, 3, 0);
        MOVS     R2,#+0
        MOVS     R1,#+3
        MOVS     R0,#+31
          CFI FunCall HAL_NVIC_SetPriority
        BL       HAL_NVIC_SetPriority
//  966 	HAL_NVIC_EnableIRQ(I2C1_EV_IRQn);
        MOVS     R0,#+31
          CFI FunCall HAL_NVIC_EnableIRQ
        BL       HAL_NVIC_EnableIRQ
        B.N      ??HAL_I2C_MspInit_1
//  967 
//  968   }
//  969   else if(hi2c->Instance==I2C2)
??HAL_I2C_MspInit_0:
        LDR      R0,[R4, #+0]
        LDR.W    R1,??DataTable16_64  ;; 0x40005800
        CMP      R0,R1
        BNE.N    ??HAL_I2C_MspInit_1
//  970   {
//  971   /* USER CODE BEGIN I2C2_MspInit 0 */
//  972 
//  973   /* USER CODE END I2C2_MspInit 0 */
//  974   
//  975     /**I2C2 GPIO Configuration    
//  976     PB10     ------> I2C2_SCL
//  977     PB11     ------> I2C2_SDA 
//  978     */
//  979     __HAL_RCC_GPIOB_CLK_ENABLE();
        LDR.W    R0,??DataTable16_43  ;; 0x40023830
        LDR      R0,[R0, #+0]
        ORRS     R0,R0,#0x2
        LDR.W    R1,??DataTable16_43  ;; 0x40023830
        STR      R0,[R1, #+0]
        LDR.W    R0,??DataTable16_43  ;; 0x40023830
        LDR      R0,[R0, #+0]
        ANDS     R0,R0,#0x2
        STR      R0,[SP, #+0]
        LDR      R0,[SP, #+0]
//  980     
//  981     GPIO_InitStruct.Pin = GPIO_PIN_10|GPIO_PIN_11;
        MOV      R0,#+3072
        STR      R0,[SP, #+4]
//  982     GPIO_InitStruct.Mode = GPIO_MODE_AF_OD;
        MOVS     R0,#+18
        STR      R0,[SP, #+8]
//  983     GPIO_InitStruct.Pull = GPIO_NOPULL;
        MOVS     R0,#+0
        STR      R0,[SP, #+12]
//  984     GPIO_InitStruct.Speed = GPIO_SPEED_HIGH;
        MOVS     R0,#+3
        STR      R0,[SP, #+16]
//  985     GPIO_InitStruct.Alternate = GPIO_AF4_I2C2;
        MOVS     R0,#+4
        STR      R0,[SP, #+20]
//  986     HAL_GPIO_Init(GPIOB, &GPIO_InitStruct);
        ADD      R1,SP,#+4
        LDR.W    R0,??DataTable16_62  ;; 0x40020400
          CFI FunCall HAL_GPIO_Init
        BL       HAL_GPIO_Init
//  987 
//  988     /* Peripheral clock enable */
//  989     __HAL_RCC_I2C2_CLK_ENABLE();
        LDR.W    R0,??DataTable16_63  ;; 0x40023840
        LDR      R0,[R0, #+0]
        ORRS     R0,R0,#0x400000
        LDR.W    R1,??DataTable16_63  ;; 0x40023840
        STR      R0,[R1, #+0]
        LDR.W    R0,??DataTable16_63  ;; 0x40023840
        LDR      R0,[R0, #+0]
        ANDS     R0,R0,#0x400000
        STR      R0,[SP, #+0]
        LDR      R0,[SP, #+0]
//  990     /* Peripheral interrupt init*/
//  991     //HAL_NVIC_SetPriority(I2C2_EV_IRQn, 3, 1);
//  992     //HAL_NVIC_EnableIRQ(I2C2_EV_IRQn);
//  993   }
//  994 
//  995 }
??HAL_I2C_MspInit_1:
        ADD      SP,SP,#+24
          CFI CFA R13+8
        POP      {R4,PC}          ;; return
          CFI EndBlock cfiBlock9
//  996 
//  997 /*---------------------------------------------------*/
//  998 /*   UART                                            */
//  999 /* UART4 init function */

        SECTION `.text`:CODE:NOROOT(1)
          CFI Block cfiBlock10 Using cfiCommon0
          CFI Function USART3_Init
        THUMB
// 1000 void USART3_Init(void)
// 1001 {
USART3_Init:
        PUSH     {R7,LR}
          CFI R14 Frame(CFA, -4)
          CFI CFA R13+8
// 1002 
// 1003   huart3.Instance = USART3;
        LDR.W    R0,??DataTable16_65  ;; 0x40004800
        LDR.W    R1,??DataTable16_66
        STR      R0,[R1, #+0]
// 1004   huart3.Init.BaudRate = 115200;
        MOVS     R0,#+115200
        LDR.W    R1,??DataTable16_66
        STR      R0,[R1, #+4]
// 1005   huart3.Init.WordLength = UART_WORDLENGTH_8B;
        MOVS     R0,#+0
        LDR.W    R1,??DataTable16_66
        STR      R0,[R1, #+8]
// 1006   huart3.Init.StopBits = UART_STOPBITS_1;
        MOVS     R0,#+0
        LDR.W    R1,??DataTable16_66
        STR      R0,[R1, #+12]
// 1007   huart3.Init.Parity = UART_PARITY_NONE;
        MOVS     R0,#+0
        LDR.W    R1,??DataTable16_66
        STR      R0,[R1, #+16]
// 1008   huart3.Init.Mode = UART_MODE_TX_RX;
        MOVS     R0,#+12
        LDR.W    R1,??DataTable16_66
        STR      R0,[R1, #+20]
// 1009   huart3.Init.HwFlowCtl = UART_HWCONTROL_NONE;
        MOVS     R0,#+0
        LDR.W    R1,??DataTable16_66
        STR      R0,[R1, #+24]
// 1010   huart3.Init.OverSampling = UART_OVERSAMPLING_16;
        MOVS     R0,#+0
        LDR.W    R1,??DataTable16_66
        STR      R0,[R1, #+28]
// 1011   huart3.Init.OneBitSampling = UART_ONEBIT_SAMPLING_DISABLED ;
        MOVS     R0,#+0
        LDR.W    R1,??DataTable16_66
        STR      R0,[R1, #+32]
// 1012   huart3.AdvancedInit.AdvFeatureInit = UART_ADVFEATURE_NO_INIT;
        MOVS     R0,#+0
        LDR.W    R1,??DataTable16_66
        STR      R0,[R1, #+36]
// 1013   HAL_UART_Init(&huart3);
        LDR.W    R0,??DataTable16_66
          CFI FunCall HAL_UART_Init
        BL       HAL_UART_Init
// 1014 
// 1015   //HAL_NVIC_SetPriority(USART3_IRQn, 1, 1);
// 1016   //HAL_NVIC_EnableIRQ(USART3_IRQn);
// 1017 
// 1018 }
        POP      {R0,PC}          ;; return
          CFI EndBlock cfiBlock10
// 1019 
// 1020 

        SECTION `.text`:CODE:NOROOT(1)
          CFI Block cfiBlock11 Using cfiCommon0
          CFI Function HAL_UART_MspInit
        THUMB
// 1021 void HAL_UART_MspInit(UART_HandleTypeDef *huart)
// 1022 {
HAL_UART_MspInit:
        PUSH     {R4,LR}
          CFI R14 Frame(CFA, -4)
          CFI R4 Frame(CFA, -8)
          CFI CFA R13+8
        SUB      SP,SP,#+24
          CFI CFA R13+32
        MOVS     R4,R0
// 1023 
// 1024   GPIO_InitTypeDef GPIO_InitStruct;
// 1025   if(huart->Instance==USART3)
        LDR      R0,[R4, #+0]
        LDR.W    R1,??DataTable16_65  ;; 0x40004800
        CMP      R0,R1
        BNE.N    ??HAL_UART_MspInit_0
// 1026   {
// 1027 
// 1028 
// 1029   /* USER CODE END UART4_MspInit 0 */
// 1030     /* Peripheral clock enable */
// 1031     __USART3_CLK_ENABLE();
        LDR.W    R0,??DataTable16_63  ;; 0x40023840
        LDR      R0,[R0, #+0]
        ORRS     R0,R0,#0x40000
        LDR.W    R1,??DataTable16_63  ;; 0x40023840
        STR      R0,[R1, #+0]
        LDR.W    R0,??DataTable16_63  ;; 0x40023840
        LDR      R0,[R0, #+0]
        ANDS     R0,R0,#0x40000
        STR      R0,[SP, #+0]
        LDR      R0,[SP, #+0]
// 1032     __GPIOC_CLK_ENABLE();
        LDR.W    R0,??DataTable16_43  ;; 0x40023830
        LDR      R0,[R0, #+0]
        ORRS     R0,R0,#0x4
        LDR.W    R1,??DataTable16_43  ;; 0x40023830
        STR      R0,[R1, #+0]
        LDR.W    R0,??DataTable16_43  ;; 0x40023830
        LDR      R0,[R0, #+0]
        ANDS     R0,R0,#0x4
        STR      R0,[SP, #+0]
        LDR      R0,[SP, #+0]
// 1033   
// 1034     /**UART4 GPIO Configuration    
// 1035     PC10     ------> USART3_TX
// 1036     PC11     ------> USART3_RX
// 1037     */
// 1038     GPIO_InitStruct.Pin = GPIO_PIN_10|GPIO_PIN_11;
        MOV      R0,#+3072
        STR      R0,[SP, #+4]
// 1039     GPIO_InitStruct.Mode = GPIO_MODE_AF_PP;
        MOVS     R0,#+2
        STR      R0,[SP, #+8]
// 1040     GPIO_InitStruct.Pull = GPIO_PULLUP;
        MOVS     R0,#+1
        STR      R0,[SP, #+12]
// 1041     GPIO_InitStruct.Speed = GPIO_SPEED_HIGH;
        MOVS     R0,#+3
        STR      R0,[SP, #+16]
// 1042     GPIO_InitStruct.Alternate = GPIO_AF7_USART3;
        MOVS     R0,#+7
        STR      R0,[SP, #+20]
// 1043     HAL_GPIO_Init(GPIOC, &GPIO_InitStruct);
        ADD      R1,SP,#+4
        LDR.W    R0,??DataTable16_67  ;; 0x40020800
          CFI FunCall HAL_GPIO_Init
        BL       HAL_GPIO_Init
// 1044 
// 1045     /* NVIC for USART */
// 1046     HAL_NVIC_SetPriority(USART3_IRQn, 7, 1);
        MOVS     R2,#+1
        MOVS     R1,#+7
        MOVS     R0,#+39
          CFI FunCall HAL_NVIC_SetPriority
        BL       HAL_NVIC_SetPriority
// 1047     HAL_NVIC_EnableIRQ(USART3_IRQn);
        MOVS     R0,#+39
          CFI FunCall HAL_NVIC_EnableIRQ
        BL       HAL_NVIC_EnableIRQ
// 1048 
// 1049   }
// 1050 
// 1051 }
??HAL_UART_MspInit_0:
        ADD      SP,SP,#+24
          CFI CFA R13+8
        POP      {R4,PC}          ;; return
          CFI EndBlock cfiBlock11
// 1052 
// 1053 
// 1054 

        SECTION `.text`:CODE:NOROOT(1)
          CFI Block cfiBlock12 Using cfiCommon0
          CFI Function EXTI4_IRQHandler
        THUMB
// 1055 void EXTI4_IRQHandler(void)
// 1056 {
EXTI4_IRQHandler:
        PUSH     {R7,LR}
          CFI R14 Frame(CFA, -4)
          CFI CFA R13+8
// 1057     /* EXTI line interrupt detected */
// 1058   if(__HAL_GPIO_EXTI_GET_IT(GPIO_PIN_4) != RESET)
        LDR.W    R0,??DataTable16_68  ;; 0x40013c14
        LDR      R0,[R0, #+0]
        LSLS     R0,R0,#+27
        BPL.N    ??EXTI4_IRQHandler_0
// 1059   {
// 1060     
// 1061      if (cntRisingEXTI==20)
        LDR.W    R0,??DataTable16_69
        LDRH     R0,[R0, #+0]
        CMP      R0,#+20
        BNE.N    ??EXTI4_IRQHandler_1
// 1062      {
// 1063     	/*--------------Enable read PCM data --------------------*/   
// 1064         //flgDlyUpd = 1;  
// 1065         //__HAL_SPI_ENABLE_IT(&hspi5, (SPI_IT_RXNE| SPI_IT_ERR));
// 1066 		//__HAL_UNLOCK(&hspi5);
// 1067         //__HAL_SPI_ENABLE(&hspi5);
// 1068 		cntRisingEXTI=0;
        MOVS     R0,#+0
        LDR.W    R1,??DataTable16_69
        STRH     R0,[R1, #+0]
// 1069 
// 1070 		/*Disable external interrupt */
// 1071 		HAL_NVIC_DisableIRQ((IRQn_Type)(EXTI4_IRQn));
        MOVS     R0,#+10
          CFI FunCall HAL_NVIC_DisableIRQ
        BL       HAL_NVIC_DisableIRQ
        B.N      ??EXTI4_IRQHandler_2
// 1072 		//HAL_GPIO_DeInit(GPIOB,GPIO_PIN_4);
// 1073      }
// 1074      else
// 1075      {
// 1076          cntRisingEXTI++;
??EXTI4_IRQHandler_1:
        LDR.W    R0,??DataTable16_69
        LDRH     R0,[R0, #+0]
        ADDS     R0,R0,#+1
        LDR.W    R1,??DataTable16_69
        STRH     R0,[R1, #+0]
// 1077 		 //__HAL_SPI_DISABLE(&hspi5);
// 1078      }
// 1079      
// 1080       __HAL_GPIO_EXTI_CLEAR_IT(GPIO_PIN_4);
??EXTI4_IRQHandler_2:
        MOVS     R0,#+16
        LDR.W    R1,??DataTable16_68  ;; 0x40013c14
        STR      R0,[R1, #+0]
// 1081 
// 1082   }
// 1083 }
??EXTI4_IRQHandler_0:
        POP      {R0,PC}          ;; return
          CFI EndBlock cfiBlock12
// 1084               

        SECTION `.text`:CODE:NOROOT(1)
          CFI Block cfiBlock13 Using cfiCommon0
          CFI Function EXTI15_10_IRQHandler
          CFI NoCalls
        THUMB
// 1085 void EXTI15_10_IRQHandler(void)
// 1086 {
// 1087 
// 1088 }
EXTI15_10_IRQHandler:
        BX       LR               ;; return
          CFI EndBlock cfiBlock13
// 1089 
// 1090 /* Events for Button Press */

        SECTION `.text`:CODE:NOROOT(1)
          CFI Block cfiBlock14 Using cfiCommon0
          CFI Function EXTI9_5_IRQHandler
        THUMB
// 1091 void EXTI9_5_IRQHandler(void)
// 1092 {
EXTI9_5_IRQHandler:
        PUSH     {R7,LR}
          CFI R14 Frame(CFA, -4)
          CFI CFA R13+8
// 1093 
// 1094   /* EXTI line interrupt detected */
// 1095   if(__HAL_GPIO_EXTI_GET_IT(GPIO_PIN_8) != RESET)
        LDR.W    R0,??DataTable16_68  ;; 0x40013c14
        LDR      R0,[R0, #+0]
        LSLS     R0,R0,#+23
        BPL.N    ??EXTI9_5_IRQHandler_0
// 1096   {
// 1097 	  btnSW2 = 1;
        MOVS     R0,#+1
        LDR.W    R1,??DataTable16_70
        STRB     R0,[R1, #+0]
// 1098 	  BSP_LED_Toggle(LED2);
        MOVS     R0,#+1
          CFI FunCall BSP_LED_Toggle
        BL       BSP_LED_Toggle
// 1099 	  __HAL_GPIO_EXTI_CLEAR_IT(GPIO_PIN_8);
        MOV      R0,#+256
        LDR.W    R1,??DataTable16_68  ;; 0x40013c14
        STR      R0,[R1, #+0]
// 1100 
// 1101   }
// 1102 
// 1103 
// 1104   /* EXTI line interrupt detected */
// 1105   if(__HAL_GPIO_EXTI_GET_IT(GPIO_PIN_9) != RESET)
??EXTI9_5_IRQHandler_0:
        LDR.W    R0,??DataTable16_68  ;; 0x40013c14
        LDR      R0,[R0, #+0]
        LSLS     R0,R0,#+22
        BPL.N    ??EXTI9_5_IRQHandler_1
// 1106   {
// 1107 		btnSW1 = 1;
        MOVS     R0,#+1
        LDR.W    R1,??DataTable16_71
        STRB     R0,[R1, #+0]
// 1108 		Command_index^=0x01;
        LDR.N    R0,??DataTable16_42
        LDRB     R0,[R0, #+0]
        EORS     R0,R0,#0x1
        LDR.N    R1,??DataTable16_42
        STRB     R0,[R1, #+0]
// 1109 		BSP_LED_Toggle(LED1);
        MOVS     R0,#+0
          CFI FunCall BSP_LED_Toggle
        BL       BSP_LED_Toggle
// 1110 
// 1111 	   __HAL_GPIO_EXTI_CLEAR_IT(GPIO_PIN_9);
        MOV      R0,#+512
        LDR.N    R1,??DataTable16_68  ;; 0x40013c14
        STR      R0,[R1, #+0]
// 1112   }
// 1113 
// 1114 }
??EXTI9_5_IRQHandler_1:
        POP      {R0,PC}          ;; return
          CFI EndBlock cfiBlock14
// 1115 
// 1116 

        SECTION `.text`:CODE:NOROOT(1)
          CFI Block cfiBlock15 Using cfiCommon0
          CFI Function DFT_Init
        THUMB
// 1117 void DFT_Init(void)
// 1118 {
DFT_Init:
        PUSH     {R7,LR}
          CFI R14 Frame(CFA, -4)
          CFI CFA R13+8
// 1119 #if MAIN_CRSCORR
// 1120 		arm_rfft_init_q15(&RealFFT_Ins,(uint32_t)128,(uint32_t)0,(uint32_t)1);
// 1121 		arm_rfft_init_q15(&RealIFFT_Ins,(uint32_t)128,(uint32_t)1,(uint32_t)1);
// 1122 #endif  
// 1123 		/* Initialize the CFFT/CIFFT module */	
// 1124 		arm_rfft_init_f32(&S1,&SS1, 512,  0, 1); 
        MOVS     R0,#+1
        STR      R0,[SP, #+0]
        MOVS     R3,#+0
        MOV      R2,#+512
        LDR.N    R1,??DataTable16_72
        LDR.N    R0,??DataTable16_73
          CFI FunCall arm_rfft_init_f32
        BL       arm_rfft_init_f32
// 1125 		arm_rfft_init_f32(&S2,&SS2, 512,  0, 1); 
        MOVS     R0,#+1
        STR      R0,[SP, #+0]
        MOVS     R3,#+0
        MOV      R2,#+512
        LDR.N    R1,??DataTable16_74
        LDR.N    R0,??DataTable16_75
          CFI FunCall arm_rfft_init_f32
        BL       arm_rfft_init_f32
// 1126 		arm_rfft_init_f32(&S3,&SS3, 512,  0, 1); 
        MOVS     R0,#+1
        STR      R0,[SP, #+0]
        MOVS     R3,#+0
        MOV      R2,#+512
        LDR.N    R1,??DataTable16_76
        LDR.N    R0,??DataTable16_77
          CFI FunCall arm_rfft_init_f32
        BL       arm_rfft_init_f32
// 1127 		arm_rfft_init_f32(&S4,&SS4, 512,  0, 1);
        MOVS     R0,#+1
        STR      R0,[SP, #+0]
        MOVS     R3,#+0
        MOV      R2,#+512
        LDR.N    R1,??DataTable16_78
        LDR.N    R0,??DataTable16_79
          CFI FunCall arm_rfft_init_f32
        BL       arm_rfft_init_f32
// 1128 		arm_rfft_init_f32(&IS,&ISS, 512,  1, 1);
        MOVS     R0,#+1
        STR      R0,[SP, #+0]
        MOVS     R3,#+1
        MOV      R2,#+512
        LDR.N    R1,??DataTable16_80
        LDR.N    R0,??DataTable16_81
          CFI FunCall arm_rfft_init_f32
        BL       arm_rfft_init_f32
// 1129 
// 1130 		//arm_rfft_fast_init_f32(&S1, 512);
// 1131                 //arm_rfft_fast_init_f32(&S2, 512);
// 1132 		//arm_rfft_fast_init_f32(&S3, 512);
// 1133 		//arm_rfft_fast_init_f32(&S4, 512);
// 1134 		//arm_rfft_fast_init_f32(&IS, 512);
// 1135 }
        POP      {R0,PC}          ;; return
          CFI EndBlock cfiBlock15
// 1136 
// 1137 

        SECTION `.text`:CODE:NOROOT(1)
          CFI Block cfiBlock16 Using cfiCommon0
          CFI Function SumDelay
          CFI NoCalls
        THUMB
// 1138 void SumDelay(Mic_Array_Data *BufferIn)
// 1139 {
SumDelay:
        PUSH     {R4,R5}
          CFI R5 Frame(CFA, -4)
          CFI R4 Frame(CFA, -8)
          CFI CFA R13+8
// 1140            //if (idxLatency12>idxLatency13)
// 1141            // {
// 1142            //     if (idxLatency13 > idxLatency14)
// 1143            //     {
// 1144            //         /* MIC2 --> MIC3 --> MIC4 */
// 1145            //     }
// 1146            //             else if (idxLatency14 > idxLatency12)
// 1147            //             {
// 1148            //        /* MIC4-->MIC2-->MIC3  */
// 1149            //            }
// 1150            //             else
// 1151            //             {
// 1152            //       /* MIC2-->MIC4-->MIC3  */
// 1153            //             }
// 1154            // }
// 1155            //else // idxLatency13>idxLatency12
// 1156            //     {
// 1157            //    if (idxLatency12 > idxLatency14)
// 1158            //    {
// 1159            //        //MIC3 --> MIC2 --> MIC4 
// 1160            //    }
// 1161            //        else if (idxLatency14 > idxLatency13)
// 1162            //        {
// 1163            //        //MIC4 --> MIC3 --> MIC2
// 1164            //        }
// 1165            //        else
// 1166            //        {
// 1167            //        //MIC3 --> MIC4 --> MIC2
// 1168 	   //	   }
// 1169 	   //}
// 1170 
// 1171 	
// 1172 	for(uint16_t i=0;i<AUDIO_OUT_BUFFER_SIZE;i++)
        MOVS     R1,#+0
??SumDelay_0:
        UXTH     R1,R1            ;; ZeroExt  R1,R1,#+16,#+16
        CMP      R1,#+1024
        BGE.N    ??SumDelay_1
// 1173 	{
// 1174 
// 1175 		 if (i%2==0)
        UXTH     R1,R1            ;; ZeroExt  R1,R1,#+16,#+16
        MOVS     R2,#+2
        SDIV     R3,R1,R2
        MLS      R3,R3,R2,R1
        CMP      R3,#+0
        BNE.N    ??SumDelay_2
// 1176 		 {
// 1177                     bufferSum[i] = (uint16_t)(BufferIn->bufMIC1[i]*FacMic.facMIC1 + 
// 1178                     BufferIn->bufMIC2[(((i-idxLatency12)>0)?(i-idxLatency12):0)]*FacMic.facMIC2 + 
// 1179                     BufferIn->bufMIC3[(((i-idxLatency13)>0)?(i-idxLatency13):0)]*FacMic.facMIC3 + 
// 1180                     BufferIn->bufMIC4[(((i-idxLatency14)>0)?(i-idxLatency14):0)]*FacMic.facMIC4); 		
        UXTH     R1,R1            ;; ZeroExt  R1,R1,#+16,#+16
        LDR.N    R2,??DataTable16_82
        LDRSH    R2,[R2, #+0]
        SUBS     R2,R1,R2
        CMP      R2,#+1
        BLT.N    ??SumDelay_3
        UXTH     R1,R1            ;; ZeroExt  R1,R1,#+16,#+16
        LDR.N    R2,??DataTable16_82
        LDRSH    R2,[R2, #+0]
        SUBS     R2,R1,R2
        B.N      ??SumDelay_4
??SumDelay_3:
        MOVS     R2,#+0
??SumDelay_4:
        UXTH     R1,R1            ;; ZeroExt  R1,R1,#+16,#+16
        LDR.N    R3,??DataTable16_83
        LDRSH    R3,[R3, #+0]
        SUBS     R3,R1,R3
        CMP      R3,#+1
        BLT.N    ??SumDelay_5
        UXTH     R1,R1            ;; ZeroExt  R1,R1,#+16,#+16
        LDR.N    R3,??DataTable16_83
        LDRSH    R3,[R3, #+0]
        SUBS     R3,R1,R3
        B.N      ??SumDelay_6
??SumDelay_5:
        MOVS     R3,#+0
??SumDelay_6:
        UXTH     R1,R1            ;; ZeroExt  R1,R1,#+16,#+16
        LDR.N    R4,??DataTable16_10
        LDRSH    R4,[R4, #+0]
        SUBS     R4,R1,R4
        CMP      R4,#+1
        BLT.N    ??SumDelay_7
        UXTH     R1,R1            ;; ZeroExt  R1,R1,#+16,#+16
        LDR.N    R4,??DataTable16_10
        LDRSH    R4,[R4, #+0]
        SUBS     R4,R1,R4
        B.N      ??SumDelay_8
??SumDelay_7:
        MOVS     R4,#+0
??SumDelay_8:
        UXTH     R1,R1            ;; ZeroExt  R1,R1,#+16,#+16
        LDRSH    R5,[R0, R1, LSL #+1]
        VMOV     S0,R5
        VCVT.F32.S32 S0,S0
        LDR.N    R5,??DataTable16_3
        VLDR     S1,[R5, #0]
        VMUL.F32 S0,S0,S1
        ADDS     R2,R0,R2, LSL #+1
        MOVW     R5,#+4116
        LDRSH    R2,[R5, R2]
        VMOV     S1,R2
        VCVT.F32.S32 S1,S1
        LDR.N    R2,??DataTable16_3
        VLDR     S2,[R2, #+4]
        VMLA.F32 S0,S1,S2
        ADDS     R2,R0,R3, LSL #+1
        MOVW     R3,#+8232
        LDRSH    R2,[R3, R2]
        VMOV     S1,R2
        VCVT.F32.S32 S1,S1
        LDR.N    R2,??DataTable16_3
        VLDR     S2,[R2, #+8]
        VMLA.F32 S0,S1,S2
        ADDS     R2,R0,R4, LSL #+1
        MOVW     R3,#+12348
        LDRSH    R2,[R3, R2]
        VMOV     S1,R2
        VCVT.F32.S32 S1,S1
        LDR.N    R2,??DataTable16_3
        VLDR     S2,[R2, #+12]
        VMLA.F32 S0,S1,S2
        VCVT.S32.F32 S0,S0
        VMOV     R2,S0
        LDR.N    R3,??DataTable16_84
        UXTH     R1,R1            ;; ZeroExt  R1,R1,#+16,#+16
        STRH     R2,[R3, R1, LSL #+1]
        B.N      ??SumDelay_9
// 1181 		 }
// 1182 		 else
// 1183 		 {
// 1184                      bufferSum[i] = (uint16_t)(BufferIn->bufMIC3[i]);
??SumDelay_2:
        UXTH     R1,R1            ;; ZeroExt  R1,R1,#+16,#+16
        ADDS     R2,R0,R1, LSL #+1
        MOVW     R3,#+8232
        LDRH     R2,[R3, R2]
        LDR.N    R3,??DataTable16_84
        UXTH     R1,R1            ;; ZeroExt  R1,R1,#+16,#+16
        STRH     R2,[R3, R1, LSL #+1]
// 1185 		 }
// 1186 	}
??SumDelay_9:
        ADDS     R1,R1,#+1
        B.N      ??SumDelay_0
// 1187 }
??SumDelay_1:
        POP      {R4,R5}
          CFI R4 SameValue
          CFI R5 SameValue
          CFI CFA R13+0
        BX       LR               ;; return
          CFI EndBlock cfiBlock16
// 1188 
// 1189 

        SECTION `.text`:CODE:NOROOT(1)
          CFI Block cfiBlock17 Using cfiCommon0
          CFI Function ButtonInit
        THUMB
// 1190 void ButtonInit(void)
// 1191 {
ButtonInit:
        PUSH     {R7,LR}
          CFI R14 Frame(CFA, -4)
          CFI CFA R13+8
// 1192     /* PI8: SW2 */
// 1193 	/* PI9: SW1 */
// 1194 	 /* ----------------------*/
// 1195 	 __GPIOB_CLK_ENABLE();
        LDR.N    R0,??DataTable16_43  ;; 0x40023830
        LDR      R0,[R0, #+0]
        ORRS     R0,R0,#0x2
        LDR.N    R1,??DataTable16_43  ;; 0x40023830
        STR      R0,[R1, #+0]
        LDR.N    R0,??DataTable16_43  ;; 0x40023830
        LDR      R0,[R0, #+0]
        ANDS     R0,R0,#0x2
        STR      R0,[SP, #+0]
        LDR      R0,[SP, #+0]
// 1196 	GPIO_INS.Pin = GPIO_PIN_8|GPIO_PIN_9;
        MOV      R0,#+768
        LDR.N    R1,??DataTable16_44
        STR      R0,[R1, #+0]
// 1197 	GPIO_INS.Mode =GPIO_MODE_IT_RISING;
        LDR.N    R0,??DataTable16_45  ;; 0x10110000
        LDR.N    R1,??DataTable16_44
        STR      R0,[R1, #+4]
// 1198 	GPIO_INS.Pull =GPIO_NOPULL;
        MOVS     R0,#+0
        LDR.N    R1,??DataTable16_44
        STR      R0,[R1, #+8]
// 1199 	GPIO_INS.Speed =GPIO_SPEED_HIGH;
        MOVS     R0,#+3
        LDR.N    R1,??DataTable16_44
        STR      R0,[R1, #+12]
// 1200 	HAL_GPIO_Init(GPIOI,&GPIO_INS);
        LDR.N    R1,??DataTable16_44
        LDR.N    R0,??DataTable16_85  ;; 0x40022000
          CFI FunCall HAL_GPIO_Init
        BL       HAL_GPIO_Init
// 1201 	
// 1202 	/* Enable and set Button EXTI Interrupt to the lowest priority */
// 1203 	HAL_NVIC_SetPriority((IRQn_Type)EXTI9_5_IRQn, 0x0F, 0x00);
        MOVS     R2,#+0
        MOVS     R1,#+15
        MOVS     R0,#+23
          CFI FunCall HAL_NVIC_SetPriority
        BL       HAL_NVIC_SetPriority
// 1204 	HAL_NVIC_EnableIRQ((IRQn_Type)EXTI9_5_IRQn);
        MOVS     R0,#+23
          CFI FunCall HAL_NVIC_EnableIRQ
        BL       HAL_NVIC_EnableIRQ
// 1205 	/*-----------------------*/
// 1206 
// 1207 }
        POP      {R0,PC}          ;; return
          CFI EndBlock cfiBlock17

        SECTION `.text`:CODE:NOROOT(2)
        SECTION_TYPE SHT_PROGBITS, 0
        DATA
??DataTable14:
        DC32     0xe000ef50
// 1208 
// 1209 
// 1210 /* I2C2 init function */

        SECTION `.text`:CODE:NOROOT(1)
          CFI Block cfiBlock18 Using cfiCommon0
          CFI Function MX_I2C2_Init
        THUMB
// 1211 void MX_I2C2_Init(void)
// 1212 {
MX_I2C2_Init:
        PUSH     {R7,LR}
          CFI R14 Frame(CFA, -4)
          CFI CFA R13+8
// 1213    __HAL_I2C_DISABLE(&hi2c2);
        LDR.N    R0,??DataTable16_86
        LDR      R0,[R0, #+0]
        LDR      R0,[R0, #+0]
        LSRS     R0,R0,#+1
        LSLS     R0,R0,#+1
        LDR.N    R1,??DataTable16_86
        LDR      R1,[R1, #+0]
        STR      R0,[R1, #+0]
// 1214   hi2c2.Instance = I2C2;
        LDR.N    R0,??DataTable16_64  ;; 0x40005800
        LDR.N    R1,??DataTable16_86
        STR      R0,[R1, #+0]
// 1215   hi2c2.Init.Timing =0x00A0689A ;//I2C_TIMING  0x00303D5D 0x00A0689A
        LDR.N    R0,??DataTable16_87  ;; 0xa0689a
        LDR.N    R1,??DataTable16_86
        STR      R0,[R1, #+4]
// 1216   hi2c2.Init.OwnAddress1 = 0;
        MOVS     R0,#+0
        LDR.N    R1,??DataTable16_86
        STR      R0,[R1, #+8]
// 1217   hi2c2.Init.AddressingMode = I2C_ADDRESSINGMODE_7BIT;
        MOVS     R0,#+1
        LDR.N    R1,??DataTable16_86
        STR      R0,[R1, #+12]
// 1218   hi2c2.Init.DualAddressMode = I2C_DUALADDRESS_DISABLE;
        MOVS     R0,#+0
        LDR.N    R1,??DataTable16_86
        STR      R0,[R1, #+16]
// 1219   hi2c2.Init.OwnAddress2 = 0;
        MOVS     R0,#+0
        LDR.N    R1,??DataTable16_86
        STR      R0,[R1, #+20]
// 1220   hi2c2.Init.OwnAddress2Masks = I2C_OA2_NOMASK;
        MOVS     R0,#+0
        LDR.N    R1,??DataTable16_86
        STR      R0,[R1, #+24]
// 1221   hi2c2.Init.GeneralCallMode = I2C_GENERALCALL_DISABLE;
        MOVS     R0,#+0
        LDR.N    R1,??DataTable16_86
        STR      R0,[R1, #+28]
// 1222   hi2c2.Init.NoStretchMode = I2C_NOSTRETCH_DISABLE;
        MOVS     R0,#+0
        LDR.N    R1,??DataTable16_86
        STR      R0,[R1, #+32]
// 1223   HAL_I2C_Init(&hi2c2);
        LDR.N    R0,??DataTable16_86
          CFI FunCall HAL_I2C_Init
        BL       HAL_I2C_Init
// 1224 
// 1225     /**Configure Analogue filter 
// 1226     */
// 1227   //HAL_I2CEx_AnalogFilter_Config(&hi2c2, I2C_ANALOGFILTER_ENABLE);
// 1228 
// 1229 }
        POP      {R0,PC}          ;; return
          CFI EndBlock cfiBlock18

        SECTION `.text`:CODE:NOROOT(2)
        SECTION_TYPE SHT_PROGBITS, 0
        DATA
??DataTable15:
        DC32     0xe000ed84

        SECTION `.text`:CODE:NOROOT(2)
        SECTION_TYPE SHT_PROGBITS, 0
        DATA
??DataTable15_1:
        DC32     0xe000ed80
// 1230 

        SECTION `.text`:CODE:NOROOT(1)
          CFI Block cfiBlock19 Using cfiCommon0
          CFI Function HAL_I2S_TxCpltCallback
        THUMB
// 1231  void HAL_I2S_TxCpltCallback(I2S_HandleTypeDef *hi2s)
// 1232 {
HAL_I2S_TxCpltCallback:
        PUSH     {R4,LR}
          CFI R14 Frame(CFA, -4)
          CFI R4 Frame(CFA, -8)
          CFI CFA R13+8
        MOVS     R4,R0
// 1233 	 //sop1hc if(AudioState == AUDIO_STATE_PLAY)
// 1234 	 //if (BufferCtlPlayOut.state == BUFFER_OFFSET_HALF)
// 1235 	 {
// 1236 	   //BufferCtlPlayOut.state = BUFFER_OFFSET_FULL;
// 1237 	   XferCplt=1;
        MOVS     R0,#+1
        LDR.N    R1,??DataTable16_33
        STRB     R0,[R1, #+0]
// 1238 	   Audio_Play_Out(); 
          CFI FunCall Audio_Play_Out
        BL       Audio_Play_Out
// 1239 
// 1240 	   if (cntStrt<100) cntStrt++;
        LDR.N    R0,??DataTable16_53
        LDRH     R0,[R0, #+0]
        CMP      R0,#+100
        BGE.N    ??HAL_I2S_TxCpltCallback_0
        LDR.N    R0,??DataTable16_53
        LDRH     R0,[R0, #+0]
        ADDS     R0,R0,#+1
        LDR.N    R1,??DataTable16_53
        STRH     R0,[R1, #+0]
// 1241 	 }
// 1242 	 
// 1243 
// 1244 }
??HAL_I2S_TxCpltCallback_0:
        POP      {R4,PC}          ;; return
          CFI EndBlock cfiBlock19

        SECTION `.text`:CODE:NOROOT(2)
        SECTION_TYPE SHT_PROGBITS, 0
        DATA
??DataTable16:
        DC32     0xe000ed14

        SECTION `.text`:CODE:NOROOT(2)
        SECTION_TYPE SHT_PROGBITS, 0
        DATA
??DataTable16_1:
        DC32     0xe000ef60

        SECTION `.text`:CODE:NOROOT(2)
        SECTION_TYPE SHT_PROGBITS, 0
        DATA
??DataTable16_2:
        DC32     flgDlyUpd

        SECTION `.text`:CODE:NOROOT(2)
        SECTION_TYPE SHT_PROGBITS, 0
        DATA
??DataTable16_3:
        DC32     FacMic

        SECTION `.text`:CODE:NOROOT(2)
        SECTION_TYPE SHT_PROGBITS, 0
        DATA
??DataTable16_4:
        DC32     buffer_switch

        SECTION `.text`:CODE:NOROOT(2)
        SECTION_TYPE SHT_PROGBITS, 0
        DATA
??DataTable16_5:
        DC32     Buffer3+0x708C

        SECTION `.text`:CODE:NOROOT(2)
        SECTION_TYPE SHT_PROGBITS, 0
        DATA
??DataTable16_6:
        DC32     Buffer3+0x6078

        SECTION `.text`:CODE:NOROOT(2)
        SECTION_TYPE SHT_PROGBITS, 0
        DATA
??DataTable16_7:
        DC32     idxLatency78

        SECTION `.text`:CODE:NOROOT(2)
        SECTION_TYPE SHT_PROGBITS, 0
        DATA
??DataTable16_8:
        DC32     Buffer3+0x303C

        SECTION `.text`:CODE:NOROOT(2)
        SECTION_TYPE SHT_PROGBITS, 0
        DATA
??DataTable16_9:
        DC32     Buffer3

        SECTION `.text`:CODE:NOROOT(2)
        SECTION_TYPE SHT_PROGBITS, 0
        DATA
??DataTable16_10:
        DC32     idxLatency14

        SECTION `.text`:CODE:NOROOT(2)
        SECTION_TYPE SHT_PROGBITS, 0
        DATA
??DataTable16_11:
        DC32     Buffer3+0x4050

        SECTION `.text`:CODE:NOROOT(2)
        SECTION_TYPE SHT_PROGBITS, 0
        DATA
??DataTable16_12:
        DC32     Buffer3+0x1014

        SECTION `.text`:CODE:NOROOT(2)
        SECTION_TYPE SHT_PROGBITS, 0
        DATA
??DataTable16_13:
        DC32     idxLatency25

        SECTION `.text`:CODE:NOROOT(2)
        SECTION_TYPE SHT_PROGBITS, 0
        DATA
??DataTable16_14:
        DC32     Buffer3+0x2028

        SECTION `.text`:CODE:NOROOT(2)
        SECTION_TYPE SHT_PROGBITS, 0
        DATA
??DataTable16_15:
        DC32     Buffer3+0x5064

        SECTION `.text`:CODE:NOROOT(2)
        SECTION_TYPE SHT_PROGBITS, 0
        DATA
??DataTable16_16:
        DC32     idxLatency63

        SECTION `.text`:CODE:NOROOT(2)
        SECTION_TYPE SHT_PROGBITS, 0
        DATA
??DataTable16_17:
        DC32     Buffer1+0x708C

        SECTION `.text`:CODE:NOROOT(2)
        SECTION_TYPE SHT_PROGBITS, 0
        DATA
??DataTable16_18:
        DC32     Buffer1+0x6078

        SECTION `.text`:CODE:NOROOT(2)
        SECTION_TYPE SHT_PROGBITS, 0
        DATA
??DataTable16_19:
        DC32     Buffer1+0x303C

        SECTION `.text`:CODE:NOROOT(2)
        SECTION_TYPE SHT_PROGBITS, 0
        DATA
??DataTable16_20:
        DC32     Buffer1

        SECTION `.text`:CODE:NOROOT(2)
        SECTION_TYPE SHT_PROGBITS, 0
        DATA
??DataTable16_21:
        DC32     Buffer1+0x4050

        SECTION `.text`:CODE:NOROOT(2)
        SECTION_TYPE SHT_PROGBITS, 0
        DATA
??DataTable16_22:
        DC32     Buffer1+0x1014

        SECTION `.text`:CODE:NOROOT(2)
        SECTION_TYPE SHT_PROGBITS, 0
        DATA
??DataTable16_23:
        DC32     Buffer1+0x2028

        SECTION `.text`:CODE:NOROOT(2)
        SECTION_TYPE SHT_PROGBITS, 0
        DATA
??DataTable16_24:
        DC32     Buffer1+0x5064

        SECTION `.text`:CODE:NOROOT(2)
        SECTION_TYPE SHT_PROGBITS, 0
        DATA
??DataTable16_25:
        DC32     Buffer2+0x708C

        SECTION `.text`:CODE:NOROOT(2)
        SECTION_TYPE SHT_PROGBITS, 0
        DATA
??DataTable16_26:
        DC32     Buffer2+0x6078

        SECTION `.text`:CODE:NOROOT(2)
        SECTION_TYPE SHT_PROGBITS, 0
        DATA
??DataTable16_27:
        DC32     Buffer2+0x303C

        SECTION `.text`:CODE:NOROOT(2)
        SECTION_TYPE SHT_PROGBITS, 0
        DATA
??DataTable16_28:
        DC32     Buffer2

        SECTION `.text`:CODE:NOROOT(2)
        SECTION_TYPE SHT_PROGBITS, 0
        DATA
??DataTable16_29:
        DC32     Buffer2+0x4050

        SECTION `.text`:CODE:NOROOT(2)
        SECTION_TYPE SHT_PROGBITS, 0
        DATA
??DataTable16_30:
        DC32     Buffer2+0x1014

        SECTION `.text`:CODE:NOROOT(2)
        SECTION_TYPE SHT_PROGBITS, 0
        DATA
??DataTable16_31:
        DC32     Buffer2+0x2028

        SECTION `.text`:CODE:NOROOT(2)
        SECTION_TYPE SHT_PROGBITS, 0
        DATA
??DataTable16_32:
        DC32     Buffer2+0x5064

        SECTION `.text`:CODE:NOROOT(2)
        SECTION_TYPE SHT_PROGBITS, 0
        DATA
??DataTable16_33:
        DC32     XferCplt

        SECTION `.text`:CODE:NOROOT(2)
        SECTION_TYPE SHT_PROGBITS, 0
        DATA
??DataTable16_34:
        DC32     WaveRec_idxSens1

        SECTION `.text`:CODE:NOROOT(2)
        SECTION_TYPE SHT_PROGBITS, 0
        DATA
??DataTable16_35:
        DC32     WaveRec_idxSens2

        SECTION `.text`:CODE:NOROOT(2)
        SECTION_TYPE SHT_PROGBITS, 0
        DATA
??DataTable16_36:
        DC32     idxSPI5DataBuf3

        SECTION `.text`:CODE:NOROOT(2)
        SECTION_TYPE SHT_PROGBITS, 0
        DATA
??DataTable16_37:
        DC32     WaveRec_idxSens3

        SECTION `.text`:CODE:NOROOT(2)
        SECTION_TYPE SHT_PROGBITS, 0
        DATA
??DataTable16_38:
        DC32     WaveRec_idxSens4

        SECTION `.text`:CODE:NOROOT(2)
        SECTION_TYPE SHT_PROGBITS, 0
        DATA
??DataTable16_39:
        DC32     I2S2_idxTmp

        SECTION `.text`:CODE:NOROOT(2)
        SECTION_TYPE SHT_PROGBITS, 0
        DATA
??DataTable16_40:
        DC32     WaveRec_idxSens5

        SECTION `.text`:CODE:NOROOT(2)
        SECTION_TYPE SHT_PROGBITS, 0
        DATA
??DataTable16_41:
        DC32     WaveRec_idxSens6

        SECTION `.text`:CODE:NOROOT(2)
        SECTION_TYPE SHT_PROGBITS, 0
        DATA
??DataTable16_42:
        DC32     Command_index

        SECTION `.text`:CODE:NOROOT(2)
        SECTION_TYPE SHT_PROGBITS, 0
        DATA
??DataTable16_43:
        DC32     0x40023830

        SECTION `.text`:CODE:NOROOT(2)
        SECTION_TYPE SHT_PROGBITS, 0
        DATA
??DataTable16_44:
        DC32     GPIO_INS

        SECTION `.text`:CODE:NOROOT(2)
        SECTION_TYPE SHT_PROGBITS, 0
        DATA
??DataTable16_45:
        DC32     0x10110000

        SECTION `.text`:CODE:NOROOT(2)
        SECTION_TYPE SHT_PROGBITS, 0
        DATA
??DataTable16_46:
        DC32     0x40020000

        SECTION `.text`:CODE:NOROOT(2)
        SECTION_TYPE SHT_PROGBITS, 0
        DATA
??DataTable16_47:
        DC32     0x40021000

        SECTION `.text`:CODE:NOROOT(2)
        SECTION_TYPE SHT_PROGBITS, 0
        DATA
??DataTable16_48:
        DC32     hUSBDDevice

        SECTION `.text`:CODE:NOROOT(2)
        SECTION_TYPE SHT_PROGBITS, 0
        DATA
??DataTable16_49:
        DC32     AUDIO_Desc

        SECTION `.text`:CODE:NOROOT(2)
        SECTION_TYPE SHT_PROGBITS, 0
        DATA
??DataTable16_50:
        DC32     USBD_AUDIO

        SECTION `.text`:CODE:NOROOT(2)
        SECTION_TYPE SHT_PROGBITS, 0
        DATA
??DataTable16_51:
        DC32     USBD_AUDIO_fops

        SECTION `.text`:CODE:NOROOT(2)
        SECTION_TYPE SHT_PROGBITS, 0
        DATA
??DataTable16_52:
        DC32     stFrstFrmStore

        SECTION `.text`:CODE:NOROOT(2)
        SECTION_TYPE SHT_PROGBITS, 0
        DATA
??DataTable16_53:
        DC32     cntStrt

        SECTION `.text`:CODE:NOROOT(2)
        SECTION_TYPE SHT_PROGBITS, 0
        DATA
??DataTable16_54:
        DC32     WaveRecord_flgIni

        SECTION `.text`:CODE:NOROOT(2)
        SECTION_TYPE SHT_PROGBITS, 0
        DATA
??DataTable16_55:
        DC32     I2S1_stNipple

        SECTION `.text`:CODE:NOROOT(2)
        SECTION_TYPE SHT_PROGBITS, 0
        DATA
??DataTable16_56:
        DC32     SPI4_stPosShft

        SECTION `.text`:CODE:NOROOT(2)
        SECTION_TYPE SHT_PROGBITS, 0
        DATA
??DataTable16_57:
        DC32     flg10ms

        SECTION `.text`:CODE:NOROOT(2)
        SECTION_TYPE SHT_PROGBITS, 0
        DATA
??DataTable16_58:
        DC32     cntTime200

        SECTION `.text`:CODE:NOROOT(2)
        SECTION_TYPE SHT_PROGBITS, 0
        DATA
??DataTable16_59:
        DC32     ??ticks

        SECTION `.text`:CODE:NOROOT(2)
        SECTION_TYPE SHT_PROGBITS, 0
        DATA
??DataTable16_60:
        DC32     0x100001

        SECTION `.text`:CODE:NOROOT(2)
        SECTION_TYPE SHT_PROGBITS, 0
        DATA
??DataTable16_61:
        DC32     0x40005400

        SECTION `.text`:CODE:NOROOT(2)
        SECTION_TYPE SHT_PROGBITS, 0
        DATA
??DataTable16_62:
        DC32     0x40020400

        SECTION `.text`:CODE:NOROOT(2)
        SECTION_TYPE SHT_PROGBITS, 0
        DATA
??DataTable16_63:
        DC32     0x40023840

        SECTION `.text`:CODE:NOROOT(2)
        SECTION_TYPE SHT_PROGBITS, 0
        DATA
??DataTable16_64:
        DC32     0x40005800

        SECTION `.text`:CODE:NOROOT(2)
        SECTION_TYPE SHT_PROGBITS, 0
        DATA
??DataTable16_65:
        DC32     0x40004800

        SECTION `.text`:CODE:NOROOT(2)
        SECTION_TYPE SHT_PROGBITS, 0
        DATA
??DataTable16_66:
        DC32     huart3

        SECTION `.text`:CODE:NOROOT(2)
        SECTION_TYPE SHT_PROGBITS, 0
        DATA
??DataTable16_67:
        DC32     0x40020800

        SECTION `.text`:CODE:NOROOT(2)
        SECTION_TYPE SHT_PROGBITS, 0
        DATA
??DataTable16_68:
        DC32     0x40013c14

        SECTION `.text`:CODE:NOROOT(2)
        SECTION_TYPE SHT_PROGBITS, 0
        DATA
??DataTable16_69:
        DC32     cntRisingEXTI

        SECTION `.text`:CODE:NOROOT(2)
        SECTION_TYPE SHT_PROGBITS, 0
        DATA
??DataTable16_70:
        DC32     btnSW2

        SECTION `.text`:CODE:NOROOT(2)
        SECTION_TYPE SHT_PROGBITS, 0
        DATA
??DataTable16_71:
        DC32     btnSW1

        SECTION `.text`:CODE:NOROOT(2)
        SECTION_TYPE SHT_PROGBITS, 0
        DATA
??DataTable16_72:
        DC32     SS1

        SECTION `.text`:CODE:NOROOT(2)
        SECTION_TYPE SHT_PROGBITS, 0
        DATA
??DataTable16_73:
        DC32     `S1`

        SECTION `.text`:CODE:NOROOT(2)
        SECTION_TYPE SHT_PROGBITS, 0
        DATA
??DataTable16_74:
        DC32     SS2

        SECTION `.text`:CODE:NOROOT(2)
        SECTION_TYPE SHT_PROGBITS, 0
        DATA
??DataTable16_75:
        DC32     `S2`

        SECTION `.text`:CODE:NOROOT(2)
        SECTION_TYPE SHT_PROGBITS, 0
        DATA
??DataTable16_76:
        DC32     SS3

        SECTION `.text`:CODE:NOROOT(2)
        SECTION_TYPE SHT_PROGBITS, 0
        DATA
??DataTable16_77:
        DC32     `S3`

        SECTION `.text`:CODE:NOROOT(2)
        SECTION_TYPE SHT_PROGBITS, 0
        DATA
??DataTable16_78:
        DC32     SS4

        SECTION `.text`:CODE:NOROOT(2)
        SECTION_TYPE SHT_PROGBITS, 0
        DATA
??DataTable16_79:
        DC32     `S4`

        SECTION `.text`:CODE:NOROOT(2)
        SECTION_TYPE SHT_PROGBITS, 0
        DATA
??DataTable16_80:
        DC32     ISS

        SECTION `.text`:CODE:NOROOT(2)
        SECTION_TYPE SHT_PROGBITS, 0
        DATA
??DataTable16_81:
        DC32     IS

        SECTION `.text`:CODE:NOROOT(2)
        SECTION_TYPE SHT_PROGBITS, 0
        DATA
??DataTable16_82:
        DC32     idxLatency12

        SECTION `.text`:CODE:NOROOT(2)
        SECTION_TYPE SHT_PROGBITS, 0
        DATA
??DataTable16_83:
        DC32     idxLatency13

        SECTION `.text`:CODE:NOROOT(2)
        SECTION_TYPE SHT_PROGBITS, 0
        DATA
??DataTable16_84:
        DC32     bufferSum

        SECTION `.text`:CODE:NOROOT(2)
        SECTION_TYPE SHT_PROGBITS, 0
        DATA
??DataTable16_85:
        DC32     0x40022000

        SECTION `.text`:CODE:NOROOT(2)
        SECTION_TYPE SHT_PROGBITS, 0
        DATA
??DataTable16_86:
        DC32     hi2c2

        SECTION `.text`:CODE:NOROOT(2)
        SECTION_TYPE SHT_PROGBITS, 0
        DATA
??DataTable16_87:
        DC32     0xa0689a

        SECTION `.iar_vfe_header`:DATA:NOALLOC:NOROOT(2)
        SECTION_TYPE SHT_PROGBITS, 0
        DATA
        DC32 0

        SECTION __DLIB_PERTHREAD:DATA:REORDER:NOROOT(0)
        SECTION_TYPE SHT_PROGBITS, 0

        SECTION __DLIB_PERTHREAD_init:DATA:REORDER:NOROOT(0)
        SECTION_TYPE SHT_PROGBITS, 0

        END
// 1245 
// 1246 /*****************************END OF FILE**************************************/
// 
// 8 948 bytes in section .bss
//    22 bytes in section .data
// 3 170 bytes in section .text
// 
// 3 170 bytes of CODE memory
// 8 970 bytes of DATA memory
//
//Errors: none
//Warnings: 1
