###############################################################################
#
# IAR ELF Linker V7.50.2.10312/W32 for ARM                21/Dec/2015  22:48:32
# Copyright 2007-2015 IAR Systems AB.
#
#    Output file  =  
#        H:\PhanLeSon\ActivNoise\Microphone\F7\Mic_Array_Project\Mic_Array\Projects\STM32746G\Applications\Audio\Mic_Array\EWARM\STM32F7\Exe\Project.out
#    Map file     =  
#        H:\PhanLeSon\ActivNoise\Microphone\F7\Mic_Array_Project\Mic_Array\Projects\STM32746G\Applications\Audio\Mic_Array\EWARM\STM32F7\List\Project.map
#    Command line =  
#        H:\PhanLeSon\ActivNoise\Microphone\F7\Mic_Array_Project\Mic_Array\Projects\STM32746G\Applications\Audio\Mic_Array\EWARM\STM32F7\Obj\audio_codec.o
#        H:\PhanLeSon\ActivNoise\Microphone\F7\Mic_Array_Project\Mic_Array\Projects\STM32746G\Applications\Audio\Mic_Array\EWARM\STM32F7\Obj\audio_sample.o
#        H:\PhanLeSon\ActivNoise\Microphone\F7\Mic_Array_Project\Mic_Array\Projects\STM32746G\Applications\Audio\Mic_Array\EWARM\STM32F7\Obj\ff.o
#        H:\PhanLeSon\ActivNoise\Microphone\F7\Mic_Array_Project\Mic_Array\Projects\STM32746G\Applications\Audio\Mic_Array\EWARM\STM32F7\Obj\ft5336.o
#        H:\PhanLeSon\ActivNoise\Microphone\F7\Mic_Array_Project\Mic_Array\Middlewares\ST\STM32_Audio\Addons\PDM\libPDMFilter_CM7_IAR.a
#        H:\PhanLeSon\ActivNoise\Microphone\F7\Mic_Array_Project\Mic_Array\Projects\STM32746G\Applications\Audio\Mic_Array\EWARM\STM32F7\Obj\main.o
#        H:\PhanLeSon\ActivNoise\Microphone\F7\Mic_Array_Project\Mic_Array\Projects\STM32746G\Applications\Audio\Mic_Array\EWARM\STM32F7\Obj\sta321mp.o
#        H:\PhanLeSon\ActivNoise\Microphone\F7\Mic_Array_Project\Mic_Array\Projects\STM32746G\Applications\Audio\Mic_Array\EWARM\STM32F7\Obj\startup_stm32f746xx.o
#        H:\PhanLeSon\ActivNoise\Microphone\F7\Mic_Array_Project\Mic_Array\Projects\STM32746G\Applications\Audio\Mic_Array\EWARM\STM32F7\Obj\stm32746g_discovery.o
#        H:\PhanLeSon\ActivNoise\Microphone\F7\Mic_Array_Project\Mic_Array\Projects\STM32746G\Applications\Audio\Mic_Array\EWARM\STM32F7\Obj\stm32746g_discovery_lcd.o
#        H:\PhanLeSon\ActivNoise\Microphone\F7\Mic_Array_Project\Mic_Array\Projects\STM32746G\Applications\Audio\Mic_Array\EWARM\STM32F7\Obj\stm32746g_discovery_sdram.o
#        H:\PhanLeSon\ActivNoise\Microphone\F7\Mic_Array_Project\Mic_Array\Projects\STM32746G\Applications\Audio\Mic_Array\EWARM\STM32F7\Obj\stm32746g_discovery_ts.o
#        H:\PhanLeSon\ActivNoise\Microphone\F7\Mic_Array_Project\Mic_Array\Projects\STM32746G\Applications\Audio\Mic_Array\EWARM\STM32F7\Obj\stm32f7xx_hal.o
#        H:\PhanLeSon\ActivNoise\Microphone\F7\Mic_Array_Project\Mic_Array\Projects\STM32746G\Applications\Audio\Mic_Array\EWARM\STM32F7\Obj\stm32f7xx_hal_cortex.o
#        H:\PhanLeSon\ActivNoise\Microphone\F7\Mic_Array_Project\Mic_Array\Projects\STM32746G\Applications\Audio\Mic_Array\EWARM\STM32F7\Obj\stm32f7xx_hal_dma.o
#        H:\PhanLeSon\ActivNoise\Microphone\F7\Mic_Array_Project\Mic_Array\Projects\STM32746G\Applications\Audio\Mic_Array\EWARM\STM32F7\Obj\stm32f7xx_hal_dma2d.o
#        H:\PhanLeSon\ActivNoise\Microphone\F7\Mic_Array_Project\Mic_Array\Projects\STM32746G\Applications\Audio\Mic_Array\EWARM\STM32F7\Obj\stm32f7xx_hal_dma_ex.o
#        H:\PhanLeSon\ActivNoise\Microphone\F7\Mic_Array_Project\Mic_Array\Projects\STM32746G\Applications\Audio\Mic_Array\EWARM\STM32F7\Obj\stm32f7xx_hal_flash.o
#        H:\PhanLeSon\ActivNoise\Microphone\F7\Mic_Array_Project\Mic_Array\Projects\STM32746G\Applications\Audio\Mic_Array\EWARM\STM32F7\Obj\stm32f7xx_hal_flash_ex.o
#        H:\PhanLeSon\ActivNoise\Microphone\F7\Mic_Array_Project\Mic_Array\Projects\STM32746G\Applications\Audio\Mic_Array\EWARM\STM32F7\Obj\stm32f7xx_hal_gpio.o
#        H:\PhanLeSon\ActivNoise\Microphone\F7\Mic_Array_Project\Mic_Array\Projects\STM32746G\Applications\Audio\Mic_Array\EWARM\STM32F7\Obj\stm32f7xx_hal_hcd.o
#        H:\PhanLeSon\ActivNoise\Microphone\F7\Mic_Array_Project\Mic_Array\Projects\STM32746G\Applications\Audio\Mic_Array\EWARM\STM32F7\Obj\stm32f7xx_hal_i2c.o
#        H:\PhanLeSon\ActivNoise\Microphone\F7\Mic_Array_Project\Mic_Array\Projects\STM32746G\Applications\Audio\Mic_Array\EWARM\STM32F7\Obj\stm32f7xx_hal_i2c_ex.o
#        H:\PhanLeSon\ActivNoise\Microphone\F7\Mic_Array_Project\Mic_Array\Projects\STM32746G\Applications\Audio\Mic_Array\EWARM\STM32F7\Obj\stm32f7xx_hal_i2s.o
#        H:\PhanLeSon\ActivNoise\Microphone\F7\Mic_Array_Project\Mic_Array\Projects\STM32746G\Applications\Audio\Mic_Array\EWARM\STM32F7\Obj\stm32f7xx_hal_ltdc.o
#        H:\PhanLeSon\ActivNoise\Microphone\F7\Mic_Array_Project\Mic_Array\Projects\STM32746G\Applications\Audio\Mic_Array\EWARM\STM32F7\Obj\stm32f7xx_hal_pwr.o
#        H:\PhanLeSon\ActivNoise\Microphone\F7\Mic_Array_Project\Mic_Array\Projects\STM32746G\Applications\Audio\Mic_Array\EWARM\STM32F7\Obj\stm32f7xx_hal_pwr_ex.o
#        H:\PhanLeSon\ActivNoise\Microphone\F7\Mic_Array_Project\Mic_Array\Projects\STM32746G\Applications\Audio\Mic_Array\EWARM\STM32F7\Obj\stm32f7xx_hal_rcc.o
#        H:\PhanLeSon\ActivNoise\Microphone\F7\Mic_Array_Project\Mic_Array\Projects\STM32746G\Applications\Audio\Mic_Array\EWARM\STM32F7\Obj\stm32f7xx_hal_rcc_ex.o
#        H:\PhanLeSon\ActivNoise\Microphone\F7\Mic_Array_Project\Mic_Array\Projects\STM32746G\Applications\Audio\Mic_Array\EWARM\STM32F7\Obj\stm32f7xx_hal_sai.o
#        H:\PhanLeSon\ActivNoise\Microphone\F7\Mic_Array_Project\Mic_Array\Projects\STM32746G\Applications\Audio\Mic_Array\EWARM\STM32F7\Obj\stm32f7xx_hal_sai_ex.o
#        H:\PhanLeSon\ActivNoise\Microphone\F7\Mic_Array_Project\Mic_Array\Projects\STM32746G\Applications\Audio\Mic_Array\EWARM\STM32F7\Obj\stm32f7xx_hal_sdram.o
#        H:\PhanLeSon\ActivNoise\Microphone\F7\Mic_Array_Project\Mic_Array\Projects\STM32746G\Applications\Audio\Mic_Array\EWARM\STM32F7\Obj\stm32f7xx_hal_spi.o
#        H:\PhanLeSon\ActivNoise\Microphone\F7\Mic_Array_Project\Mic_Array\Projects\STM32746G\Applications\Audio\Mic_Array\EWARM\STM32F7\Obj\stm32f7xx_hal_sram.o
#        H:\PhanLeSon\ActivNoise\Microphone\F7\Mic_Array_Project\Mic_Array\Projects\STM32746G\Applications\Audio\Mic_Array\EWARM\STM32F7\Obj\stm32f7xx_hal_tim.o
#        H:\PhanLeSon\ActivNoise\Microphone\F7\Mic_Array_Project\Mic_Array\Projects\STM32746G\Applications\Audio\Mic_Array\EWARM\STM32F7\Obj\stm32f7xx_hal_tim_ex.o
#        H:\PhanLeSon\ActivNoise\Microphone\F7\Mic_Array_Project\Mic_Array\Projects\STM32746G\Applications\Audio\Mic_Array\EWARM\STM32F7\Obj\stm32f7xx_hal_uart.o
#        H:\PhanLeSon\ActivNoise\Microphone\F7\Mic_Array_Project\Mic_Array\Projects\STM32746G\Applications\Audio\Mic_Array\EWARM\STM32F7\Obj\stm32f7xx_it.o
#        H:\PhanLeSon\ActivNoise\Microphone\F7\Mic_Array_Project\Mic_Array\Projects\STM32746G\Applications\Audio\Mic_Array\EWARM\STM32F7\Obj\stm32f7xx_ll_fmc.o
#        H:\PhanLeSon\ActivNoise\Microphone\F7\Mic_Array_Project\Mic_Array\Projects\STM32746G\Applications\Audio\Mic_Array\EWARM\STM32F7\Obj\stm32f7xx_ll_usb.o
#        H:\PhanLeSon\ActivNoise\Microphone\F7\Mic_Array_Project\Mic_Array\Projects\STM32746G\Applications\Audio\Mic_Array\EWARM\STM32F7\Obj\system_stm32f7xx.o
#        H:\PhanLeSon\ActivNoise\Microphone\F7\Mic_Array_Project\Mic_Array\Projects\STM32746G\Applications\Audio\Mic_Array\EWARM\STM32F7\Obj\usbh_conf.o
#        H:\PhanLeSon\ActivNoise\Microphone\F7\Mic_Array_Project\Mic_Array\Projects\STM32746G\Applications\Audio\Mic_Array\EWARM\STM32F7\Obj\usbh_core.o
#        H:\PhanLeSon\ActivNoise\Microphone\F7\Mic_Array_Project\Mic_Array\Projects\STM32746G\Applications\Audio\Mic_Array\EWARM\STM32F7\Obj\usbh_ctlreq.o
#        H:\PhanLeSon\ActivNoise\Microphone\F7\Mic_Array_Project\Mic_Array\Projects\STM32746G\Applications\Audio\Mic_Array\EWARM\STM32F7\Obj\usbh_diskio.o
#        H:\PhanLeSon\ActivNoise\Microphone\F7\Mic_Array_Project\Mic_Array\Projects\STM32746G\Applications\Audio\Mic_Array\EWARM\STM32F7\Obj\usbh_ioreq.o
#        H:\PhanLeSon\ActivNoise\Microphone\F7\Mic_Array_Project\Mic_Array\Projects\STM32746G\Applications\Audio\Mic_Array\EWARM\STM32F7\Obj\usbh_msc.o
#        H:\PhanLeSon\ActivNoise\Microphone\F7\Mic_Array_Project\Mic_Array\Projects\STM32746G\Applications\Audio\Mic_Array\EWARM\STM32F7\Obj\usbh_msc_bot.o
#        H:\PhanLeSon\ActivNoise\Microphone\F7\Mic_Array_Project\Mic_Array\Projects\STM32746G\Applications\Audio\Mic_Array\EWARM\STM32F7\Obj\usbh_msc_scsi.o
#        H:\PhanLeSon\ActivNoise\Microphone\F7\Mic_Array_Project\Mic_Array\Projects\STM32746G\Applications\Audio\Mic_Array\EWARM\STM32F7\Obj\usbh_pipes.o
#        "H:\PhanLeSon\ActivNoise\Microphone\F7\Mic_Array_Project\Mic_Array\Projects\STM32746G\Applications\Audio\Mic_Array\EWARM\STM32F7\Obj\waveplayer
#        _CS43L22.o" --redirect _Printf=_PrintfSmall --redirect
#        _Scanf=_ScanfSmall -o
#        H:\PhanLeSon\ActivNoise\Microphone\F7\Mic_Array_Project\Mic_Array\Projects\STM32746G\Applications\Audio\Mic_Array\EWARM\STM32F7\Exe\Project.out
#        --map
#        H:\PhanLeSon\ActivNoise\Microphone\F7\Mic_Array_Project\Mic_Array\Projects\STM32746G\Applications\Audio\Mic_Array\EWARM\STM32F7\List\Project.map
#        --config "D:\Program Files (x86)\IAR Systems\Embedded Workbench
#        7.3\arm\config\linker\ST\stm32f746xG.icf" --semihosting --entry
#        __iar_program_start --no_exceptions "D:\Program Files (x86)\IAR
#        Systems\Embedded Workbench
#        7.3\arm\CMSIS\Lib\IAR\iar_cortexM7ls_math.a" --vfe
#
###############################################################################

*******************************************************************************
*** RUNTIME MODEL ATTRIBUTES
***

CppFlavor                     = *
__Heap_Handler                = DLMalloc
__SystemLibrary               = DLib
__dlib_dynamic_initialization = normal


*******************************************************************************
*** PLACEMENT SUMMARY
***

"A1":  place at 0x08000000 { ro section .intvec };
"P1":  place in [from 0x00000000 to 0x00000000] |
                [from 0x08000000 to 0x080fffff] { ro };
"P3":  place in [from 0x20000000 to 0x2000ffff] |
                [from 0x20010000 to 0x2004ffff] { rw, block CSTACK, block HEAP };

  Section             Kind        Address     Size  Object
  -------             ----        -------     ----  ------
"A1":                                        0x1c8
  .intvec             ro code  0x08000000    0x1c8  startup_stm32f746xx.o [1]
                             - 0x080001c8    0x1c8

"P1":                                      0x753e8
  .rodata             const    0x080001c8  0x6eaf0  audio_sample.o [1]
  .text               ro code  0x0806ecb8   0x14f0  dlmalloc.o [3]
  .text               ro code  0x080701a8      0x6  abort.o [3]
  .text               ro code  0x080701b0     0x2c  xgetmemchunk.o [3]
  .text               ro code  0x080701dc     0x14  exit.o [6]
  .text               ro code  0x080701f0     0x6c  iarttio.o [6]
  .text               ro code  0x0807025c      0x8  XShttio.o [3]
  .text               ro code  0x08070264    0xf58  stm32f7xx_hal_dma.o [1]
  .text               ro code  0x080711bc    0x838  stm32f7xx_hal_i2c.o [1]
  .text               ro code  0x080719f4    0x510  main.o [1]
  .text               ro code  0x08071f04     0x60  stm32f7xx_hal.o [1]
  .text               ro code  0x08071f64     0xc4  stm32746g_discovery.o [1]
  .text               ro code  0x08072028     0x28  waveplayer _CS43L22.o [1]
  .text               ro code  0x08072050    0x20c  stm32f7xx_hal_gpio.o [1]
  .text               ro code  0x0807225c     0xe4  stm32f7xx_hal_cortex.o [1]
  .text               ro code  0x08072340    0x528  stm32f7xx_hal_rcc.o [1]
  .text               ro code  0x08072868     0x74  stm32f7xx_hal_pwr_ex.o [1]
  .text               ro code  0x080728dc    0x464  stm32f7xx_hal_rcc_ex.o [1]
  .text               ro code  0x08072d40     0x6e  stm32f7xx_hal_i2c_ex.o [1]
  .text               ro code  0x08072db0     0xb8  stm32f7xx_hal_spi.o [1]
  .text               ro code  0x08072e68    0x5dc  audio_codec.o [1]
  .text               ro code  0x08073444    0x220  stm32f7xx_hal_i2s.o [1]
  .text               ro code  0x08073664    0x7c4  xprintfsmall.o [3]
  .text               ro code  0x08073e28     0x20  xmbtowc.o [3]
  .text               ro code  0x08073e48     0x16  strchr.o [5]
  .text               ro code  0x08073e60     0x36  strlen.o [5]
  .text               ro code  0x08073e98     0x58  memchr.o [5]
  .text               ro code  0x08073ef0      0xa  xmbcurmax.o [3]
  .text               ro code  0x08073efa     0x1a  xwctomb.o [3]
  .text               ro code  0x08073f14     0x76  ABImemcpy_unaligned.o [5]
  .text               ro code  0x08073f8c     0x14  setlocale.o [3]
  .text               ro code  0x08073fa0     0x60  xencoding_sb.o [3]
  .text               ro code  0x08074000      0x2  xtls.o [3]
  .text               ro code  0x08074004    0x57a  stm32f7xx_hal_hcd.o [1]
  .text               ro code  0x08074580    0x1c6  stm32f7xx_ll_usb.o [1]
  .text               ro code  0x08074748     0x36  usbh_conf.o [1]
  .text               ro code  0x08074780     0xac  usbh_core.o [1]
  .text               ro code  0x0807482c     0x24  printf.o [3]
  .text               ro code  0x08074850     0x18  usbh_pipes.o [1]
  .text               ro code  0x08074868    0x2b2  stm32f7xx_hal_uart.o [1]
  .text               ro code  0x08074b1c     0xe0  XShHandles.o [3]
  .text               ro code  0x08074bfc     0xd8  packbits_init.o [5]
  .text               ro code  0x08074cd4     0xd6  xfspos.o [3]
  .text               ro code  0x08074dac     0xb0  fflush.o [3]
  .text               ro code  0x08074e5c      0xa  xfgpos.o [3]
  .text               ro code  0x08074e66     0x4c  lseek.o [6]
  .text               ro code  0x08074eb4      0xc  errno.o [3]
  .text               ro code  0x08074ec0      0x4  xsyslock_nop.o [3]
  .text               ro code  0x08074ec4     0x10  write.o [6]
  .text               ro code  0x08074ed4     0x1e  dwrite.o [6]
  .text               ro code  0x08074ef2     0x20  iarwstd.o [6]
  .text               ro code  0x08074f12     0x22  iarwrite.o [6]
  .text               ro code  0x08074f34     0xb6  xfwprep.o [3]
  .text               ro code  0x08074fea     0x22  fseek.o [3]
  .text               ro code  0x0807500c     0x7c  xfofind.o [3]
  .text               ro code  0x08075088     0x7a  fclose.o [3]
  .text               ro code  0x08075102     0x1a  close.o [6]
  .text               ro code  0x0807511c     0x16  remove.o [6]
  .text               ro code  0x08075134     0x58  stm32f7xx_it.o [1]
  .text               ro code  0x0807518c     0x58  xcloseall.o [3]
  .text               ro code  0x080751e4     0x56  fputc.o [3]
  .text               ro code  0x0807523c     0x50  system_stm32f7xx.o [1]
  .text               ro code  0x0807528c     0x40  zero_init3.o [5]
  .text               ro code  0x080752cc     0x28  data_init.o [5]
  .text               ro code  0x080752f4     0x22  fpinit_M.o [4]
  .iar.init_table     const    0x08075318     0x2c  - Linker created -
  .text               ro code  0x08075344     0x1a  cmain.o [5]
  .text               ro code  0x0807535e      0x4  low_level_init.o [3]
  .text               ro code  0x08075362      0x4  exit.o [3]
  .text               ro code  0x08075368      0xe  cexit.o [5]
  .text               ro code  0x08075376     0x16  xprout.o [3]
  .text               ro code  0x0807538c      0xc  putchar.o [3]
  .text               ro code  0x08075398     0x10  startup_stm32f746xx.o [1]
  .text               ro code  0x080753a8      0xc  cstartup_M.o [5]
  .text               ro code  0x080753b4      0x4  startup_stm32f746xx.o [1]
  .text               ro code  0x080753b8      0x4  startup_stm32f746xx.o [1]
  .text               ro code  0x080753bc      0x4  startup_stm32f746xx.o [1]
  .text               ro code  0x080753c0      0x4  startup_stm32f746xx.o [1]
  .text               ro code  0x080753c4      0x4  startup_stm32f746xx.o [1]
  .text               ro code  0x080753c8      0x4  startup_stm32f746xx.o [1]
  .text               ro code  0x080753cc      0x4  startup_stm32f746xx.o [1]
  .text               ro code  0x080753d0      0x4  startup_stm32f746xx.o [1]
  .text               ro code  0x080753d4      0x4  startup_stm32f746xx.o [1]
  .text               ro code  0x080753d8      0x4  startup_stm32f746xx.o [1]
  .text               ro code  0x080753dc      0x4  startup_stm32f746xx.o [1]
  .text               ro code  0x080753e0      0x4  startup_stm32f746xx.o [1]
  .text               ro code  0x080753e4      0x4  startup_stm32f746xx.o [1]
  .text               ro code  0x080753e8      0x4  startup_stm32f746xx.o [1]
  .text               ro code  0x080753ec      0x4  startup_stm32f746xx.o [1]
  .text               ro code  0x080753f0      0x4  startup_stm32f746xx.o [1]
  .text               ro code  0x080753f4      0x4  startup_stm32f746xx.o [1]
  .text               ro code  0x080753f8      0x4  startup_stm32f746xx.o [1]
  .text               ro code  0x080753fc      0x4  startup_stm32f746xx.o [1]
  .text               ro code  0x08075400      0x4  startup_stm32f746xx.o [1]
  .text               ro code  0x08075404      0x4  startup_stm32f746xx.o [1]
  .text               ro code  0x08075408      0x4  startup_stm32f746xx.o [1]
  .text               ro code  0x0807540c      0x4  startup_stm32f746xx.o [1]
  .text               ro code  0x08075410      0x4  startup_stm32f746xx.o [1]
  .text               ro code  0x08075414      0x4  startup_stm32f746xx.o [1]
  .text               ro code  0x08075418      0x4  startup_stm32f746xx.o [1]
  .text               ro code  0x0807541c      0x4  startup_stm32f746xx.o [1]
  .text               ro code  0x08075420      0x4  startup_stm32f746xx.o [1]
  .text               ro code  0x08075424      0x4  startup_stm32f746xx.o [1]
  .text               ro code  0x08075428      0x4  startup_stm32f746xx.o [1]
  .text               ro code  0x0807542c      0x4  startup_stm32f746xx.o [1]
  .text               ro code  0x08075430      0x4  startup_stm32f746xx.o [1]
  .text               ro code  0x08075434      0x4  startup_stm32f746xx.o [1]
  .text               ro code  0x08075438      0x4  startup_stm32f746xx.o [1]
  .text               ro code  0x0807543c      0x4  startup_stm32f746xx.o [1]
  .text               ro code  0x08075440      0x4  startup_stm32f746xx.o [1]
  .text               ro code  0x08075444      0x4  startup_stm32f746xx.o [1]
  .text               ro code  0x08075448      0x4  startup_stm32f746xx.o [1]
  .text               ro code  0x0807544c      0x4  startup_stm32f746xx.o [1]
  .text               ro code  0x08075450      0x4  startup_stm32f746xx.o [1]
  .text               ro code  0x08075454      0x4  startup_stm32f746xx.o [1]
  .text               ro code  0x08075458      0x4  startup_stm32f746xx.o [1]
  .text               ro code  0x0807545c      0x4  startup_stm32f746xx.o [1]
  .text               ro code  0x08075460      0x4  startup_stm32f746xx.o [1]
  .text               ro code  0x08075464      0x4  startup_stm32f746xx.o [1]
  .text               ro code  0x08075468      0x4  startup_stm32f746xx.o [1]
  .text               ro code  0x0807546c      0x4  startup_stm32f746xx.o [1]
  .text               ro code  0x08075470      0x4  startup_stm32f746xx.o [1]
  .text               ro code  0x08075474      0x4  startup_stm32f746xx.o [1]
  .text               ro code  0x08075478      0x4  startup_stm32f746xx.o [1]
  .text               ro code  0x0807547c      0x4  startup_stm32f746xx.o [1]
  .text               ro code  0x08075480      0x4  startup_stm32f746xx.o [1]
  .text               ro code  0x08075484      0x4  startup_stm32f746xx.o [1]
  .text               ro code  0x08075488      0x4  startup_stm32f746xx.o [1]
  .text               ro code  0x0807548c      0x4  startup_stm32f746xx.o [1]
  .text               ro code  0x08075490      0x4  startup_stm32f746xx.o [1]
  .text               ro code  0x08075494      0x4  startup_stm32f746xx.o [1]
  .text               ro code  0x08075498      0x4  startup_stm32f746xx.o [1]
  .text               ro code  0x0807549c      0x4  startup_stm32f746xx.o [1]
  .text               ro code  0x080754a0      0x4  startup_stm32f746xx.o [1]
  .text               ro code  0x080754a4      0x4  startup_stm32f746xx.o [1]
  .text               ro code  0x080754a8      0x4  startup_stm32f746xx.o [1]
  .text               ro code  0x080754ac      0x4  startup_stm32f746xx.o [1]
  .text               ro code  0x080754b0      0x4  startup_stm32f746xx.o [1]
  .text               ro code  0x080754b4      0x4  startup_stm32f746xx.o [1]
  .text               ro code  0x080754b8      0x4  startup_stm32f746xx.o [1]
  .text               ro code  0x080754bc      0x4  startup_stm32f746xx.o [1]
  .text               ro code  0x080754c0      0x4  startup_stm32f746xx.o [1]
  .text               ro code  0x080754c4      0x4  startup_stm32f746xx.o [1]
  .text               ro code  0x080754c8      0x4  startup_stm32f746xx.o [1]
  .text               ro code  0x080754cc      0x4  startup_stm32f746xx.o [1]
  .text               ro code  0x080754d0      0x4  startup_stm32f746xx.o [1]
  .text               ro code  0x080754d4      0x4  startup_stm32f746xx.o [1]
  .text               ro code  0x080754d8      0x4  startup_stm32f746xx.o [1]
  .text               ro code  0x080754dc      0x4  startup_stm32f746xx.o [1]
  .text               ro code  0x080754e0      0x4  startup_stm32f746xx.o [1]
  .text               ro code  0x080754e4      0x4  startup_stm32f746xx.o [1]
  .text               ro code  0x080754e8      0x4  startup_stm32f746xx.o [1]
  .text               ro code  0x080754ec      0x4  startup_stm32f746xx.o [1]
  .text               ro code  0x080754f0      0x4  startup_stm32f746xx.o [1]
  .text               ro code  0x080754f4      0x4  startup_stm32f746xx.o [1]
  .text               ro code  0x080754f8      0x4  startup_stm32f746xx.o [1]
  .text               ro code  0x080754fc      0x4  startup_stm32f746xx.o [1]
  .text               ro code  0x08075500      0x4  startup_stm32f746xx.o [1]
  .text               ro code  0x08075504      0x4  startup_stm32f746xx.o [1]
  .text               ro code  0x08075508      0x4  startup_stm32f746xx.o [1]
  .text               ro code  0x0807550c      0x4  startup_stm32f746xx.o [1]
  .text               ro code  0x08075510      0x4  startup_stm32f746xx.o [1]
  .text               ro code  0x08075514      0x4  startup_stm32f746xx.o [1]
  .text               ro code  0x08075518      0x0  cstart_closeall.o [5]
  .rodata             const    0x08075518      0x0  zero_init3.o [5]
  .rodata             const    0x08075518      0x0  packbits_init.o [5]
  Initializer bytes   const    0x08075518     0x98  <for P3 s0>
                             - 0x080755b0  0x753e8

"P3", part 1 of 3:                           0x1d2
  P3 s0                        0x20010000    0x1d2  <Init block>
    __DLIB_PERTHREAD  inited   0x20010000     0x74  setlocale.o [3]
    .data             inited   0x20010074     0x5c  audio_codec.o [1]
    .data             inited   0x200100d0     0x40  xfiles.o [3]
    .data             inited   0x20010110     0x40  xfiles.o [3]
    .data             inited   0x20010150     0x40  xfiles.o [3]
    .data             inited   0x20010190     0x20  xfiles.o [3]
    .data             inited   0x200101b0     0x14  system_stm32f7xx.o [1]
    .data             inited   0x200101c4      0x8  XShttio.o [3]
    __DLIB_PERTHREAD  inited   0x200101cc      0x4  errno.o [3]
    .data             inited   0x200101d0      0x1  audio_codec.o [1]
    .data             inited   0x200101d1      0x1  waveplayer _CS43L22.o [1]
                             - 0x200101d2    0x1d2

"P3", part 2 of 3:                          0xdf60
  .bss                zero     0x200101d4   0xd83c  main.o [1]
  .bss                zero     0x2001da10    0x294  usbh_conf.o [1]
  .bss                zero     0x2001dca4    0x1d8  dlmalloc.o [3]
  .bss                zero     0x2001de7c     0x80  audio_codec.o [1]
  .bss                zero     0x2001defc     0x80  XShHandles.o [3]
  .bss                zero     0x2001df7c     0x70  main.o [1]
  .bss                zero     0x2001dfec     0x64  main.o [1]
  .bss                zero     0x2001e050     0x50  xfiles.o [3]
  .bss                zero     0x2001e0a0     0x50  xfiles.o [3]
  .bss                zero     0x2001e0f0     0x18  main.o [1]
  .bss                zero     0x2001e108     0x18  dlmalloc.o [3]
  .bss                zero     0x2001e120      0x4  main.o [1]
  .bss                zero     0x2001e124      0x4  stm32f7xx_hal.o [1]
  .bss                zero     0x2001e128      0x4  stm32f7xx_it.o [1]
  .bss                zero     0x2001e12c      0x4  xgetmemchunk.o [3]
  .bss                zero     0x2001e130      0x2  main.o [1]
                             - 0x2001e132   0xdf5e

"P3", part 3 of 3:                          0x4000
  CSTACK                       0x2001e138   0x2000  <Block>
    CSTACK            uninit   0x2001e138   0x2000  <Block tail>
  HEAP                         0x20020138   0x2000  <Block>
    HEAP              uninit   0x20020138   0x2000  <Block tail>
                             - 0x20022138   0x4000


*******************************************************************************
*** INIT TABLE
***

          Address     Size
          -------     ----
Zero (__iar_zero_init3)
    1 destination range, total size 0xdf5e:
          0x200101d4  0xdf5e

Copy/packbits (__iar_packbits_init3)
    1 source range, total size 0x98 (32% of destination):
          0x08075518    0x98
    1 destination range, total size 0x1d2:
          0x20010000   0x1d2



*******************************************************************************
*** MODULE SUMMARY
***

    Module                  ro code  ro data  rw data
    ------                  -------  -------  -------
H:\PhanLeSon\ActivNoise\Microphone\F7\Mic_Array_Project\Mic_Array\Projects\STM32746G\Applications\Audio\Mic_Array\EWARM\STM32F7\Obj: [1]
    audio_codec.o             1 500       30      221
    audio_sample.o                   453 360
    main.o                    1 296            55 598
    startup_stm32f746xx.o       828
    stm32746g_discovery.o       196
    stm32f7xx_hal.o              96                 4
    stm32f7xx_hal_cortex.o      228
    stm32f7xx_hal_dma.o       3 928
    stm32f7xx_hal_gpio.o        524
    stm32f7xx_hal_hcd.o       1 402
    stm32f7xx_hal_i2c.o       2 104
    stm32f7xx_hal_i2c_ex.o      110
    stm32f7xx_hal_i2s.o         544
    stm32f7xx_hal_pwr_ex.o      116
    stm32f7xx_hal_rcc.o       1 320
    stm32f7xx_hal_rcc_ex.o    1 124
    stm32f7xx_hal_spi.o         184
    stm32f7xx_hal_uart.o        690
    stm32f7xx_it.o               88                 4
    stm32f7xx_ll_usb.o          454
    system_stm32f7xx.o           80        7       20
    usbh_conf.o                  54               660
    usbh_core.o                 172
    usbh_pipes.o                 24
    waveplayer _CS43L22.o        40        1        1
    -------------------------------------------------
    Total:                   17 102  453 398   56 508

command line: [2]
    -------------------------------------------------
    Total:

dl7M_tlf.a: [3]
    XShHandles.o                224               128
    XShttio.o                     8        3        8
    abort.o                       6
    dlmalloc.o                5 360               496
    errno.o                      12        1        4
    exit.o                        4
    fclose.o                    122
    fflush.o                    176
    fputc.o                      86
    fseek.o                      34
    low_level_init.o              4
    printf.o                     36
    putchar.o                    12
    setlocale.o                  20       37      116
    xcloseall.o                  88
    xencoding_sb.o               96
    xfgpos.o                     10
    xfiles.o                              73      384
    xfofind.o                   124
    xfspos.o                    214
    xfwprep.o                   182
    xgetmemchunk.o               44                 4
    xmbcurmax.o                  10
    xmbtowc.o                    32
    xprintfsmall.o            1 988
    xprout.o                     22
    xsyslock_nop.o                4
    xtls.o                        2
    xwctomb.o                    26
    -------------------------------------------------
    Total:                    8 946      114    1 140

m7M_tls.a: [4]
    fpinit_M.o                   34
    -------------------------------------------------
    Total:                       34

rt7M_tl.a: [5]
    ABImemcpy_unaligned.o       118
    cexit.o                      14
    cmain.o                      26
    cstart_closeall.o
    cstartup_M.o                 12
    data_init.o                  40
    memchr.o                     88
    packbits_init.o             216
    strchr.o                     22
    strlen.o                     54
    zero_init3.o                 64
    -------------------------------------------------
    Total:                      654

shb_l.a: [6]
    close.o                      26
    dwrite.o                     30
    exit.o                       20
    iarttio.o                   108
    iarwrite.o                   34
    iarwstd.o                    32
    lseek.o                      76
    remove.o                     22
    write.o                      16
    -------------------------------------------------
    Total:                      364

    Gaps                         30        2
    Linker created                        44   16 384
-----------------------------------------------------
    Grand Total:             27 130  453 558   74 032


*******************************************************************************
*** ENTRY LIST
***

Entry                      Address     Size  Type      Object
-----                      -------     ----  ----      ------
.iar.init_table$$Base   0x08075318            --   Gb  - Linker created -
.iar.init_table$$Limit  0x08075344            --   Gb  - Linker created -
?main                   0x08075345           Code  Gb  cmain.o [5]
AHBPrescTable           0x200101b0     0x10  Data  Gb  system_stm32f7xx.o [1]
APBAHBPrescTable        0x08072858     0x10  Data  Gb  stm32f7xx_hal_rcc.o [1]
AUDIO_Init              0x08072e69     0x2a  Code  Gb  audio_codec.o [1]
AUDIO_Play              0x08072e93     0x46  Code  Gb  audio_codec.o [1]
AUDIO_SAMPLE            0x080001c8  0x6eaf0  Data  Gb  audio_sample.o [1]
AUDIO_TransferComplete_CallBack
                        0x08072047      0x2  Code  Gb  waveplayer _CS43L22.o [1]
AudioFlashPlay          0x0807203b      0xc  Code  Gb  waveplayer _CS43L22.o [1]
AudioRemSize            0x200100c8      0x4  Data  Gb  audio_codec.o [1]
AudioTotalSize          0x200100c4      0x4  Data  Gb  audio_codec.o [1]
Audio_MAL_IRQHandler    0x08072ed9     0xe0  Code  Lc  audio_codec.o [1]
Audio_MAL_Play          0x080731f5      0xa  Code  Gb  audio_codec.o [1]
BSP_LED_Init            0x08071f65     0x7e  Code  Gb  stm32746g_discovery.o [1]
BSP_LED_Toggle          0x08071feb     0x2c  Code  Gb  stm32746g_discovery.o [1]
Buffer1                 0x200101d4   0x4810  Data  Gb  main.o [1]
Buffer2                 0x200149e4   0x4810  Data  Gb  main.o [1]
Buffer3                 0x20019200   0x4810  Data  Gb  main.o [1]
BusFault_Handler        0x0807513b      0x2  Code  Gb  stm32f7xx_it.o [1]
CSTACK$$Base            0x2001e138            --   Gb  - Linker created -
CSTACK$$Limit           0x20020138            --   Gb  - Linker created -
Codec_Init              0x08072fcf    0x124  Code  Lc  audio_codec.o [1]
Codec_Reset             0x08073121     0x26  Code  Lc  audio_codec.o [1]
Codec_TIMEOUT_UserCallback
                        0x08072049      0x4  Code  Gb  waveplayer _CS43L22.o [1]
Codec_VolumeCtrl        0x080730f9     0x28  Code  Lc  audio_codec.o [1]
Codec_WriteRegister     0x08073147     0x88  Code  Lc  audio_codec.o [1]
CurrentPos              0x200100cc      0x4  Data  Gb  audio_codec.o [1]
DMA1_Stream0_IRQHandler
                        0x08072fc3      0x2  Code  Gb  audio_codec.o [1]
DMA1_Stream7_IRQHandler
                        0x08072fb9      0xa  Code  Gb  audio_codec.o [1]
DMA_SetConfig           0x08070265     0x1e  Code  Lc  stm32f7xx_hal_dma.o [1]
DebugMon_Handler        0x08075141      0x2  Code  Gb  stm32f7xx_it.o [1]
Delay                   0x080731e1     0x14  Code  Lc  audio_codec.o [1]
DmaHandle               0x20010074     0x50  Data  Gb  audio_codec.o [1]
EXTI4_IRQHandler        0x08071e6b     0x2e  Code  Gb  main.o [1]
GPIO_INS                0x2001e0f4     0x14  Data  Gb  main.o [1]
GPIO_PIN                0x08072020      0x8  Data  Gb  stm32746g_discovery.o [1]
HAL_DMA_DeInit          0x080702ef    0x402  Code  Gb  stm32f7xx_hal_dma.o [1]
HAL_DMA_IRQHandler      0x080707b5    0x9bc  Code  Gb  stm32f7xx_hal_dma.o [1]
HAL_DMA_Init            0x08070283     0x6c  Code  Gb  stm32f7xx_hal_dma.o [1]
HAL_DMA_Start_IT        0x08070715     0x42  Code  Gb  stm32f7xx_hal_dma.o [1]
HAL_GPIO_Init           0x08072051    0x1c6  Code  Gb  stm32f7xx_hal_gpio.o [1]
HAL_GPIO_TogglePin      0x0807221f      0x8  Code  Gb  stm32f7xx_hal_gpio.o [1]
HAL_GPIO_WritePin       0x08072217      0x8  Code  Gb  stm32f7xx_hal_gpio.o [1]
HAL_GetTick             0x08071f55      0x6  Code  Wk  stm32f7xx_hal.o [1]
HAL_HCD_Connect_Callback
                        0x08074751      0x8  Code  Gb  usbh_conf.o [1]
HAL_HCD_Disconnect_Callback
                        0x08074759      0x8  Code  Gb  usbh_conf.o [1]
HAL_HCD_HC_NotifyURBChange_Callback
                        0x08074761      0x2  Code  Gb  usbh_conf.o [1]
HAL_HCD_IRQHandler      0x08074005    0x10e  Code  Gb  stm32f7xx_hal_hcd.o [1]
HAL_HCD_SOF_Callback    0x08074749      0x8  Code  Gb  usbh_conf.o [1]
HAL_HCD_Start           0x08074119     0x20  Code  Gb  stm32f7xx_hal_hcd.o [1]
HAL_HCD_Stop            0x0807414b     0x1a  Code  Gb  stm32f7xx_hal_hcd.o [1]
HAL_I2CEx_ConfigAnalogFilter
                        0x08072d41     0x40  Code  Gb  stm32f7xx_hal_i2c_ex.o [1]
HAL_I2C_EV_IRQHandler   0x08071463     0xfe  Code  Gb  stm32f7xx_hal_i2c.o [1]
HAL_I2C_ErrorCallback   0x0807156d      0x2  Code  Wk  stm32f7xx_hal_i2c.o [1]
HAL_I2C_GetError        0x0807156f      0x4  Code  Gb  stm32f7xx_hal_i2c.o [1]
HAL_I2C_Init            0x080711bd     0x9c  Code  Gb  stm32f7xx_hal_i2c.o [1]
HAL_I2C_MasterRxCpltCallback
                        0x08071563      0x2  Code  Wk  stm32f7xx_hal_i2c.o [1]
HAL_I2C_MasterTxCpltCallback
                        0x08071561      0x2  Code  Wk  stm32f7xx_hal_i2c.o [1]
HAL_I2C_Master_Receive  0x08071323     0xb0  Code  Gb  stm32f7xx_hal_i2c.o [1]
HAL_I2C_Master_Transmit
                        0x08071259     0xae  Code  Gb  stm32f7xx_hal_i2c.o [1]
HAL_I2C_MemRxCpltCallback
                        0x0807156b      0x2  Code  Wk  stm32f7xx_hal_i2c.o [1]
HAL_I2C_MemTxCpltCallback
                        0x08071569      0x2  Code  Wk  stm32f7xx_hal_i2c.o [1]
HAL_I2C_MspInit         0x08071bf1     0x7c  Code  Gb  main.o [1]
HAL_I2C_SlaveRxCpltCallback
                        0x08071567      0x2  Code  Wk  stm32f7xx_hal_i2c.o [1]
HAL_I2C_SlaveTxCpltCallback
                        0x08071565      0x2  Code  Wk  stm32f7xx_hal_i2c.o [1]
HAL_I2S_ErrorCallback   0x080735fb      0x2  Code  Wk  stm32f7xx_hal_i2s.o [1]
HAL_I2S_Init            0x08073445     0xf6  Code  Gb  stm32f7xx_hal_i2s.o [1]
HAL_I2S_MspInit         0x080731ff    0x188  Code  Gb  audio_codec.o [1]
HAL_I2S_Transmit_DMA    0x0807355f     0x92  Code  Gb  stm32f7xx_hal_i2s.o [1]
HAL_I2S_TxCpltCallback  0x080735f9      0x2  Code  Wk  stm32f7xx_hal_i2s.o [1]
HAL_I2S_TxHalfCpltCallback
                        0x080735f7      0x2  Code  Wk  stm32f7xx_hal_i2s.o [1]
HAL_IncTick             0x08071f4b      0xa  Code  Wk  stm32f7xx_hal.o [1]
HAL_Init                0x08071f05     0x20  Code  Gb  stm32f7xx_hal.o [1]
HAL_InitTick            0x08071f27     0x24  Code  Wk  stm32f7xx_hal.o [1]
HAL_MspInit             0x08071f25      0x2  Code  Wk  stm32f7xx_hal.o [1]
HAL_NVIC_DisableIRQ     0x080722d7      0xa  Code  Gb  stm32f7xx_hal_cortex.o [1]
HAL_NVIC_EnableIRQ      0x080722cb      0xc  Code  Gb  stm32f7xx_hal_cortex.o [1]
HAL_NVIC_SetPriority    0x08072291     0x3a  Code  Gb  stm32f7xx_hal_cortex.o [1]
HAL_NVIC_SetPriorityGrouping
                        0x08072277     0x1a  Code  Gb  stm32f7xx_hal_cortex.o [1]
HAL_PWREx_EnableOverDrive
                        0x08072869     0x4a  Code  Gb  stm32f7xx_hal_pwr_ex.o [1]
HAL_RCCEx_PeriphCLKConfig
                        0x080728dd    0x42c  Code  Gb  stm32f7xx_hal_rcc_ex.o [1]
HAL_RCC_ClockConfig     0x08072657    0x142  Code  Gb  stm32f7xx_hal_rcc.o [1]
HAL_RCC_GetHCLKFreq     0x08072819     0x1e  Code  Gb  stm32f7xx_hal_rcc.o [1]
HAL_RCC_GetSysClockFreq
                        0x080727d3     0x46  Code  Gb  stm32f7xx_hal_rcc.o [1]
HAL_RCC_OscConfig       0x08072341    0x2f8  Code  Gb  stm32f7xx_hal_rcc.o [1]
HAL_SPI_Init            0x08072db1     0xac  Code  Gb  stm32f7xx_hal_spi.o [1]
HAL_SPI_MspInit         0x08071c81     0xb0  Code  Gb  main.o [1]
HAL_SYSTICK_CLKSourceConfig
                        0x08072311     0x14  Code  Gb  stm32f7xx_hal_cortex.o [1]
HAL_SYSTICK_Config      0x080722e9     0x28  Code  Gb  stm32f7xx_hal_cortex.o [1]
HAL_UART_ErrorCallback  0x08074a03      0x2  Code  Wk  stm32f7xx_hal_uart.o [1]
HAL_UART_IRQHandler     0x08074869     0xfa  Code  Gb  stm32f7xx_hal_uart.o [1]
HAL_UART_RxCpltCallback
                        0x08074a01      0x2  Code  Wk  stm32f7xx_hal_uart.o [1]
HAL_UART_TxCpltCallback
                        0x080749ff      0x2  Code  Wk  stm32f7xx_hal_uart.o [1]
HCD_HC_IN_IRQHandler    0x08074165    0x17c  Code  Lc  stm32f7xx_hal_hcd.o [1]
HCD_HC_OUT_IRQHandler   0x08074303    0x14c  Code  Lc  stm32f7xx_hal_hcd.o [1]
HCD_Port_IRQHandler     0x080744cd     0xb2  Code  Lc  stm32f7xx_hal_hcd.o [1]
HCD_RXQLVL_IRQHandler   0x08074461     0x66  Code  Lc  stm32f7xx_hal_hcd.o [1]
HEAP$$Base              0x20020138            --   Gb  - Linker created -
HEAP$$Limit             0x20022138            --   Gb  - Linker created -
HardFault_Handler       0x08075137      0x2  Code  Gb  stm32f7xx_it.o [1]
I2C1_EV_IRQHandler      0x0807516b      0x6  Code  Gb  stm32f7xx_it.o [1]
I2C_IsAcknowledgeFailed
                        0x08071949     0x72  Code  Lc  stm32f7xx_hal_i2c.o [1]
I2C_MasterReceive_ISR   0x08071613     0x9e  Code  Lc  stm32f7xx_hal_i2c.o [1]
I2C_MasterTransmit_ISR  0x08071573     0xa0  Code  Lc  stm32f7xx_hal_i2c.o [1]
I2C_SlaveReceive_ISR    0x080717b9     0x6a  Code  Lc  stm32f7xx_hal_i2c.o [1]
I2C_SlaveTransmit_ISR   0x08071741     0x78  Code  Lc  stm32f7xx_hal_i2c.o [1]
I2C_TransferConfig      0x080719cd     0x1e  Code  Lc  stm32f7xx_hal_i2c.o [1]
I2C_WaitOnFlagUntilTimeout
                        0x08071851     0x5a  Code  Lc  stm32f7xx_hal_i2c.o [1]
I2C_WaitOnSTOPFlagUntilTimeout
                        0x080718f3     0x30  Code  Lc  stm32f7xx_hal_i2c.o [1]
I2C_WaitOnTXISFlagUntilTimeout
                        0x080718bd     0x36  Code  Lc  stm32f7xx_hal_i2c.o [1]
I2S_DMAError            0x0807363d     0x28  Code  Lc  stm32f7xx_hal_i2s.o [1]
I2S_DMATxCplt           0x080735fd     0x34  Code  Lc  stm32f7xx_hal_i2s.o [1]
I2S_DMATxHalfCplt       0x08073631      0xa  Code  Lc  stm32f7xx_hal_i2s.o [1]
InStream_Read           0x08074bfd     0x22  Code  Lc  packbits_init.o [5]
LoadInt                 0x08073a95     0x4c  Code  Lc  xprintfsmall.o [3]
MX_I2C1_Init            0x08071bb9     0x38  Code  Gb  main.o [1]
MX_SPI5_Init            0x08071d45     0x50  Code  Gb  main.o [1]
MemManage_Handler       0x08075139      0x2  Code  Gb  stm32f7xx_it.o [1]
NMI_Handler             0x08075135      0x2  Code  Gb  stm32f7xx_it.o [1]
NVIC_SetPriority        0x0807225d     0x1a  Code  Lc  stm32f7xx_hal_cortex.o [1]
OTG_FS_IRQHandler       0x08075171      0x6  Code  Gb  stm32f7xx_it.o [1]
OutputDev               0x2001de7c      0x1  Data  Gb  audio_codec.o [1]
PendSV_Handler          0x08075143      0x2  Code  Gb  stm32f7xx_it.o [1]
Region$$Table$$Base     0x08075318            --   Gb  - Linker created -
Region$$Table$$Limit    0x08075344            --   Gb  - Linker created -
SPI3_IRQHandler         0x08072fc5      0xa  Code  Gb  audio_codec.o [1]
SPI5_IRQHandler         0x08071d95     0xd6  Code  Gb  main.o [1]
SVC_Handler             0x0807513f      0x2  Code  Gb  stm32f7xx_it.o [1]
SysTick_Handler         0x08075145     0x20  Code  Gb  stm32f7xx_it.o [1]
SystemClock_Config      0x08071afd     0xbc  Code  Lc  main.o [1]
SystemCoreClock         0x200101c0      0x4  Data  Gb  system_stm32f7xx.o [1]
SystemInit              0x0807523d     0x3a  Code  Gb  system_stm32f7xx.o [1]
Toggle_Leds             0x08071aeb     0x12  Code  Gb  main.o [1]
UART_Receive_IT         0x08074a97     0x84  Code  Lc  stm32f7xx_hal_uart.o [1]
UART_Transmit_IT        0x08074a05     0x92  Code  Lc  stm32f7xx_hal_uart.o [1]
UART_WaitOnFlagUntilTimeout
                        0x08074963     0x8c  Code  Gb  stm32f7xx_hal_uart.o [1]
USART6_IRQHandler       0x08075165      0x6  Code  Gb  stm32f7xx_it.o [1]
USBH_FreePipe           0x08074851     0x18  Code  Gb  usbh_pipes.o [1]
USBH_LL_Connect         0x0807479d     0x28  Code  Gb  usbh_core.o [1]
USBH_LL_Disconnect      0x080747c5     0x42  Code  Gb  usbh_core.o [1]
USBH_LL_IncTimer        0x08074781     0x1c  Code  Gb  usbh_core.o [1]
USBH_LL_Start           0x08074763      0xe  Code  Gb  usbh_conf.o [1]
USBH_LL_Stop            0x08074771      0xe  Code  Gb  usbh_conf.o [1]
USB_DisableGlobalInt    0x08074589      0x6  Code  Gb  stm32f7xx_ll_usb.o [1]
USB_DriveVbus           0x0807462f     0x3e  Code  Gb  stm32f7xx_ll_usb.o [1]
USB_EnableGlobalInt     0x08074581      0x8  Code  Gb  stm32f7xx_ll_usb.o [1]
USB_FlushRxFifo         0x080745b3     0x1a  Code  Gb  stm32f7xx_ll_usb.o [1]
USB_FlushTxFifo         0x08074595     0x1e  Code  Gb  stm32f7xx_ll_usb.o [1]
USB_GetMode             0x080745f9      0x8  Code  Gb  stm32f7xx_ll_usb.o [1]
USB_HC_Halt             0x08074677     0x56  Code  Gb  stm32f7xx_ll_usb.o [1]
USB_HC_ReadInterrupt    0x0807466d      0xa  Code  Gb  stm32f7xx_ll_usb.o [1]
USB_InitFSLSPClkSel     0x08074601     0x2e  Code  Gb  stm32f7xx_ll_usb.o [1]
USB_ReadInterrupts      0x080745f1      0x8  Code  Gb  stm32f7xx_ll_usb.o [1]
USB_ReadPacket          0x080745cd     0x24  Code  Gb  stm32f7xx_ll_usb.o [1]
USB_StopHost            0x080746d1     0x76  Code  Gb  stm32f7xx_ll_usb.o [1]
UsageFault_Handler      0x0807513d      0x2  Code  Gb  stm32f7xx_it.o [1]
Volume                  0x200101d0      0x1  Data  Gb  audio_codec.o [1]
WavePlayerInit          0x08072029     0x12  Code  Gb  waveplayer _CS43L22.o [1]
_Close_all              0x0807518d     0x58  Code  Gb  xcloseall.o [3]
_EncodingSb_Mbtowc      0x08073fbb     0x30  Code  Gb  xencoding_sb.o [3]
_EncodingSb_Wctomb      0x08073fa1     0x1a  Code  Gb  xencoding_sb.o [3]
_Files                  0x20010190     0x20  Data  Gb  xfiles.o [3]
_Fofree                 0x0807500d     0x78  Code  Gb  xfofind.o [3]
_Fspos                  0x08074cd5     0xd6  Code  Gb  xfspos.o [3]
_Fwprep                 0x08074f35     0xb6  Code  Gb  xfwprep.o [3]
_IsdstStr               0x20010004      0x4  Data  Gb  setlocale.o [3]
_LitobSmall             0x08073d13     0xce  Code  Lc  xprintfsmall.o [3]
_LocaleEncoding         0x08073f8d      0xe  Code  Gb  setlocale.o [3]
_LocaleReturnString     0x20010024     0x50  Data  Lc  setlocale.o [3]
_Locale_Profile         0x20010008     0x1c  Data  Gb  setlocale.o [3]
_Mbtowc                 0x08073e29     0x20  Code  Gb  xmbtowc.o [3]
_Nnl                    0x08074e5d      0xa  Code  Gb  xfgpos.o [3]
_PrintfSmall            0x08073665    0x430  Code  Gb  xprintfsmall.o [3]
_Prout                  0x08075377     0x16  Code  Gb  xprout.o [3]
_PutcharsSmall          0x08073de1     0x2e  Code  Lc  xprintfsmall.o [3]
_PutstrSmall            0x08073ae1    0x228  Code  Lc  xprintfsmall.o [3]
_TzoneStr               0x20010000      0x4  Data  Gb  setlocale.o [3]
_Wctomb                 0x08073efb     0x1a  Code  Gb  xwctomb.o [3]
__aeabi_errno_addr      0x08074eb5      0x6  Code  Gb  errno.o [3]
__cexit_closeall        0x0807536b           Code  Gb  cexit.o [5]
__close                 0x08075103     0x1a  Code  Gb  close.o [6]
__cmain                 0x08075345           Code  Gb  cmain.o [5]
__cstart_closeall       0x08075518           Data  Gb  cstart_closeall.o [5]
__data_GetMemChunk      0x080701b1     0x2c  Code  Gb  xgetmemchunk.o [3]
__dwrite                0x08074ed5     0x1e  Code  Gb  dwrite.o [6]
__exit                  0x080701dd     0x14  Code  Gb  exit.o [6]
__iar_Errno             0x200101cc      0x4  Data  Gb  errno.o [3]
__iar_Lockfilelock      0x08074ec1      0x2  Code  Gb  xsyslock_nop.o [3]
__iar_Mbcurmax          0x08073ef1      0xa  Code  Gb  xmbcurmax.o [3]
__iar_Memchr            0x08073e99           Code  Gb  memchr.o [5]
__iar_Stderr            0x20010150     0x40  Data  Gb  xfiles.o [3]
__iar_Stdin             0x200100d0     0x40  Data  Gb  xfiles.o [3]
__iar_Stdout            0x20010110     0x40  Data  Gb  xfiles.o [3]
__iar_Strchr            0x08073e49           Code  Gb  strchr.o [5]
__iar_Unlockfilelock    0x08074ec3      0x2  Code  Gb  xsyslock_nop.o [3]
__iar_close_ttio        0x080701f1     0x2e  Code  Gb  iarttio.o [6]
__iar_data_init3        0x080752cd     0x28  Code  Gb  data_init.o [5]
__iar_dlfree            0x0806fc8f    0x510  Code  Gb  dlmalloc.o [3]
__iar_dlib_perthread_access
                        0x08074001      0x2  Code  Gb  xtls.o [3]
__iar_dlmalloc          0x0806f9d9    0x2aa  Code  Gb  dlmalloc.o [3]
__iar_get_ttio          0x08070221     0x38  Code  Gb  iarttio.o [6]
__iar_init_vfp          0x080752f5           Code  Gb  fpinit_M.o [4]
__iar_lookup_ttioh      0x0807025d      0x8  Code  Gb  XShttio.o [3]
__iar_packbits_init3    0x08074c1f     0xb6  Code  Gb  packbits_init.o [5]
__iar_program_start     0x080753a9           Code  Gb  cstartup_M.o [5]
__iar_sh_Discard        0x08074b1d     0x44  Code  Gb  XShHandles.o [3]
__iar_sh_Move           0x08074b67     0x4c  Code  Gb  XShHandles.o [3]
__iar_sh_Pos            0x08074bb3     0x44  Code  Gb  XShHandles.o [3]
__iar_sh_stdout         0x08074ef3     0x20  Code  Gb  iarwstd.o [6]
__iar_sh_write          0x08074f13     0x22  Code  Gb  iarwrite.o [6]
__iar_ttio_handles      0x200101c4      0x8  Data  Lc  XShttio.o [3]
__iar_unaligned___aeabi_memcpy
                        0x08073f15           Code  Gb  ABImemcpy_unaligned.o [5]
__iar_unaligned___aeabi_memcpy4
                        0x08073f35           Code  Gb  ABImemcpy_unaligned.o [5]
__iar_unaligned___aeabi_memcpy8
                        0x08073f35           Code  Gb  ABImemcpy_unaligned.o [5]
__iar_zero_init3        0x0807528d     0x40  Code  Gb  zero_init3.o [5]
__low_level_init        0x0807535f      0x4  Code  Gb  low_level_init.o [3]
__lseek                 0x08074e67     0x4c  Code  Gb  lseek.o [6]
__vector_table          0x08000000           Data  Gb  startup_stm32f746xx.o [1]
__write                 0x08074ec5     0x10  Code  Gb  write.o [6]
_call_main              0x08075351           Code  Gb  cmain.o [5]
_exit                   0x08075369           Code  Gb  cexit.o [5]
_gm_                    0x2001dca4    0x1d8  Data  Lc  dlmalloc.o [3]
_main                   0x0807535b           Code  Gb  cmain.o [5]
abort                   0x080701a9      0x6  Code  Gb  abort.o [3]
cntOS                   0x2001e128      0x4  Data  Gb  stm32f7xx_it.o [1]
cntRisingEXTI           0x2001e130      0x2  Data  Gb  main.o [1]
ebuf                    0x2001e050     0x50  Data  Lc  xfiles.o [3]
exit                    0x08075363      0x4  Code  Gb  exit.o [3]
fclose                  0x08075089     0x7a  Code  Gb  fclose.o [3]
fflush                  0x08074e23     0x34  Code  Gb  fflush.o [3]
fflushOne               0x08074dad     0x76  Code  Lc  fflush.o [3]
flg10ms                 0x2001e0f0      0x1  Data  Gb  main.o [1]
flgSTAIni               0x200191f4      0x1  Data  Gb  main.o [1]
fputc                   0x080751e5     0x56  Code  Gb  fputc.o [3]
fseek                   0x08074feb     0x22  Code  Gb  fseek.o [3]
hhcd                    0x2001da10    0x294  Data  Gb  usbh_conf.o [1]
hi2c1                   0x2001dec0     0x3c  Data  Gb  audio_codec.o [1]
hi2s3                   0x2001de80     0x40  Data  Gb  audio_codec.o [1]
hspi5                   0x2001dfec     0x64  Data  Gb  main.o [1]
huart6                  0x2001df7c     0x70  Data  Gb  main.o [1]
idxSPI5DataBuf1         0x200191f8      0x2  Data  Gb  main.o [1]
idxSPI5DataBuf2         0x200191fa      0x2  Data  Gb  main.o [1]
init_mparams            0x0806ecd3     0x32  Code  Lc  dlmalloc.o [3]
init_top                0x0806ed05     0x34  Code  Lc  dlmalloc.o [3]
main                    0x080719f5     0xec  Code  Gb  main.o [1]
memchr                  0x08073e99           Code  Gb  memchr.o [5]
mparams                 0x2001e108     0x18  Data  Lc  dlmalloc.o [3]
obuf                    0x2001e0a0     0x50  Data  Lc  xfiles.o [3]
prepend_alloc           0x0806ed39    0x36c  Code  Lc  dlmalloc.o [3]
printf                  0x0807482d     0x24  Code  Gb  printf.o [3]
putchar                 0x0807538d      0xc  Code  Gb  putchar.o [3]
remove                  0x0807511d     0x16  Code  Gb  remove.o [6]
sFileInfo               0x2001defc     0x80  Data  Lc  XShHandles.o [3]
segment_holding         0x0806ecb9     0x1a  Code  Lc  dlmalloc.o [3]
strchr                  0x08073e49           Code  Gb  strchr.o [5]
strlen                  0x08073e61           Code  Gb  strlen.o [5]
sys_alloc               0x0806f0a5    0x386  Code  Lc  dlmalloc.o [3]
tmalloc_large           0x0806f439    0x390  Code  Lc  dlmalloc.o [3]
tmalloc_small           0x0806f7c9    0x210  Code  Lc  dlmalloc.o [3]
uwTick                  0x2001e124      0x4  Data  Lc  stm32f7xx_hal.o [1]
volume                  0x200101d1      0x1  Data  Gb  waveplayer _CS43L22.o [1]


[1] = H:\PhanLeSon\ActivNoise\Microphone\F7\Mic_Array_Project\Mic_Array\Projects\STM32746G\Applications\Audio\Mic_Array\EWARM\STM32F7\Obj
[2] = command line
[3] = dl7M_tlf.a
[4] = m7M_tls.a
[5] = rt7M_tl.a
[6] = shb_l.a

   27 130 bytes of readonly  code memory
  453 558 bytes of readonly  data memory
   74 032 bytes of readwrite data memory

Errors: none
Warnings: none
