###############################################################################
#
# IAR ELF Linker V7.50.2.10312/W32 for ARM                20/Feb/2016  22:27:51
# Copyright 2007-2015 IAR Systems AB.
#
#    Output file  =  
#        H:\PhanLeSon\ActivNoise\Microphone\F7\Mic_Array_Project\Mic_Array\Projects\STM32746G\Applications\Audio\Mic_Array\EWARM\STM32F7\Exe\Project.out
#    Map file     =  
#        H:\PhanLeSon\ActivNoise\Microphone\F7\Mic_Array_Project\Mic_Array\Projects\STM32746G\Applications\Audio\Mic_Array\EWARM\STM32F7\List\Project.map
#    Command line =  
#        H:\PhanLeSon\ActivNoise\Microphone\F7\Mic_Array_Project\Mic_Array\Projects\STM32746G\Applications\Audio\Mic_Array\EWARM\STM32F7\Obj\audio_application.o
#        H:\PhanLeSon\ActivNoise\Microphone\F7\Mic_Array_Project\Mic_Array\Projects\STM32746G\Applications\Audio\Mic_Array\EWARM\STM32F7\Obj\audio_codec.o
#        H:\PhanLeSon\ActivNoise\Microphone\F7\Mic_Array_Project\Mic_Array\Projects\STM32746G\Applications\Audio\Mic_Array\EWARM\STM32F7\Obj\DSP.o
#        H:\PhanLeSon\ActivNoise\Microphone\F7\Mic_Array_Project\Mic_Array\Projects\STM32746G\Applications\Audio\Mic_Array\EWARM\STM32F7\Obj\ff.o
#        H:\PhanLeSon\ActivNoise\Microphone\F7\Mic_Array_Project\Mic_Array\Projects\STM32746G\Applications\Audio\Mic_Array\EWARM\STM32F7\Obj\ft5336.o
#        H:\PhanLeSon\ActivNoise\Microphone\F7\Mic_Array_Project\Mic_Array\Middlewares\ST\STM32_Audio\Addons\PDM\libPDMFilter_CM7_IAR.a
#        H:\PhanLeSon\ActivNoise\Microphone\F7\Mic_Array_Project\Mic_Array\Projects\STM32746G\Applications\Audio\Mic_Array\EWARM\STM32F7\Obj\main.o
#        H:\PhanLeSon\ActivNoise\Microphone\F7\Mic_Array_Project\Mic_Array\Projects\STM32746G\Applications\Audio\Mic_Array\EWARM\STM32F7\Obj\sta321mp.o
#        H:\PhanLeSon\ActivNoise\Microphone\F7\Mic_Array_Project\Mic_Array\Projects\STM32746G\Applications\Audio\Mic_Array\EWARM\STM32F7\Obj\startup_stm32f746xx.o
#        H:\PhanLeSon\ActivNoise\Microphone\F7\Mic_Array_Project\Mic_Array\Projects\STM32746G\Applications\Audio\Mic_Array\EWARM\STM32F7\Obj\stm32746g_discovery.o
#        H:\PhanLeSon\ActivNoise\Microphone\F7\Mic_Array_Project\Mic_Array\Projects\STM32746G\Applications\Audio\Mic_Array\EWARM\STM32F7\Obj\stm32746g_discovery_lcd.o
#        H:\PhanLeSon\ActivNoise\Microphone\F7\Mic_Array_Project\Mic_Array\Projects\STM32746G\Applications\Audio\Mic_Array\EWARM\STM32F7\Obj\stm32746g_discovery_sdram.o
#        H:\PhanLeSon\ActivNoise\Microphone\F7\Mic_Array_Project\Mic_Array\Projects\STM32746G\Applications\Audio\Mic_Array\EWARM\STM32F7\Obj\stm32746g_discovery_ts.o
#        H:\PhanLeSon\ActivNoise\Microphone\F7\Mic_Array_Project\Mic_Array\Projects\STM32746G\Applications\Audio\Mic_Array\EWARM\STM32F7\Obj\stm32f7xx_hal.o
#        H:\PhanLeSon\ActivNoise\Microphone\F7\Mic_Array_Project\Mic_Array\Projects\STM32746G\Applications\Audio\Mic_Array\EWARM\STM32F7\Obj\stm32f7xx_hal_cortex.o
#        H:\PhanLeSon\ActivNoise\Microphone\F7\Mic_Array_Project\Mic_Array\Projects\STM32746G\Applications\Audio\Mic_Array\EWARM\STM32F7\Obj\stm32f7xx_hal_dma.o
#        H:\PhanLeSon\ActivNoise\Microphone\F7\Mic_Array_Project\Mic_Array\Projects\STM32746G\Applications\Audio\Mic_Array\EWARM\STM32F7\Obj\stm32f7xx_hal_dma2d.o
#        H:\PhanLeSon\ActivNoise\Microphone\F7\Mic_Array_Project\Mic_Array\Projects\STM32746G\Applications\Audio\Mic_Array\EWARM\STM32F7\Obj\stm32f7xx_hal_dma_ex.o
#        H:\PhanLeSon\ActivNoise\Microphone\F7\Mic_Array_Project\Mic_Array\Projects\STM32746G\Applications\Audio\Mic_Array\EWARM\STM32F7\Obj\stm32f7xx_hal_flash.o
#        H:\PhanLeSon\ActivNoise\Microphone\F7\Mic_Array_Project\Mic_Array\Projects\STM32746G\Applications\Audio\Mic_Array\EWARM\STM32F7\Obj\stm32f7xx_hal_flash_ex.o
#        H:\PhanLeSon\ActivNoise\Microphone\F7\Mic_Array_Project\Mic_Array\Projects\STM32746G\Applications\Audio\Mic_Array\EWARM\STM32F7\Obj\stm32f7xx_hal_gpio.o
#        H:\PhanLeSon\ActivNoise\Microphone\F7\Mic_Array_Project\Mic_Array\Projects\STM32746G\Applications\Audio\Mic_Array\EWARM\STM32F7\Obj\stm32f7xx_hal_hcd.o
#        H:\PhanLeSon\ActivNoise\Microphone\F7\Mic_Array_Project\Mic_Array\Projects\STM32746G\Applications\Audio\Mic_Array\EWARM\STM32F7\Obj\stm32f7xx_hal_i2c.o
#        H:\PhanLeSon\ActivNoise\Microphone\F7\Mic_Array_Project\Mic_Array\Projects\STM32746G\Applications\Audio\Mic_Array\EWARM\STM32F7\Obj\stm32f7xx_hal_i2c_ex.o
#        H:\PhanLeSon\ActivNoise\Microphone\F7\Mic_Array_Project\Mic_Array\Projects\STM32746G\Applications\Audio\Mic_Array\EWARM\STM32F7\Obj\stm32f7xx_hal_i2s.o
#        H:\PhanLeSon\ActivNoise\Microphone\F7\Mic_Array_Project\Mic_Array\Projects\STM32746G\Applications\Audio\Mic_Array\EWARM\STM32F7\Obj\stm32f7xx_hal_ltdc.o
#        H:\PhanLeSon\ActivNoise\Microphone\F7\Mic_Array_Project\Mic_Array\Projects\STM32746G\Applications\Audio\Mic_Array\EWARM\STM32F7\Obj\stm32f7xx_hal_pcd.o
#        H:\PhanLeSon\ActivNoise\Microphone\F7\Mic_Array_Project\Mic_Array\Projects\STM32746G\Applications\Audio\Mic_Array\EWARM\STM32F7\Obj\stm32f7xx_hal_pcd_ex.o
#        H:\PhanLeSon\ActivNoise\Microphone\F7\Mic_Array_Project\Mic_Array\Projects\STM32746G\Applications\Audio\Mic_Array\EWARM\STM32F7\Obj\stm32f7xx_hal_pwr.o
#        H:\PhanLeSon\ActivNoise\Microphone\F7\Mic_Array_Project\Mic_Array\Projects\STM32746G\Applications\Audio\Mic_Array\EWARM\STM32F7\Obj\stm32f7xx_hal_pwr_ex.o
#        H:\PhanLeSon\ActivNoise\Microphone\F7\Mic_Array_Project\Mic_Array\Projects\STM32746G\Applications\Audio\Mic_Array\EWARM\STM32F7\Obj\stm32f7xx_hal_rcc.o
#        H:\PhanLeSon\ActivNoise\Microphone\F7\Mic_Array_Project\Mic_Array\Projects\STM32746G\Applications\Audio\Mic_Array\EWARM\STM32F7\Obj\stm32f7xx_hal_rcc_ex.o
#        H:\PhanLeSon\ActivNoise\Microphone\F7\Mic_Array_Project\Mic_Array\Projects\STM32746G\Applications\Audio\Mic_Array\EWARM\STM32F7\Obj\stm32f7xx_hal_sai.o
#        H:\PhanLeSon\ActivNoise\Microphone\F7\Mic_Array_Project\Mic_Array\Projects\STM32746G\Applications\Audio\Mic_Array\EWARM\STM32F7\Obj\stm32f7xx_hal_sai_ex.o
#        H:\PhanLeSon\ActivNoise\Microphone\F7\Mic_Array_Project\Mic_Array\Projects\STM32746G\Applications\Audio\Mic_Array\EWARM\STM32F7\Obj\stm32f7xx_hal_sdram.o
#        H:\PhanLeSon\ActivNoise\Microphone\F7\Mic_Array_Project\Mic_Array\Projects\STM32746G\Applications\Audio\Mic_Array\EWARM\STM32F7\Obj\stm32f7xx_hal_spi.o
#        H:\PhanLeSon\ActivNoise\Microphone\F7\Mic_Array_Project\Mic_Array\Projects\STM32746G\Applications\Audio\Mic_Array\EWARM\STM32F7\Obj\stm32f7xx_hal_sram.o
#        H:\PhanLeSon\ActivNoise\Microphone\F7\Mic_Array_Project\Mic_Array\Projects\STM32746G\Applications\Audio\Mic_Array\EWARM\STM32F7\Obj\stm32f7xx_hal_tim.o
#        H:\PhanLeSon\ActivNoise\Microphone\F7\Mic_Array_Project\Mic_Array\Projects\STM32746G\Applications\Audio\Mic_Array\EWARM\STM32F7\Obj\stm32f7xx_hal_tim_ex.o
#        H:\PhanLeSon\ActivNoise\Microphone\F7\Mic_Array_Project\Mic_Array\Projects\STM32746G\Applications\Audio\Mic_Array\EWARM\STM32F7\Obj\stm32f7xx_hal_uart.o
#        H:\PhanLeSon\ActivNoise\Microphone\F7\Mic_Array_Project\Mic_Array\Projects\STM32746G\Applications\Audio\Mic_Array\EWARM\STM32F7\Obj\stm32f7xx_it.o
#        H:\PhanLeSon\ActivNoise\Microphone\F7\Mic_Array_Project\Mic_Array\Projects\STM32746G\Applications\Audio\Mic_Array\EWARM\STM32F7\Obj\stm32f7xx_ll_fmc.o
#        H:\PhanLeSon\ActivNoise\Microphone\F7\Mic_Array_Project\Mic_Array\Projects\STM32746G\Applications\Audio\Mic_Array\EWARM\STM32F7\Obj\stm32f7xx_ll_usb.o
#        H:\PhanLeSon\ActivNoise\Microphone\F7\Mic_Array_Project\Mic_Array\Projects\STM32746G\Applications\Audio\Mic_Array\EWARM\STM32F7\Obj\system_stm32f7xx.o
#        H:\PhanLeSon\ActivNoise\Microphone\F7\Mic_Array_Project\Mic_Array\Projects\STM32746G\Applications\Audio\Mic_Array\EWARM\STM32F7\Obj\usbd_audio_if.o
#        H:\PhanLeSon\ActivNoise\Microphone\F7\Mic_Array_Project\Mic_Array\Projects\STM32746G\Applications\Audio\Mic_Array\EWARM\STM32F7\Obj\usbd_audio_in.o
#        H:\PhanLeSon\ActivNoise\Microphone\F7\Mic_Array_Project\Mic_Array\Projects\STM32746G\Applications\Audio\Mic_Array\EWARM\STM32F7\Obj\usbd_conf_f4.o
#        H:\PhanLeSon\ActivNoise\Microphone\F7\Mic_Array_Project\Mic_Array\Projects\STM32746G\Applications\Audio\Mic_Array\EWARM\STM32F7\Obj\usbd_core.o
#        H:\PhanLeSon\ActivNoise\Microphone\F7\Mic_Array_Project\Mic_Array\Projects\STM32746G\Applications\Audio\Mic_Array\EWARM\STM32F7\Obj\usbd_ctlreq.o
#        H:\PhanLeSon\ActivNoise\Microphone\F7\Mic_Array_Project\Mic_Array\Projects\STM32746G\Applications\Audio\Mic_Array\EWARM\STM32F7\Obj\usbd_desc.o
#        H:\PhanLeSon\ActivNoise\Microphone\F7\Mic_Array_Project\Mic_Array\Projects\STM32746G\Applications\Audio\Mic_Array\EWARM\STM32F7\Obj\usbd_ioreq.o
#        H:\PhanLeSon\ActivNoise\Microphone\F7\Mic_Array_Project\Mic_Array\Projects\STM32746G\Applications\Audio\Mic_Array\EWARM\STM32F7\Obj\usbh_conf.o
#        H:\PhanLeSon\ActivNoise\Microphone\F7\Mic_Array_Project\Mic_Array\Projects\STM32746G\Applications\Audio\Mic_Array\EWARM\STM32F7\Obj\usbh_core.o
#        H:\PhanLeSon\ActivNoise\Microphone\F7\Mic_Array_Project\Mic_Array\Projects\STM32746G\Applications\Audio\Mic_Array\EWARM\STM32F7\Obj\usbh_ctlreq.o
#        H:\PhanLeSon\ActivNoise\Microphone\F7\Mic_Array_Project\Mic_Array\Projects\STM32746G\Applications\Audio\Mic_Array\EWARM\STM32F7\Obj\usbh_diskio.o
#        H:\PhanLeSon\ActivNoise\Microphone\F7\Mic_Array_Project\Mic_Array\Projects\STM32746G\Applications\Audio\Mic_Array\EWARM\STM32F7\Obj\usbh_ioreq.o
#        H:\PhanLeSon\ActivNoise\Microphone\F7\Mic_Array_Project\Mic_Array\Projects\STM32746G\Applications\Audio\Mic_Array\EWARM\STM32F7\Obj\usbh_msc.o
#        H:\PhanLeSon\ActivNoise\Microphone\F7\Mic_Array_Project\Mic_Array\Projects\STM32746G\Applications\Audio\Mic_Array\EWARM\STM32F7\Obj\usbh_msc_bot.o
#        H:\PhanLeSon\ActivNoise\Microphone\F7\Mic_Array_Project\Mic_Array\Projects\STM32746G\Applications\Audio\Mic_Array\EWARM\STM32F7\Obj\usbh_msc_scsi.o
#        H:\PhanLeSon\ActivNoise\Microphone\F7\Mic_Array_Project\Mic_Array\Projects\STM32746G\Applications\Audio\Mic_Array\EWARM\STM32F7\Obj\usbh_pipes.o
#        "H:\PhanLeSon\ActivNoise\Microphone\F7\Mic_Array_Project\Mic_Array\Projects\STM32746G\Applications\Audio\Mic_Array\EWARM\STM32F7\Obj\waveplayer
#        _CS43L22.o"
#        H:\PhanLeSon\ActivNoise\Microphone\F7\Mic_Array_Project\Mic_Array\Projects\STM32746G\Applications\Audio\Mic_Array\EWARM\STM32F7\Obj\waverecorder.o
#        --redirect _Printf=_PrintfSmall --redirect _Scanf=_ScanfSmall -o
#        H:\PhanLeSon\ActivNoise\Microphone\F7\Mic_Array_Project\Mic_Array\Projects\STM32746G\Applications\Audio\Mic_Array\EWARM\STM32F7\Exe\Project.out
#        --map
#        H:\PhanLeSon\ActivNoise\Microphone\F7\Mic_Array_Project\Mic_Array\Projects\STM32746G\Applications\Audio\Mic_Array\EWARM\STM32F7\List\Project.map
#        --config
#        H:\PhanLeSon\ActivNoise\Microphone\F7\Mic_Array_Project\Mic_Array\Projects\STM32746G\Applications\Audio\Mic_Array\EWARM\Project.icf
#        --semihosting --entry __iar_program_start --no_exceptions "D:\Program
#        Files (x86)\IAR Systems\Embedded Workbench
#        7.3\arm\CMSIS\Lib\IAR\iar_cortexM7ls_math.a" --vfe
#
###############################################################################

*******************************************************************************
*** RUNTIME MODEL ATTRIBUTES
***

CppFlavor                     = *
__Heap_Handler                = DLMalloc
__SystemLibrary               = DLib
__dlib_dynamic_initialization = normal


*******************************************************************************
*** PLACEMENT SUMMARY
***

"A1":  place at 0x08000000 { ro section .intvec };
"P1":  place in [from 0x00000000 to 0x00000000] |
                [from 0x08000000 to 0x080fffff] { ro };
"P3":  place in [from 0x20000000 to 0x2000ffff] |
                [from 0x20010000 to 0x2004ffff] { rw, block CSTACK, block HEAP };

  Section             Kind        Address     Size  Object
  -------             ----        -------     ----  ------
"A1":                                        0x1c8
  .intvec             ro code  0x08000000    0x1c8  startup_stm32f746xx.o [1]
                             - 0x080001c8    0x1c8

"P1":                                      0x2a0a0
  .rodata             const    0x080001c8   0x8800  arm_common_tables.o [4]
  .text               ro code  0x080089c8   0x8078  arm_rfft_init_f32.o [4]
  .text               ro code  0x08010a40     0xb0  arm_cfft_radix4_init_f32.o [4]
  .rodata             const    0x08010af0   0x8000  arm_rfft_init_f32.o [4]
  .text               ro code  0x08018af0   0x395c  stm32f7xx_hal_dma.o [1]
  .text               ro code  0x0801c44c   0x196c  waverecorder.o [1]
  .text               ro code  0x0801ddb8    0x26c  stm32f7xx_hal_gpio.o [1]
  .text               ro code  0x0801e024    0x550  pdm_filter.o [5]
  .text               ro code  0x0801e574    0x852  stm32f7xx_hal_spi.o [1]
  .text               ro code  0x0801edc8    0x1a4  stm32f7xx_hal_i2s.o [1]
  .text               ro code  0x0801ef6c    0x164  stm32f7xx_hal_cortex.o [1]
  .text               ro code  0x0801f0d0     0xb8  audio_application.o [1]
  .text               ro code  0x0801f188     0x1c  FltCmpEq.o [6]
  .text               ro code  0x0801f1a4      0xe  U32ToFlt.o [6]
  .text               ro code  0x0801f1b4     0x24  FltCmpLe.o [6]
  .text               ro code  0x0801f1d8     0x12  FltMul.o [6]
  .text               ro code  0x0801f1ec     0x4e  FltToDbl.o [6]
  .text               ro code  0x0801f23c     0x30  I32ToDbl.o [6]
  .text               ro code  0x0801f26c    0x256  DblDiv.o [6]
  .text               ro code  0x0801f4c4     0xe8  DblAdd.o [6]
  .text               ro code  0x0801f5ac     0x4c  DblToI32.o [6]
  .text               ro code  0x0801f5f8    0x1a2  DblMul.o [6]
  .text               ro code  0x0801f79c     0x90  DblToFlt.o [6]
  .text               ro code  0x0801f82c    0x450  xsin.o [6]
  .text               ro code  0x0801fc7c    0x180  DblSub.o [6]
  .text               ro code  0x0801fdfc     0xf0  sqrt.o [6]
  .text               ro code  0x0801feec     0x7c  stm32f7xx_hal.o [1]
  .text               ro code  0x0801ff68   0x106c  audio_codec.o [1]
  .text               ro code  0x08020fd4     0x80  usbd_audio_if.o [1]
  .text               ro code  0x08021054     0x2e  DblCmpLe.o [6]
  .text               ro code  0x08021084     0x2e  DblCmpGe.o [6]
  .text               ro code  0x080210b4      0xc  errno.o [3]
  .text               ro code  0x080210c0    0x168  xquad.o [6]
  .text               ro code  0x08021228      0xc  iarEdom.o [7]
  .text               ro code  0x08021234    0x870  stm32f7xx_hal_rcc.o [1]
  .text               ro code  0x08021aa4    0xb58  main.o [1]
  .text               ro code  0x080225fc    0xad8  stm32f7xx_hal_i2c.o [1]
  .text               ro code  0x080230d4     0x98  waveplayer _CS43L22.o [1]
  .text               ro code  0x0802316c     0x84  stm32f7xx_hal_i2c_ex.o [1]
  .text               ro code  0x080231f0      0x8  abs.o [3]
  .text               ro code  0x080231f8    0xac8  usbd_audio_in.o [1]
  .text               ro code  0x08023cc0      0x2  xtls.o [3]
  .text               ro code  0x08023cc2     0x7a  xdint.o [6]
  .text               ro code  0x08023d3c     0x20  DblCmpEq.o [6]
  .text               ro code  0x08023d5c    0x1a8  fmod.o [6]
  .text               ro code  0x08023f04    0x116  DSP.o [1]
  .text               ro code  0x0802401c    0x36c  stm32746g_discovery_sdram.o [1]
  .text               ro code  0x08024388    0x118  stm32746g_discovery.o [1]
  .text               ro code  0x080244a0    0x346  usbd_core.o [1]
  .text               ro code  0x080247e8    0x910  sta321mp.o [1]
  .text               ro code  0x080250f8     0x84  stm32f7xx_hal_pwr_ex.o [1]
  .text               ro code  0x0802517c    0x8a0  stm32f7xx_hal_rcc_ex.o [1]
  .text               ro code  0x08025a1c    0x350  usbd_conf_f4.o [1]
  .text               ro code  0x08025d6c    0x65e  usbd_ctlreq.o [1]
  .text               ro code  0x080263ca     0xbc  usbd_ioreq.o [1]
  .text               ro code  0x08026488     0x66  ABImemset.o [7]
  .text               ro code  0x080264f0   0x14f0  dlmalloc.o [3]
  .text               ro code  0x080279e0     0x76  ABImemcpy_unaligned.o [7]
  .text               ro code  0x08027a58     0xac  stm32f7xx_hal_sdram.o [1]
  .text               ro code  0x08027b04    0xa7a  stm32f7xx_hal_pcd.o [1]
  .text               ro code  0x08028580     0x98  stm32f7xx_hal_pcd_ex.o [1]
  .text               ro code  0x08028618      0x6  abort.o [3]
  .text               ro code  0x08028620     0x2c  xgetmemchunk.o [3]
  .text               ro code  0x0802864c    0x17c  stm32f7xx_ll_fmc.o [1]
  .text               ro code  0x080287c8    0xd50  stm32f7xx_ll_usb.o [1]
  .text               ro code  0x08029518     0x14  exit.o [8]
  .text               ro code  0x0802952c     0x30  iarttio.o [8]
  .text               ro code  0x0802955c      0x8  XShttio.o [3]
  .text               ro code  0x08029564    0x36a  stm32f7xx_hal_uart.o [1]
  .text               ro code  0x080298d0     0xe8  usbd_desc.o [1]
  .rodata             const    0x080299b8     0x84  usbd_audio_if.o [1]
  .text               ro code  0x08029a3c     0x7c  stm32f7xx_it.o [1]
  .text               ro code  0x08029ab8     0x6c  system_stm32f7xx.o [1]
  .text               ro code  0x08029b24     0x40  zero_init3.o [7]
  .text               ro code  0x08029b64     0x2c  copy_init3.o [7]
  .text               ro code  0x08029b90     0x28  data_init.o [7]
  .rodata             const    0x08029bb8     0x24  usbd_desc.o [1]
  .rodata             const    0x08029bdc     0x24  usbd_desc.o [1]
  .text               ro code  0x08029c00     0x22  fpinit_M.o [6]
  .iar.init_table     const    0x08029c24     0x2c  - Linker created -
  .text               ro code  0x08029c50     0x1a  cmain.o [7]
  .text               ro code  0x08029c6a      0x4  low_level_init.o [3]
  .text               ro code  0x08029c6e      0x4  exit.o [3]
  .text               ro code  0x08029c74      0xa  cexit.o [7]
  .rodata             const    0x08029c80     0x14  usbd_desc.o [1]
  .rodata             const    0x08029c94     0x10  stm32f7xx_hal_rcc.o [1]
  .rodata             const    0x08029ca4     0x10  usbd_desc.o [1]
  .rodata             const    0x08029cb4     0x10  usbd_desc.o [1]
  .rodata             const    0x08029cc4     0x10  usbd_desc.o [1]
  .rodata             const    0x08029cd4     0x10  usbd_desc.o [1]
  .text               ro code  0x08029ce4     0x10  startup_stm32f746xx.o [1]
  .text               ro code  0x08029cf4      0xc  cstartup_M.o [7]
  .rodata             const    0x08029d00      0x8  stm32746g_discovery.o [1]
  .text               ro code  0x08029d08      0x4  startup_stm32f746xx.o [1]
  .text               ro code  0x08029d0c      0x4  startup_stm32f746xx.o [1]
  .text               ro code  0x08029d10      0x4  startup_stm32f746xx.o [1]
  .text               ro code  0x08029d14      0x4  startup_stm32f746xx.o [1]
  .text               ro code  0x08029d18      0x4  startup_stm32f746xx.o [1]
  .text               ro code  0x08029d1c      0x4  startup_stm32f746xx.o [1]
  .text               ro code  0x08029d20      0x4  startup_stm32f746xx.o [1]
  .text               ro code  0x08029d24      0x4  startup_stm32f746xx.o [1]
  .text               ro code  0x08029d28      0x4  startup_stm32f746xx.o [1]
  .text               ro code  0x08029d2c      0x4  startup_stm32f746xx.o [1]
  .text               ro code  0x08029d30      0x4  startup_stm32f746xx.o [1]
  .text               ro code  0x08029d34      0x4  startup_stm32f746xx.o [1]
  .text               ro code  0x08029d38      0x4  startup_stm32f746xx.o [1]
  .text               ro code  0x08029d3c      0x4  startup_stm32f746xx.o [1]
  .text               ro code  0x08029d40      0x4  startup_stm32f746xx.o [1]
  .text               ro code  0x08029d44      0x4  startup_stm32f746xx.o [1]
  .text               ro code  0x08029d48      0x4  startup_stm32f746xx.o [1]
  .text               ro code  0x08029d4c      0x4  startup_stm32f746xx.o [1]
  .text               ro code  0x08029d50      0x4  startup_stm32f746xx.o [1]
  .text               ro code  0x08029d54      0x4  startup_stm32f746xx.o [1]
  .text               ro code  0x08029d58      0x4  startup_stm32f746xx.o [1]
  .text               ro code  0x08029d5c      0x4  startup_stm32f746xx.o [1]
  .text               ro code  0x08029d60      0x4  startup_stm32f746xx.o [1]
  .text               ro code  0x08029d64      0x4  startup_stm32f746xx.o [1]
  .text               ro code  0x08029d68      0x4  startup_stm32f746xx.o [1]
  .text               ro code  0x08029d6c      0x4  startup_stm32f746xx.o [1]
  .text               ro code  0x08029d70      0x4  startup_stm32f746xx.o [1]
  .text               ro code  0x08029d74      0x4  startup_stm32f746xx.o [1]
  .text               ro code  0x08029d78      0x4  startup_stm32f746xx.o [1]
  .text               ro code  0x08029d7c      0x4  startup_stm32f746xx.o [1]
  .text               ro code  0x08029d80      0x4  startup_stm32f746xx.o [1]
  .text               ro code  0x08029d84      0x4  startup_stm32f746xx.o [1]
  .text               ro code  0x08029d88      0x4  startup_stm32f746xx.o [1]
  .text               ro code  0x08029d8c      0x4  startup_stm32f746xx.o [1]
  .text               ro code  0x08029d90      0x4  startup_stm32f746xx.o [1]
  .text               ro code  0x08029d94      0x4  startup_stm32f746xx.o [1]
  .text               ro code  0x08029d98      0x4  startup_stm32f746xx.o [1]
  .text               ro code  0x08029d9c      0x4  startup_stm32f746xx.o [1]
  .text               ro code  0x08029da0      0x4  startup_stm32f746xx.o [1]
  .text               ro code  0x08029da4      0x4  startup_stm32f746xx.o [1]
  .text               ro code  0x08029da8      0x4  startup_stm32f746xx.o [1]
  .text               ro code  0x08029dac      0x4  startup_stm32f746xx.o [1]
  .text               ro code  0x08029db0      0x4  startup_stm32f746xx.o [1]
  .text               ro code  0x08029db4      0x4  startup_stm32f746xx.o [1]
  .text               ro code  0x08029db8      0x4  startup_stm32f746xx.o [1]
  .text               ro code  0x08029dbc      0x4  startup_stm32f746xx.o [1]
  .text               ro code  0x08029dc0      0x4  startup_stm32f746xx.o [1]
  .text               ro code  0x08029dc4      0x4  startup_stm32f746xx.o [1]
  .text               ro code  0x08029dc8      0x4  startup_stm32f746xx.o [1]
  .text               ro code  0x08029dcc      0x4  startup_stm32f746xx.o [1]
  .text               ro code  0x08029dd0      0x4  startup_stm32f746xx.o [1]
  .text               ro code  0x08029dd4      0x4  startup_stm32f746xx.o [1]
  .text               ro code  0x08029dd8      0x4  startup_stm32f746xx.o [1]
  .text               ro code  0x08029ddc      0x4  startup_stm32f746xx.o [1]
  .text               ro code  0x08029de0      0x4  startup_stm32f746xx.o [1]
  .text               ro code  0x08029de4      0x4  startup_stm32f746xx.o [1]
  .text               ro code  0x08029de8      0x4  startup_stm32f746xx.o [1]
  .text               ro code  0x08029dec      0x4  startup_stm32f746xx.o [1]
  .text               ro code  0x08029df0      0x4  startup_stm32f746xx.o [1]
  .text               ro code  0x08029df4      0x4  startup_stm32f746xx.o [1]
  .text               ro code  0x08029df8      0x4  startup_stm32f746xx.o [1]
  .text               ro code  0x08029dfc      0x4  startup_stm32f746xx.o [1]
  .text               ro code  0x08029e00      0x4  startup_stm32f746xx.o [1]
  .text               ro code  0x08029e04      0x4  startup_stm32f746xx.o [1]
  .text               ro code  0x08029e08      0x4  startup_stm32f746xx.o [1]
  .text               ro code  0x08029e0c      0x4  startup_stm32f746xx.o [1]
  .text               ro code  0x08029e10      0x4  startup_stm32f746xx.o [1]
  .text               ro code  0x08029e14      0x4  startup_stm32f746xx.o [1]
  .text               ro code  0x08029e18      0x4  startup_stm32f746xx.o [1]
  .text               ro code  0x08029e1c      0x4  startup_stm32f746xx.o [1]
  .text               ro code  0x08029e20      0x4  startup_stm32f746xx.o [1]
  .text               ro code  0x08029e24      0x4  startup_stm32f746xx.o [1]
  .text               ro code  0x08029e28      0x4  startup_stm32f746xx.o [1]
  .text               ro code  0x08029e2c      0x4  startup_stm32f746xx.o [1]
  .text               ro code  0x08029e30      0x4  startup_stm32f746xx.o [1]
  .text               ro code  0x08029e34      0x4  startup_stm32f746xx.o [1]
  .text               ro code  0x08029e38      0x4  startup_stm32f746xx.o [1]
  .rodata             const    0x08029e3c      0x0  zero_init3.o [7]
  .rodata             const    0x08029e3c      0x0  copy_init3.o [7]
  Initializer bytes   const    0x08029e3c    0x42c  <for P3 s0>
                             - 0x0802a268  0x2a0a0

"P3", part 1 of 3:                           0x42c
  P3 s0                        0x20010000    0x42c  <Init block>
    .data             inited   0x20010000    0x304  pdm_filter.o [5]
    .data             inited   0x20010304     0x50  sta321mp.o [1]
    .data             inited   0x20010354     0x38  usbd_audio_in.o [1]
    .data             inited   0x2001038c     0x24  sta321mp.o [1]
    .data             inited   0x200103b0     0x24  usbd_audio_if.o [1]
    .data             inited   0x200103d4     0x1c  usbd_desc.o [1]
    .data             inited   0x200103f0     0x14  usbd_desc.o [1]
    .data             inited   0x20010404      0xc  usbd_audio_in.o [1]
    .data             inited   0x20010410      0x8  XShttio.o [3]
    .data             inited   0x20010418      0x4  system_stm32f7xx.o [1]
    .data             inited   0x2001041c      0x4  usbd_desc.o [1]
    __DLIB_PERTHREAD  inited   0x20010420      0x4  errno.o [3]
    .data             inited   0x20010424      0x1  audio_codec.o [1]
    .data             inited   0x20010425      0x1  main.o [1]
    .data             inited   0x20010426      0x1  main.o [1]
    .data             inited   0x20010427      0x1  stm32746g_discovery_sdram.o [1]
    .data             inited   0x20010428      0x1  waveplayer _CS43L22.o [1]
                             - 0x2001042c    0x42c

"P3", part 2 of 3:                          0xfa68
  .bss                zero     0x2001042c   0x2000  waverecorder.o [1]
  .bss                zero     0x2001242c   0x2000  waverecorder.o [1]
  .bss                zero     0x2001442c   0x2000  waverecorder.o [1]
  .bss                zero     0x2001642c   0x2000  waverecorder.o [1]
  .bss                zero     0x2001842c   0x2000  waverecorder.o [1]
  .bss                zero     0x2001a42c   0x2000  waverecorder.o [1]
  .bss                zero     0x2001c42c   0x2000  waverecorder.o [1]
  .bss                zero     0x2001e42c    0x800  main.o [1]
  .bss                zero     0x2001ec2c    0x3c0  usbd_conf_f4.o [1]
  .bss                zero     0x2001efec    0x224  main.o [1]
  .bss                zero     0x2001f210    0x1d8  dlmalloc.o [3]
  .bss                zero     0x2001f3e8    0x180  usbd_audio_in.o [1]
  .bss                zero     0x2001f568     0xc8  usbd_desc.o [1]
  .bss                zero     0x2001f630     0x80  waverecorder.o [1]
  .bss                zero     0x2001f6b0     0x80  waverecorder.o [1]
  .bss                zero     0x2001f730     0x78  usbd_audio_in.o [1]
  .bss                zero     0x2001f7a8     0x70  main.o [1]
  .bss                zero     0x2001f818     0x68  waverecorder.o [1]
  .bss                zero     0x2001f880     0x64  main.o [1]
  .bss                zero     0x2001f8e4     0x64  usbd_audio_in.o [1]
  .bss                zero     0x2001f948     0x64  waverecorder.o [1]
  .bss                zero     0x2001f9ac     0x64  waverecorder.o [1]
  .bss                zero     0x2001fa10     0x50  audio_codec.o [1]
  .bss                zero     0x2001fa60     0x50  stm32746g_discovery_sdram.o [1]
  .bss                zero     0x2001fab0     0x50  waverecorder.o [1]
  .bss                zero     0x2001fb00     0x50  waverecorder.o [1]
  .bss                zero     0x2001fb50     0x40  waveplayer _CS43L22.o [1]
  .bss                zero     0x2001fb90     0x40  waverecorder.o [1]
  .bss                zero     0x2001fbd0     0x40  waverecorder.o [1]
  .bss                zero     0x2001fc10     0x3c  audio_codec.o [1]
  .bss                zero     0x2001fc4c     0x3c  audio_codec.o [1]
  .bss                zero     0x2001fc88     0x34  stm32746g_discovery_sdram.o [1]
  .bss                zero     0x2001fcbc     0x1c  stm32746g_discovery_sdram.o [1]
  .bss                zero     0x2001fcd8     0x18  main.o [1]
  .bss                zero     0x2001fcf0     0x18  main.o [1]
  .bss                zero     0x2001fd08     0x18  main.o [1]
  .bss                zero     0x2001fd20     0x18  main.o [1]
  .bss                zero     0x2001fd38     0x18  main.o [1]
  .bss                zero     0x2001fd50     0x18  main.o [1]
  .bss                zero     0x2001fd68     0x18  dlmalloc.o [3]
  .bss                zero     0x2001fd80     0x14  main.o [1]
  .bss                zero     0x2001fd94     0x14  main.o [1]
  .bss                zero     0x2001fda8     0x14  main.o [1]
  .bss                zero     0x2001fdbc     0x14  main.o [1]
  .bss                zero     0x2001fdd0     0x14  main.o [1]
  .bss                zero     0x2001fde4     0x14  main.o [1]
  .bss                zero     0x2001fdf8     0x10  sta321mp.o [1]
  .bss                zero     0x2001fe08     0x10  stm32746g_discovery_sdram.o [1]
  .bss                zero     0x2001fe18      0x4  DSP.o [1]
  .bss                zero     0x2001fe1c      0x4  stm32f7xx_hal.o [1]
  .bss                zero     0x2001fe20      0x4  stm32f7xx_it.o [1]
  .bss                zero     0x2001fe24      0x4  waveplayer _CS43L22.o [1]
  .bss                zero     0x2001fe28      0x4  waverecorder.o [1]
  .bss                zero     0x2001fe2c      0x4  waverecorder.o [1]
  .bss                zero     0x2001fe30      0x4  xgetmemchunk.o [3]
  .bss                zero     0x2001fe34      0x2  audio_application.o [1]
  .bss                zero     0x2001fe36      0x2  main.o [1]
  .bss                zero     0x2001fe38      0x2  main.o [1]
  .bss                zero     0x2001fe3a      0x2  main.o [1]
  .bss                zero     0x2001fe3c      0x2  main.o [1]
  .bss                zero     0x2001fe3e      0x2  main.o [1]
  .bss                zero     0x2001fe40      0x2  main.o [1]
  .bss                zero     0x2001fe42      0x2  main.o [1]
  .bss                zero     0x2001fe44      0x2  main.o [1]
  .bss                zero     0x2001fe46      0x2  main.o [1]
  .bss                zero     0x2001fe48      0x2  main.o [1]
  .bss                zero     0x2001fe4a      0x2  main.o [1]
  .bss                zero     0x2001fe4c      0x2  main.o [1]
  .bss                zero     0x2001fe4e      0x2  main.o [1]
  .bss                zero     0x2001fe50      0x2  main.o [1]
  .bss                zero     0x2001fe52      0x2  main.o [1]
  .bss                zero     0x2001fe54      0x2  main.o [1]
  .bss                zero     0x2001fe56      0x2  sta321mp.o [1]
  .bss                zero     0x2001fe58      0x2  usbd_audio_in.o [1]
  .bss                zero     0x2001fe5a      0x2  waverecorder.o [1]
  .bss                zero     0x2001fe5c      0x2  waverecorder.o [1]
  .bss                zero     0x2001fe5e      0x2  waverecorder.o [1]
  .bss                zero     0x2001fe60      0x2  waverecorder.o [1]
  .bss                zero     0x2001fe62      0x2  waverecorder.o [1]
  .bss                zero     0x2001fe64      0x2  waverecorder.o [1]
  .bss                zero     0x2001fe66      0x2  waverecorder.o [1]
  .bss                zero     0x2001fe68      0x2  waverecorder.o [1]
  .bss                zero     0x2001fe6a      0x2  waverecorder.o [1]
  .bss                zero     0x2001fe6c      0x2  waverecorder.o [1]
  .bss                zero     0x2001fe6e      0x2  waverecorder.o [1]
  .bss                zero     0x2001fe70      0x2  waverecorder.o [1]
  .bss                zero     0x2001fe72      0x2  waverecorder.o [1]
  .bss                zero     0x2001fe74      0x2  waverecorder.o [1]
  .bss                zero     0x2001fe76      0x2  waverecorder.o [1]
  .bss                zero     0x2001fe78      0x2  waverecorder.o [1]
  .bss                zero     0x2001fe7a      0x2  waverecorder.o [1]
  .bss                zero     0x2001fe7c      0x2  waverecorder.o [1]
  .bss                zero     0x2001fe7e      0x1  audio_codec.o [1]
  .bss                zero     0x2001fe7f      0x1  main.o [1]
  .bss                zero     0x2001fe80      0x1  main.o [1]
  .bss                zero     0x2001fe81      0x1  main.o [1]
  .bss                zero     0x2001fe82      0x1  main.o [1]
  .bss                zero     0x2001fe83      0x1  main.o [1]
  .bss                zero     0x2001fe84      0x1  usbd_ctlreq.o [1]
  .bss                zero     0x2001fe85      0x1  waverecorder.o [1]
  .bss                zero     0x2001fe86      0x1  waverecorder.o [1]
  .bss                zero     0x2001fe87      0x1  waverecorder.o [1]
  .bss                zero     0x2001fe88      0x1  waverecorder.o [1]
  .bss                zero     0x2001fe89      0x1  waverecorder.o [1]
  .bss                zero     0x2001fe8a      0x1  waverecorder.o [1]
  .bss                zero     0x2001fe8b      0x1  waverecorder.o [1]
  .bss                zero     0x2001fe8c      0x1  waverecorder.o [1]
  .bss                zero     0x2001fe8d      0x1  waverecorder.o [1]
  .bss                zero     0x2001fe8e      0x1  waverecorder.o [1]
  .bss                zero     0x2001fe8f      0x1  waverecorder.o [1]
  .bss                zero     0x2001fe90      0x1  waverecorder.o [1]
  .bss                zero     0x2001fe91      0x1  waverecorder.o [1]
  .bss                zero     0x2001fe92      0x1  waverecorder.o [1]
                             - 0x2001fe93   0xfa67

"P3", part 3 of 3:                          0x4000
  CSTACK                       0x2001fe98   0x2000  <Block>
    CSTACK            uninit   0x2001fe98   0x2000  <Block tail>
  HEAP                         0x20021e98   0x2000  <Block>
    HEAP              uninit   0x20021e98   0x2000  <Block tail>
                             - 0x20023e98   0x4000

Absolute sections:                         0x191e0
  .bss                zero     0xc0000000   0x80a0  waverecorder.o [1]
  .bss                zero     0xc00080a0   0x80a0  waverecorder.o [1]
  .bss                zero     0xc0010140   0x80a0  waverecorder.o [1]
  .bss                zero     0xc00181e0   0x1000  audio_application.o [1]
                             - 0xc00191e0  0x191e0


*******************************************************************************
*** INIT TABLE
***

          Address     Size
          -------     ----
Zero (__iar_zero_init3)
    2 destination ranges, total size 0x28c47:
          0x2001042c   0xfa67
          0xc0000000  0x191e0

Copy (__iar_copy_init3)
    1 source range, total size 0x42c (100% of destination):
          0x08029e3c    0x42c
    1 destination range, total size 0x429:
          0x20010000    0x429



*******************************************************************************
*** MODULE SUMMARY
***

    Module                       ro code  ro data  rw data  rw data
                                                             (abs)
    ------                       -------  -------  -------  -------
H:\PhanLeSon\ActivNoise\Microphone\F7\Mic_Array_Project\Mic_Array\Projects\STM32746G\Applications\Audio\Mic_Array\EWARM\STM32F7\Obj: [1]
    DSP.o                            278                 4
    audio_application.o              184                 2    4 096
    audio_codec.o                  4 204        1      202
    main.o                         2 904        2    3 111
    sta321mp.o                     2 320      116      134
    startup_stm32f746xx.o            780
    stm32746g_discovery.o            280        8
    stm32746g_discovery_sdram.o      876        1      177
    stm32f7xx_hal.o                  124                 4
    stm32f7xx_hal_cortex.o           356
    stm32f7xx_hal_dma.o           14 684
    stm32f7xx_hal_gpio.o             620
    stm32f7xx_hal_i2c.o            2 776
    stm32f7xx_hal_i2c_ex.o           132
    stm32f7xx_hal_i2s.o              420
    stm32f7xx_hal_pcd.o            2 682
    stm32f7xx_hal_pcd_ex.o           152
    stm32f7xx_hal_pwr_ex.o           132
    stm32f7xx_hal_rcc.o            2 160       16
    stm32f7xx_hal_rcc_ex.o         2 208
    stm32f7xx_hal_sdram.o            172
    stm32f7xx_hal_spi.o            2 130
    stm32f7xx_hal_uart.o             874
    stm32f7xx_it.o                   124                 4
    stm32f7xx_ll_fmc.o               380
    stm32f7xx_ll_usb.o             3 408
    system_stm32f7xx.o               108        4        4
    usbd_audio_if.o                  128      168       36
    usbd_audio_in.o                2 760       68      674
    usbd_conf_f4.o                   848               960
    usbd_core.o                      838
    usbd_ctlreq.o                  1 630                 1
    usbd_desc.o                      232      208      252
    usbd_ioreq.o                     188
    waveplayer _CS43L22.o            152        1       69
    waverecorder.o                 6 508            58 250   98 784
    ---------------------------------------------------------------
    Total:                        58 752      593   63 884  102 880

command line: [2]
    ---------------------------------------------------------------
    Total:

dl7M_tlf.a: [3]
    XShttio.o                          8        8        8
    abort.o                            6
    abs.o                              8
    dlmalloc.o                     5 360               496
    errno.o                           12        4        4
    exit.o                             4
    low_level_init.o                   4
    xgetmemchunk.o                    44                 4
    xtls.o                             2
    ---------------------------------------------------------------
    Total:                         5 448       12      512

iar_cortexM7ls_math.a: [4]
    arm_cfft_radix4_init_f32.o       176
    arm_common_tables.o                    34 816
    arm_rfft_init_f32.o           32 888   32 768
    ---------------------------------------------------------------
    Total:                        33 064   67 584

libPDMFilter_CM7_IAR.a: [5]
    pdm_filter.o                   1 360      772      772
    ---------------------------------------------------------------
    Total:                         1 360      772      772

m7M_tls.a: [6]
    DblAdd.o                         232
    DblCmpEq.o                        32
    DblCmpGe.o                        46
    DblCmpLe.o                        46
    DblDiv.o                         598
    DblMul.o                         418
    DblSub.o                         384
    DblToFlt.o                       144
    DblToI32.o                        76
    FltCmpEq.o                        28
    FltCmpLe.o                        36
    FltMul.o                          18
    FltToDbl.o                        78
    I32ToDbl.o                        48
    U32ToFlt.o                        14
    fmod.o                           424
    fpinit_M.o                        34
    sqrt.o                           240
    xdint.o                          122
    xquad.o                          360
    xsin.o                         1 104
    ---------------------------------------------------------------
    Total:                         4 482

rt7M_tl.a: [7]
    ABImemcpy_unaligned.o            118
    ABImemset.o                      102
    cexit.o                           10
    cmain.o                           26
    copy_init3.o                      44
    cstartup_M.o                      12
    data_init.o                       40
    iarEdom.o                         12
    zero_init3.o                      64
    ---------------------------------------------------------------
    Total:                           428

shb_l.a: [8]
    exit.o                            20
    iarttio.o                         48
    ---------------------------------------------------------------
    Total:                            68

    Gaps                              34        4
    Linker created                             47   16 384
-------------------------------------------------------------------
    Grand Total:                 103 636   69 012   81 552  102 880


*******************************************************************************
*** ENTRY LIST
***

Entry                      Address    Size  Type      Object
-----                      -------    ----  ----      ------
.iar.init_table$$Base   0x08029c24           --   Gb  - Linker created -
.iar.init_table$$Limit  0x08029c50           --   Gb  - Linker created -
?main                   0x08029c51          Code  Gb  cmain.o [7]
APBAHBPrescTable        0x08029c94    0x10  Data  Gb  stm32f7xx_hal_rcc.o [1]
AUDIO_Desc              0x200103d4    0x1c  Data  Gb  usbd_desc.o [1]
AUDIO_Init              0x0801ff69    0x38  Code  Gb  audio_codec.o [1]
AUDIO_InitApplication   0x08023161     0xc  Code  Gb  waveplayer _CS43L22.o [1]
AUDIO_REQ_GetCurrent    0x08023583    0x30  Code  Lc  usbd_audio_in.o [1]
AUDIO_REQ_GetMaximum    0x0802351d    0x22  Code  Lc  usbd_audio_in.o [1]
AUDIO_REQ_GetMinimum    0x0802353f    0x22  Code  Lc  usbd_audio_in.o [1]
AUDIO_REQ_GetResolution
                        0x08023561    0x22  Code  Lc  usbd_audio_in.o [1]
AUDIO_REQ_SetCurrent    0x080235b3    0x34  Code  Lc  usbd_audio_in.o [1]
AudioMerging            0x0801f0e7    0x8a  Code  Gb  audio_application.o [1]
AudioProcess            0x0801f0d1    0x16  Code  Gb  audio_application.o [1]
Audio_CommandMgr        0x08021031     0x6  Code  Lc  usbd_audio_if.o [1]
Audio_DeInit            0x08020fdb     0x6  Code  Lc  usbd_audio_if.o [1]
Audio_Init              0x08020fd5     0x6  Code  Lc  usbd_audio_if.o [1]
Audio_MAL_Play          0x08020b85    0xbc  Code  Gb  audio_codec.o [1]
Audio_MuteCtl           0x0802101f     0x6  Code  Lc  usbd_audio_if.o [1]
Audio_Pause             0x08021029     0x4  Code  Lc  usbd_audio_if.o [1]
Audio_Play_Out          0x08021c93    0xe2  Code  Lc  main.o [1]
Audio_Record            0x08020fe1     0x4  Code  Lc  usbd_audio_if.o [1]
Audio_Resume            0x0802102d     0x4  Code  Lc  usbd_audio_if.o [1]
Audio_Stop              0x08021025     0x4  Code  Lc  usbd_audio_if.o [1]
Audio_VolumeCtl         0x08020fe5    0x3a  Code  Lc  usbd_audio_if.o [1]
BSP_AUDIO_OUT_ClockConfig
                        0x08022083    0x70  Code  Gb  main.o [1]
BSP_LED_Init            0x08024389    0xc8  Code  Gb  stm32746g_discovery.o [1]
BSP_LED_Toggle          0x08024451    0x42  Code  Gb  stm32746g_discovery.o [1]
BSP_SDRAM_Init          0x0802401d    0xd6  Code  Gb  stm32746g_discovery_sdram.o [1]
BSP_SDRAM_Initialization_sequence
                        0x080240f3    0xb0  Code  Gb  stm32746g_discovery_sdram.o [1]
BSP_SDRAM_MspInit       0x080241a3   0x1a8  Code  Wk  stm32746g_discovery_sdram.o [1]
Buffer1                 0xc0000000  0x80a0  Data  Gb  waverecorder.o [1]
Buffer2                 0xc00080a0  0x80a0  Data  Gb  waverecorder.o [1]
Buffer3                 0xc0010140  0x80a0  Data  Gb  waverecorder.o [1]
BusFault_Handler        0x08029a43     0x2  Code  Gb  stm32f7xx_it.o [1]
ButtonInit              0x080223df    0x4e  Code  Gb  main.o [1]
CPU_CACHE_Enable        0x080220f3     0xc  Code  Lc  main.o [1]
CSTACK$$Base            0x2001fe98           --   Gb  - Linker created -
CSTACK$$Limit           0x20021e98           --   Gb  - Linker created -
Codec_AudioInterface_Init
                        0x08020af1     0xc  Code  Lc  audio_codec.o [1]
Codec_CtrlInterface_Init
                        0x08020ae9     0x8  Code  Lc  audio_codec.o [1]
Codec_GPIO_Init         0x08020afd    0x40  Code  Lc  audio_codec.o [1]
Codec_Init              0x080208bf    0xf6  Code  Lc  audio_codec.o [1]
Codec_ReadRegister      0x08020a85    0x64  Code  Lc  audio_codec.o [1]
Codec_Reset             0x08020a19    0x24  Code  Lc  audio_codec.o [1]
Codec_TIMEOUT_UserCallback
                        0x080230e7     0x4  Code  Gb  waveplayer _CS43L22.o [1]
Codec_VolumeCtrl        0x080209b5    0x64  Code  Lc  audio_codec.o [1]
Codec_WriteRegister     0x08020a3f    0x3e  Code  Lc  audio_codec.o [1]
Command                 0x2001fe08    0x10  Data  Lc  stm32746g_discovery_sdram.o [1]
Command_index           0x20010426     0x1  Data  Gb  main.o [1]
CrssCor                 0x08023f05    0xf6  Code  Gb  DSP.o [1]
DFT_Init                0x08022277    0x5e  Code  Gb  main.o [1]
DMA1_Stream0_IRQHandler
                        0x080208b3     0x2  Code  Gb  audio_codec.o [1]
DMA1_Stream7_IRQHandler
                        0x0801ffa1   0x912  Code  Gb  audio_codec.o [1]
DMA2_Stream4_IRQHandler
                        0x08029ab5     0x2  Code  Gb  stm32f7xx_it.o [1]
DMA2_Stream5_IRQHandler
                        0x0801d6c3     0xc  Code  Gb  waverecorder.o [1]
DMA2_Stream6_IRQHandler
                        0x0801d6cf     0xc  Code  Gb  waverecorder.o [1]
DMA2_Stream7_IRQHandler
                        0x08029ab7     0x2  Code  Gb  stm32f7xx_it.o [1]
DMA_SetConfig           0x08018af1    0x2e  Code  Gb  stm32f7xx_hal_dma.o [1]
DebugMon_Handler        0x08029a49     0x2  Code  Gb  stm32f7xx_it.o [1]
Delay                   0x08020b71    0x14  Code  Lc  audio_codec.o [1]
DmaHandle               0x2001fa10    0x50  Data  Gb  audio_codec.o [1]
EXTI15_10_IRQHandler    0x08022223     0x2  Code  Gb  main.o [1]
EXTI4_IRQHandler        0x080221e5    0x3e  Code  Gb  main.o [1]
EXTI9_5_IRQHandler      0x08022225    0x52  Code  Gb  main.o [1]
EnergySound             0x2001fe18     0x4  Data  Gb  DSP.o [1]
FFT_Update              0x08021b33   0x160  Code  Lc  main.o [1]
FMC_SDRAM_Init          0x0802864d    0x7c  Code  Gb  stm32f7xx_ll_fmc.o [1]
FMC_SDRAM_ProgramRefreshRate
                        0x080287bb     0xe  Code  Gb  stm32f7xx_ll_fmc.o [1]
FMC_SDRAM_SendCommand   0x08028767    0x54  Code  Gb  stm32f7xx_ll_fmc.o [1]
FMC_SDRAM_Timing_Init   0x080286c9    0x9e  Code  Gb  stm32f7xx_ll_fmc.o [1]
FacMic                  0x2001fcd8    0x18  Data  Gb  main.o [1]
FactorUpd               0x08024001    0x1a  Code  Gb  DSP.o [1]
Filter                  0x2001f818    0x68  Data  Gb  waverecorder.o [1]
GPIO_INS                0x2001fd80    0x14  Data  Gb  main.o [1]
GPIO_PIN                0x08029d00     0x8  Data  Gb  stm32746g_discovery.o [1]
HAL_DMA_DeInit          0x08018ba1   0xfe8  Code  Gb  stm32f7xx_hal_dma.o [1]
HAL_DMA_IRQHandler      0x08019c61  0x2798  Code  Gb  stm32f7xx_hal_dma.o [1]
HAL_DMA_Init            0x08018b1f    0x7c  Code  Gb  stm32f7xx_hal_dma.o [1]
HAL_DMA_Start_IT        0x08019bd9    0x86  Code  Gb  stm32f7xx_hal_dma.o [1]
HAL_Delay               0x0801ff47    0x1a  Code  Wk  stm32f7xx_hal.o [1]
HAL_GPIO_Init           0x0801ddb9   0x1f6  Code  Gb  stm32f7xx_hal_gpio.o [1]
HAL_GPIO_ReadPin        0x0801dfaf    0x18  Code  Gb  stm32f7xx_hal_gpio.o [1]
HAL_GPIO_TogglePin      0x0801dfdb     0xa  Code  Gb  stm32f7xx_hal_gpio.o [1]
HAL_GPIO_WritePin       0x0801dfc7    0x14  Code  Gb  stm32f7xx_hal_gpio.o [1]
HAL_GetTick             0x0801ff41     0x6  Code  Wk  stm32f7xx_hal.o [1]
HAL_I2CEx_ConfigAnalogFilter
                        0x0802316d    0x84  Code  Gb  stm32f7xx_hal_i2c_ex.o [1]
HAL_I2C_EV_IRQHandler   0x08022975   0x12e  Code  Gb  stm32f7xx_hal_i2c.o [1]
HAL_I2C_ErrorCallback   0x08022aaf     0x2  Code  Wk  stm32f7xx_hal_i2c.o [1]
HAL_I2C_GetError        0x08022ab1     0x4  Code  Gb  stm32f7xx_hal_i2c.o [1]
HAL_I2C_Init            0x080225fd    0xbc  Code  Gb  stm32f7xx_hal_i2c.o [1]
HAL_I2C_MasterRxCpltCallback
                        0x08022aa5     0x2  Code  Wk  stm32f7xx_hal_i2c.o [1]
HAL_I2C_MasterTxCpltCallback
                        0x08022aa3     0x2  Code  Wk  stm32f7xx_hal_i2c.o [1]
HAL_I2C_Master_Receive  0x08022817   0x158  Code  Gb  stm32f7xx_hal_i2c.o [1]
HAL_I2C_Master_Transmit
                        0x080226b9   0x15e  Code  Gb  stm32f7xx_hal_i2c.o [1]
HAL_I2C_MemRxCpltCallback
                        0x08022aad     0x2  Code  Wk  stm32f7xx_hal_i2c.o [1]
HAL_I2C_MemTxCpltCallback
                        0x08022aab     0x2  Code  Wk  stm32f7xx_hal_i2c.o [1]
HAL_I2C_MspInit         0x080220ff    0xe6  Code  Gb  main.o [1]
HAL_I2C_SlaveRxCpltCallback
                        0x08022aa9     0x2  Code  Wk  stm32f7xx_hal_i2c.o [1]
HAL_I2C_SlaveTxCpltCallback
                        0x08022aa7     0x2  Code  Wk  stm32f7xx_hal_i2c.o [1]
HAL_I2S_Init            0x0801edc9   0x126  Code  Gb  stm32f7xx_hal_i2s.o [1]
HAL_I2S_MspInit         0x08020c65   0x2d2  Code  Gb  audio_codec.o [1]
HAL_I2S_TxCpltCallback  0x08022489    0x22  Code  Gb  main.o [1]
HAL_IncTick             0x0801ff35     0xc  Code  Wk  stm32f7xx_hal.o [1]
HAL_Init                0x0801feed    0x22  Code  Gb  stm32f7xx_hal.o [1]
HAL_InitTick            0x0801ff11    0x24  Code  Wk  stm32f7xx_hal.o [1]
HAL_MspInit             0x0801ff0f     0x2  Code  Wk  stm32f7xx_hal.o [1]
HAL_NVIC_DisableIRQ     0x0801f091     0xe  Code  Gb  stm32f7xx_hal_cortex.o [1]
HAL_NVIC_EnableIRQ      0x0801f083     0xe  Code  Gb  stm32f7xx_hal_cortex.o [1]
HAL_NVIC_SetPriority    0x0801f05d    0x26  Code  Gb  stm32f7xx_hal_cortex.o [1]
HAL_NVIC_SetPriorityGrouping
                        0x0801f051     0xc  Code  Gb  stm32f7xx_hal_cortex.o [1]
HAL_PCDEx_ActivateLPM   0x080285ef    0x28  Code  Gb  stm32f7xx_hal_pcd_ex.o [1]
HAL_PCDEx_LPM_Callback  0x08028617     0x2  Code  Wk  stm32f7xx_hal_pcd_ex.o [1]
HAL_PCDEx_SetRxFiFo     0x080285e3     0xc  Code  Gb  stm32f7xx_hal_pcd_ex.o [1]
HAL_PCDEx_SetTxFiFo     0x08028581    0x62  Code  Gb  stm32f7xx_hal_pcd_ex.o [1]
HAL_PCD_ConnectCallback
                        0x08025ba5     0xe  Code  Gb  usbd_conf_f4.o [1]
HAL_PCD_DataInStageCallback
                        0x08025afd    0x1e  Code  Gb  usbd_conf_f4.o [1]
HAL_PCD_DataOutStageCallback
                        0x08025add    0x20  Code  Gb  usbd_conf_f4.o [1]
HAL_PCD_DisconnectCallback
                        0x08025bb3     0xe  Code  Gb  usbd_conf_f4.o [1]
HAL_PCD_EP_Close        0x08028243    0x62  Code  Gb  stm32f7xx_hal_pcd.o [1]
HAL_PCD_EP_ClrStall     0x0802841d    0x62  Code  Gb  stm32f7xx_hal_pcd.o [1]
HAL_PCD_EP_Flush        0x0802847f    0x3c  Code  Gb  stm32f7xx_hal_pcd.o [1]
HAL_PCD_EP_Open         0x080281a9    0x9a  Code  Gb  stm32f7xx_hal_pcd.o [1]
HAL_PCD_EP_Receive      0x080282a5    0x82  Code  Gb  stm32f7xx_hal_pcd.o [1]
HAL_PCD_EP_SetStall     0x080283a7    0x76  Code  Gb  stm32f7xx_hal_pcd.o [1]
HAL_PCD_EP_Transmit     0x08028327    0x80  Code  Gb  stm32f7xx_hal_pcd.o [1]
HAL_PCD_IRQHandler      0x08027c5b   0x522  Code  Gb  stm32f7xx_hal_pcd.o [1]
HAL_PCD_ISOINIncompleteCallback
                        0x08025b91    0x14  Code  Gb  usbd_conf_f4.o [1]
HAL_PCD_ISOOUTIncompleteCallback
                        0x08025b7d    0x14  Code  Gb  usbd_conf_f4.o [1]
HAL_PCD_Init            0x08027b05   0x12a  Code  Gb  stm32f7xx_hal_pcd.o [1]
HAL_PCD_MspInit         0x08025a43    0x88  Code  Gb  usbd_conf_f4.o [1]
HAL_PCD_ResetCallback   0x08025b29    0x38  Code  Gb  usbd_conf_f4.o [1]
HAL_PCD_ResumeCallback  0x08025b6f     0xe  Code  Gb  usbd_conf_f4.o [1]
HAL_PCD_SOFCallback     0x08025b1b     0xe  Code  Gb  usbd_conf_f4.o [1]
HAL_PCD_SetAddress      0x0802817d    0x2c  Code  Gb  stm32f7xx_hal_pcd.o [1]
HAL_PCD_SetupStageCallback
                        0x08025acb    0x12  Code  Gb  usbd_conf_f4.o [1]
HAL_PCD_Start           0x08027c2f    0x2c  Code  Gb  stm32f7xx_hal_pcd.o [1]
HAL_PCD_SuspendCallback
                        0x08025b61     0xe  Code  Gb  usbd_conf_f4.o [1]
HAL_PWREx_EnableOverDrive
                        0x080250f9    0x76  Code  Gb  stm32f7xx_hal_pwr_ex.o [1]
HAL_RCCEx_GetPeriphCLKConfig
                        0x08025825   0x1c6  Code  Gb  stm32f7xx_hal_rcc_ex.o [1]
HAL_RCCEx_PeriphCLKConfig
                        0x0802517d   0x6a8  Code  Gb  stm32f7xx_hal_rcc_ex.o [1]
HAL_RCC_ClockConfig     0x0802174d   0x256  Code  Gb  stm32f7xx_hal_rcc.o [1]
HAL_RCC_GetHCLKFreq     0x08021a47    0x28  Code  Gb  stm32f7xx_hal_rcc.o [1]
HAL_RCC_GetSysClockFreq
                        0x080219a3    0xa4  Code  Gb  stm32f7xx_hal_rcc.o [1]
HAL_RCC_OscConfig       0x08021235   0x518  Code  Gb  stm32f7xx_hal_rcc.o [1]
HAL_SDRAM_Init          0x08027a59    0x44  Code  Gb  stm32f7xx_hal_sdram.o [1]
HAL_SDRAM_MspInit       0x08027a9d     0x2  Code  Wk  stm32f7xx_hal_sdram.o [1]
HAL_SDRAM_ProgramRefreshRate
                        0x08027adb    0x2a  Code  Gb  stm32f7xx_hal_sdram.o [1]
HAL_SDRAM_SendCommand   0x08027a9f    0x3c  Code  Gb  stm32f7xx_hal_sdram.o [1]
HAL_SPI_ErrorCallback   0x0801e9b1     0x2  Code  Wk  stm32f7xx_hal_spi.o [1]
HAL_SPI_Init            0x0801e575    0xd8  Code  Gb  stm32f7xx_hal_spi.o [1]
HAL_SPI_MspInit         0x0801d0b1   0x5ca  Code  Gb  waverecorder.o [1]
HAL_SPI_Receive_DMA     0x0801e64d   0x14c  Code  Gb  stm32f7xx_hal_spi.o [1]
HAL_SPI_RxCpltCallback  0x0801d701   0x274  Code  Gb  waverecorder.o [1]
HAL_SPI_RxHalfCpltCallback
                        0x0801e9ad     0x2  Code  Wk  stm32f7xx_hal_spi.o [1]
HAL_SPI_TransmitReceive_DMA
                        0x0801e799   0x212  Code  Gb  stm32f7xx_hal_spi.o [1]
HAL_SPI_TxRxCpltCallback
                        0x0801e9ab     0x2  Code  Wk  stm32f7xx_hal_spi.o [1]
HAL_SPI_TxRxHalfCpltCallback
                        0x0801e9af     0x2  Code  Wk  stm32f7xx_hal_spi.o [1]
HAL_SYSTICK_Config      0x0801f09f     0xc  Code  Gb  stm32f7xx_hal_cortex.o [1]
HAL_UART_ErrorCallback  0x0802973f     0x2  Code  Wk  stm32f7xx_hal_uart.o [1]
HAL_UART_IRQHandler     0x08029565    0xf8  Code  Gb  stm32f7xx_hal_uart.o [1]
HAL_UART_RxCpltCallback
                        0x0802973d     0x2  Code  Wk  stm32f7xx_hal_uart.o [1]
HAL_UART_TxCpltCallback
                        0x0802973b     0x2  Code  Wk  stm32f7xx_hal_uart.o [1]
HEAP$$Base              0x20021e98           --   Gb  - Linker created -
HEAP$$Limit             0x20023e98           --   Gb  - Linker created -
HardFault_Handler       0x08029a3f     0x2  Code  Gb  stm32f7xx_it.o [1]
I2C1_EV_IRQHandler      0x08029a7f     0xa  Code  Gb  stm32f7xx_it.o [1]
I2C2_EV_IRQHandler      0x08029a89     0xa  Code  Gb  stm32f7xx_it.o [1]
I2C_IsAcknowledgeFailed
                        0x08023003    0x9e  Code  Lc  stm32f7xx_hal_i2c.o [1]
I2C_MasterReceive_ISR   0x08022c09   0x152  Code  Lc  stm32f7xx_hal_i2c.o [1]
I2C_MasterTransmit_ISR  0x08022ab5   0x152  Code  Lc  stm32f7xx_hal_i2c.o [1]
I2C_SlaveReceive_ISR    0x08022e1d    0xae  Code  Lc  stm32f7xx_hal_i2c.o [1]
I2C_SlaveTransmit_ISR   0x08022d5b    0xc2  Code  Lc  stm32f7xx_hal_i2c.o [1]
I2C_TransferConfig      0x080230a1    0x2a  Code  Lc  stm32f7xx_hal_i2c.o [1]
I2C_WaitOnFlagUntilTimeout
                        0x08022ed1    0x8e  Code  Lc  stm32f7xx_hal_i2c.o [1]
I2C_WaitOnSTOPFlagUntilTimeout
                        0x08022fb3    0x50  Code  Lc  stm32f7xx_hal_i2c.o [1]
I2C_WaitOnTXISFlagUntilTimeout
                        0x08022f5f    0x54  Code  Lc  stm32f7xx_hal_i2c.o [1]
I2S1_Init               0x0801cd5d    0x5e  Code  Lc  waverecorder.o [1]
I2S1_stNipple           0x2001fe74     0x2  Data  Gb  waverecorder.o [1]
I2S1_stPosShft          0x2001fe8a     0x1  Data  Gb  waverecorder.o [1]
I2S2_Init               0x0801cdbb    0x5e  Code  Lc  waverecorder.o [1]
I2S2_idxTmp             0x2001fe3a     0x2  Data  Gb  main.o [1]
I2S2_stNipple           0x2001fe76     0x2  Data  Gb  waverecorder.o [1]
I2S2_stPosShft          0x2001fe8b     0x1  Data  Gb  waverecorder.o [1]
I2S3_Init               0x080230eb    0x68  Code  Gb  waveplayer _CS43L22.o [1]
I2S_GetClockFreq        0x0801eeef    0x66  Code  Lc  stm32f7xx_hal_i2s.o [1]
IS                      0x2001fd50    0x18  Data  Gb  main.o [1]
ISS                     0x2001fde4    0x14  Data  Gb  main.o [1]
IsocInBuffDummy         0x2001f3e8   0x180  Data  Lc  usbd_audio_in.o [1]
MIC1TO6_Init            0x0801cccf    0x8e  Code  Gb  waverecorder.o [1]
MX_I2C1_Init            0x08020f3d    0x48  Code  Gb  audio_codec.o [1]
MX_I2C2_Init            0x08022431    0x50  Code  Gb  main.o [1]
MemManage_Handler       0x08029a41     0x2  Code  Gb  stm32f7xx_it.o [1]
NMI_Handler             0x08029a3d     0x2  Code  Gb  stm32f7xx_it.o [1]
NVIC_DisableIRQ         0x0801efa9    0x14  Code  Lc  stm32f7xx_hal_cortex.o [1]
NVIC_EnableIRQ          0x0801ef95    0x14  Code  Lc  stm32f7xx_hal_cortex.o [1]
NVIC_EncodePriority     0x0801efe3    0x3e  Code  Lc  stm32f7xx_hal_cortex.o [1]
NVIC_GetPriorityGrouping
                        0x0801ef8b     0xa  Code  Lc  stm32f7xx_hal_cortex.o [1]
NVIC_SetPriority        0x0801efbd    0x26  Code  Lc  stm32f7xx_hal_cortex.o [1]
NVIC_SetPriority        0x08025a1d    0x26  Code  Lc  usbd_conf_f4.o [1]
NVIC_SetPriorityGrouping
                        0x0801ef6d    0x1e  Code  Lc  stm32f7xx_hal_cortex.o [1]
OTG_FS_IRQHandler       0x08029a93     0xa  Code  Gb  stm32f7xx_it.o [1]
OutputDev               0x2001fe7e     0x1  Data  Gb  audio_codec.o [1]
PCD_WriteEmptyTxFifo    0x080284bb    0xc4  Code  Lc  stm32f7xx_hal_pcd.o [1]
PCM_Buffer1             0xc00181e0  0x1000  Data  Gb  audio_application.o [1]
PDM2PCMSDO78            0x0801d99d   0x3ac  Code  Gb  waverecorder.o [1]
PDM_Filter_64_LSB       0x0801e225   0x31e  Code  Gb  pdm_filter.o [5]
PDM_Filter_Init         0x0801e025   0x1fe  Code  Gb  pdm_filter.o [5]
PendSV_Handler          0x08029a4b     0x2  Code  Gb  stm32f7xx_it.o [1]
Region$$Table$$Base     0x08029c24           --   Gb  - Linker created -
Region$$Table$$Limit    0x08029c50           --   Gb  - Linker created -
S1                      0x2001fcf0    0x18  Data  Gb  main.o [1]
S2                      0x2001fd08    0x18  Data  Gb  main.o [1]
S3                      0x2001fd20    0x18  Data  Gb  main.o [1]
S4                      0x2001fd38    0x18  Data  Gb  main.o [1]
SCB_EnableDCache        0x08021acf    0x64  Code  Lc  main.o [1]
SCB_EnableICache        0x08021aa5    0x2a  Code  Lc  main.o [1]
SPI1_IRQHandler         0x0801c44d   0x232  Code  Gb  waverecorder.o [1]
SPI1_stNipple           0x2001fe72     0x2  Data  Gb  waverecorder.o [1]
SPI2_IRQHandler         0x0801c67f   0x242  Code  Gb  waverecorder.o [1]
SPI3_IRQHandler         0x080208b5     0xa  Code  Gb  audio_codec.o [1]
SPI4_IRQHandler         0x0801c8c1   0x242  Code  Gb  waverecorder.o [1]
SPI4_Init               0x0801ce1b    0x7c  Code  Gb  waverecorder.o [1]
SPI4_stPosShft          0x2001fe8c     0x1  Data  Gb  waverecorder.o [1]
SPI5_IRQHandler         0x0801cb03    0xec  Code  Gb  waverecorder.o [1]
SPI5_Init               0x0801ce9d    0xfe  Code  Gb  waverecorder.o [1]
SPI6_IRQHandler         0x0801cbef    0xe0  Code  Gb  waverecorder.o [1]
SPI6_Init               0x0801cfb1    0x7c  Code  Gb  waverecorder.o [1]
SPI_DMAError            0x0801eb89    0x28  Code  Lc  stm32f7xx_hal_spi.o [1]
SPI_DMAHalfReceiveCplt  0x0801eb69     0xe  Code  Lc  stm32f7xx_hal_spi.o [1]
SPI_DMAHalfTransmitReceiveCplt
                        0x0801eb79     0xe  Code  Lc  stm32f7xx_hal_spi.o [1]
SPI_DMAReceiveCplt      0x0801e9b5    0xe4  Code  Lc  stm32f7xx_hal_spi.o [1]
SPI_DMATransmitReceiveCplt
                        0x0801ea99    0xd0  Code  Lc  stm32f7xx_hal_spi.o [1]
SPI_EndRxTransaction    0x0801ecfd    0x68  Code  Lc  stm32f7xx_hal_spi.o [1]
SPI_EndRxTxTransaction  0x0801ed65    0x62  Code  Lc  stm32f7xx_hal_spi.o [1]
SPI_I2S_ReceiveData     0x0801d6bd     0x6  Code  Lc  waverecorder.o [1]
SPI_WaitFifoStateUntilTimeout
                        0x0801ec4b    0xb2  Code  Lc  stm32f7xx_hal_spi.o [1]
SPI_WaitFlagStateUntilTimeout
                        0x0801ebb1    0x9a  Code  Lc  stm32f7xx_hal_spi.o [1]
SS1                     0x2001fd94    0x14  Data  Gb  main.o [1]
SS2                     0x2001fda8    0x14  Data  Gb  main.o [1]
SS3                     0x2001fdbc    0x14  Data  Gb  main.o [1]
SS4                     0x2001fdd0    0x14  Data  Gb  main.o [1]
STA321MP_DefautLoad     0x0802509b    0x2c  Code  Lc  sta321mp.o [1]
STA321MP_Ini            0x080247e9   0x254  Code  Gb  sta321mp.o [1]
STACoefSet              0x08024a99   0x332  Code  Gb  sta321mp.o [1]
SVC_Handler             0x08029a47     0x2  Code  Gb  stm32f7xx_it.o [1]
Send_Audio_to_USB       0x08021037    0x14  Code  Gb  usbd_audio_if.o [1]
SetCoefValue            0x08024e79    0x6a  Code  Gb  sta321mp.o [1]
SumDelay                0x080222d5   0x10a  Code  Gb  main.o [1]
SysTick_Config          0x0801f021    0x30  Code  Lc  stm32f7xx_hal_cortex.o [1]
SysTick_Handler         0x08029a4d    0x26  Code  Gb  stm32f7xx_it.o [1]
SystemClock_Config      0x08021fd3    0xb0  Code  Lc  main.o [1]
SystemCoreClock         0x20010418     0x4  Data  Gb  system_stm32f7xx.o [1]
SystemInit              0x08029ab9    0x4c  Code  Gb  system_stm32f7xx.o [1]
T0                      0x20010004   0x100  Data  Gb  pdm_filter.o [5]
T1                      0x20010104   0x100  Data  Gb  pdm_filter.o [5]
T2                      0x20010204   0x100  Data  Gb  pdm_filter.o [5]
TestSDO12               0x2001042c  0x2000  Data  Gb  waverecorder.o [1]
TestSDO34               0x2001242c  0x2000  Data  Gb  waverecorder.o [1]
TestSDO56               0x2001442c  0x2000  Data  Gb  waverecorder.o [1]
TestSDO7                0x2001642c  0x2000  Data  Gb  waverecorder.o [1]
TestSDO7_1              0x2001a42c  0x2000  Data  Gb  waverecorder.o [1]
TestSDO8                0x2001842c  0x2000  Data  Gb  waverecorder.o [1]
TestSDO8_1              0x2001c42c  0x2000  Data  Gb  waverecorder.o [1]
Timing                  0x2001fcbc    0x1c  Data  Lc  stm32746g_discovery_sdram.o [1]
UART_EndTransmit_IT     0x080297ed    0x3c  Code  Lc  stm32f7xx_hal_uart.o [1]
UART_Receive_IT         0x08029829    0xa6  Code  Lc  stm32f7xx_hal_uart.o [1]
UART_Transmit_IT        0x08029741    0xac  Code  Lc  stm32f7xx_hal_uart.o [1]
UART_WaitOnFlagUntilTimeout
                        0x0802965d    0xde  Code  Gb  stm32f7xx_hal_uart.o [1]
USART3_IRQHandler       0x08029a75     0xa  Code  Gb  stm32f7xx_it.o [1]
USART6_IRQHandler       0x08029a73     0x2  Code  Gb  stm32f7xx_it.o [1]
USBD_AUDIO              0x20010354    0x38  Data  Gb  usbd_audio_in.o [1]
USBD_AUDIO_CfgDesc      0x2001f730    0x78  Data  Lc  usbd_audio_in.o [1]
USBD_AUDIO_ConfigStrDescriptor
                        0x08029945    0x26  Code  Gb  usbd_desc.o [1]
USBD_AUDIO_DataIn       0x0802338d   0x122  Code  Lc  usbd_audio_in.o [1]
USBD_AUDIO_DataOut      0x0802350b     0x6  Code  Lc  usbd_audio_in.o [1]
USBD_AUDIO_Data_Transfer
                        0x080235e7   0x186  Code  Gb  usbd_audio_in.o [1]
USBD_AUDIO_DeInit       0x08023277    0x2c  Code  Lc  usbd_audio_in.o [1]
USBD_AUDIO_DeviceDescriptor
                        0x080298d1     0xa  Code  Gb  usbd_desc.o [1]
USBD_AUDIO_DeviceQualifierDesc
                        0x20010404     0xc  Data  Lc  usbd_audio_in.o [1]
USBD_AUDIO_EP0_RxReady  0x080234af    0x44  Code  Lc  usbd_audio_in.o [1]
USBD_AUDIO_EP0_TxReady  0x080234f3     0x6  Code  Lc  usbd_audio_in.o [1]
USBD_AUDIO_GetCfgDesc   0x08023381     0xc  Code  Lc  usbd_audio_in.o [1]
USBD_AUDIO_GetDeviceQualifierDesc
                        0x08023511     0xc  Code  Lc  usbd_audio_in.o [1]
USBD_AUDIO_Init         0x080231f9    0x7e  Code  Lc  usbd_audio_in.o [1]
USBD_AUDIO_Init_Microphone_Descriptor
                        0x0802377b   0x52e  Code  Gb  usbd_audio_in.o [1]
USBD_AUDIO_InterfaceStrDescriptor
                        0x0802996b    0x26  Code  Gb  usbd_desc.o [1]
USBD_AUDIO_IsoINIncomplete
                        0x080234ff     0x6  Code  Lc  usbd_audio_in.o [1]
USBD_AUDIO_IsoOutIncomplete
                        0x08023505     0x6  Code  Lc  usbd_audio_in.o [1]
USBD_AUDIO_LangIDStrDescriptor
                        0x080298db     0xa  Code  Gb  usbd_desc.o [1]
USBD_AUDIO_ManufacturerStrDescriptor
                        0x0802990b    0x14  Code  Gb  usbd_desc.o [1]
USBD_AUDIO_ProductStrDescriptor
                        0x080298e5    0x26  Code  Gb  usbd_desc.o [1]
USBD_AUDIO_RegisterInterface
                        0x0802376d     0xe  Code  Gb  usbd_audio_in.o [1]
USBD_AUDIO_SOF          0x080234f9     0x6  Code  Lc  usbd_audio_in.o [1]
USBD_AUDIO_SerialStrDescriptor
                        0x0802991f    0x26  Code  Gb  usbd_desc.o [1]
USBD_AUDIO_Setup        0x080232a3    0xde  Code  Lc  usbd_audio_in.o [1]
USBD_AUDIO_fops         0x200103b0    0x24  Data  Gb  usbd_audio_if.o [1]
USBD_ClrClassConfig     0x08024533    0x18  Code  Gb  usbd_core.o [1]
USBD_ClrFeature         0x080262f7    0x3a  Code  Lc  usbd_ctlreq.o [1]
USBD_CtlContinueRx      0x08026439    0x1a  Code  Gb  usbd_ioreq.o [1]
USBD_CtlContinueSendData
                        0x080263f3    0x1a  Code  Gb  usbd_ioreq.o [1]
USBD_CtlError           0x08026359    0x18  Code  Gb  usbd_ctlreq.o [1]
USBD_CtlPrepareRx       0x0802640d    0x2c  Code  Gb  usbd_ioreq.o [1]
USBD_CtlReceiveStatus   0x0802646d    0x1a  Code  Gb  usbd_ioreq.o [1]
USBD_CtlSendData        0x080263cb    0x28  Code  Gb  usbd_ioreq.o [1]
USBD_CtlSendStatus      0x08026453    0x1a  Code  Gb  usbd_ioreq.o [1]
USBD_GetConfig          0x08026249    0x4c  Code  Lc  usbd_ctlreq.o [1]
USBD_GetDescriptor      0x08025fa5   0x164  Code  Lc  usbd_ctlreq.o [1]
USBD_GetLen             0x080263b7    0x14  Code  Lc  usbd_ctlreq.o [1]
USBD_GetStatus          0x08026295    0x3c  Code  Lc  usbd_ctlreq.o [1]
USBD_GetString          0x08026371    0x46  Code  Gb  usbd_ctlreq.o [1]
USBD_Init               0x080244a1    0x38  Code  Gb  usbd_core.o [1]
USBD_LL_ClearStallEP    0x08025cd1    0x16  Code  Gb  usbd_conf_f4.o [1]
USBD_LL_CloseEP         0x08025c8f    0x16  Code  Gb  usbd_conf_f4.o [1]
USBD_LL_DataInStage     0x08024643    0xe2  Code  Gb  usbd_core.o [1]
USBD_LL_DataOutStage    0x080245b5    0x8e  Code  Gb  usbd_core.o [1]
USBD_LL_DevConnected    0x080247c5     0x6  Code  Gb  usbd_core.o [1]
USBD_LL_DevDisconnected
                        0x080247cb    0x1c  Code  Gb  usbd_core.o [1]
USBD_LL_FlushEP         0x08025ca5    0x16  Code  Gb  usbd_conf_f4.o [1]
USBD_LL_Init            0x08025bc1    0x7e  Code  Gb  usbd_conf_f4.o [1]
USBD_LL_IsStallEP       0x08025ce7    0x30  Code  Gb  usbd_conf_f4.o [1]
USBD_LL_IsoINIncomplete
                        0x080247b9     0x6  Code  Gb  usbd_core.o [1]
USBD_LL_IsoOUTIncomplete
                        0x080247bf     0x6  Code  Gb  usbd_core.o [1]
USBD_LL_OpenEP          0x08025c6d    0x22  Code  Gb  usbd_conf_f4.o [1]
USBD_LL_PrepareReceive  0x08025d4d    0x20  Code  Gb  usbd_conf_f4.o [1]
USBD_LL_Reset           0x08024725    0x46  Code  Gb  usbd_core.o [1]
USBD_LL_Resume          0x08024787     0xe  Code  Gb  usbd_core.o [1]
USBD_LL_SOF             0x08024795    0x24  Code  Gb  usbd_core.o [1]
USBD_LL_SetSpeed        0x0802476b     0x8  Code  Gb  usbd_core.o [1]
USBD_LL_SetUSBAddress   0x08025d17    0x16  Code  Gb  usbd_conf_f4.o [1]
USBD_LL_SetupStage      0x0802454b    0x6a  Code  Gb  usbd_core.o [1]
USBD_LL_StallEP         0x08025cbb    0x16  Code  Gb  usbd_conf_f4.o [1]
USBD_LL_Start           0x08025c5d    0x10  Code  Gb  usbd_conf_f4.o [1]
USBD_LL_Suspend         0x08024773    0x14  Code  Gb  usbd_core.o [1]
USBD_LL_Transmit        0x08025d2d    0x20  Code  Gb  usbd_conf_f4.o [1]
USBD_LangIDDesc         0x2001041c     0x4  Data  Gb  usbd_desc.o [1]
USBD_ParseSetupRequest  0x08026331    0x28  Code  Gb  usbd_ctlreq.o [1]
USBD_RegisterClass      0x080244d9    0x1a  Code  Gb  usbd_core.o [1]
USBD_RunTestMode        0x08024501     0x6  Code  Gb  usbd_core.o [1]
USBD_SetAddress         0x08026109    0x60  Code  Lc  usbd_ctlreq.o [1]
USBD_SetClassConfig     0x08024507    0x2c  Code  Gb  usbd_core.o [1]
USBD_SetConfig          0x08026169    0xda  Code  Lc  usbd_ctlreq.o [1]
USBD_SetFeature         0x080262d1    0x26  Code  Lc  usbd_ctlreq.o [1]
USBD_Start              0x080244f3     0xe  Code  Gb  usbd_core.o [1]
USBD_StdDevReq          0x08025d6d    0x7c  Code  Gb  usbd_ctlreq.o [1]
USBD_StdEPReq           0x08025e35   0x170  Code  Gb  usbd_ctlreq.o [1]
USBD_StdItfReq          0x08025de9    0x4c  Code  Gb  usbd_ctlreq.o [1]
USBD_StrDesc            0x2001f568    0xc8  Data  Gb  usbd_desc.o [1]
USB_ActivateEndpoint    0x08028af1    0xc4  Code  Gb  stm32f7xx_ll_usb.o [1]
USB_ActivateSetup       0x08029433    0x44  Code  Gb  stm32f7xx_ll_usb.o [1]
USB_CoreInit            0x080287c9    0x6e  Code  Gb  stm32f7xx_ll_usb.o [1]
USB_CoreReset           0x080294cf    0x38  Code  Lc  stm32f7xx_ll_usb.o [1]
USB_DeactivateEndpoint  0x08028bb5    0xaa  Code  Gb  stm32f7xx_ll_usb.o [1]
USB_DevConnect          0x08029367    0x1e  Code  Gb  stm32f7xx_ll_usb.o [1]
USB_DevDisconnect       0x08029385    0x1e  Code  Gb  stm32f7xx_ll_usb.o [1]
USB_DevInit             0x08028889   0x1c0  Code  Gb  stm32f7xx_ll_usb.o [1]
USB_DisableGlobalInt    0x08028845     0xe  Code  Gb  stm32f7xx_ll_usb.o [1]
USB_EP0StartXfer        0x08028fa9   0x1ec  Code  Gb  stm32f7xx_ll_usb.o [1]
USB_EP0_OutStart        0x08029477    0x58  Code  Gb  stm32f7xx_ll_usb.o [1]
USB_EPClearStall        0x080292a5    0x96  Code  Gb  stm32f7xx_ll_usb.o [1]
USB_EPSetStall          0x08029207    0x9e  Code  Gb  stm32f7xx_ll_usb.o [1]
USB_EPStartXfer         0x08028c5f   0x342  Code  Gb  stm32f7xx_ll_usb.o [1]
USB_EnableGlobalInt     0x08028837     0xe  Code  Gb  stm32f7xx_ll_usb.o [1]
USB_FlushRxFifo         0x08028a6d    0x20  Code  Gb  stm32f7xx_ll_usb.o [1]
USB_FlushTxFifo         0x08028a49    0x24  Code  Gb  stm32f7xx_ll_usb.o [1]
USB_GetDevSpeed         0x08028aa3    0x4e  Code  Gb  stm32f7xx_ll_usb.o [1]
USB_GetMode             0x0802942b     0x8  Code  Gb  stm32f7xx_ll_usb.o [1]
USB_ReadDevAllInEpInterrupt
                        0x080293c7    0x16  Code  Gb  stm32f7xx_ll_usb.o [1]
USB_ReadDevAllOutEpInterrupt
                        0x080293b1    0x16  Code  Gb  stm32f7xx_ll_usb.o [1]
USB_ReadDevInEPInterrupt
                        0x080293f7    0x34  Code  Gb  stm32f7xx_ll_usb.o [1]
USB_ReadDevOutEPInterrupt
                        0x080293dd    0x1a  Code  Gb  stm32f7xx_ll_usb.o [1]
USB_ReadInterrupts      0x080293a3     0xe  Code  Gb  stm32f7xx_ll_usb.o [1]
USB_ReadPacket          0x080291db    0x2c  Code  Gb  stm32f7xx_ll_usb.o [1]
USB_SetCurrentMode      0x08028853    0x36  Code  Gb  stm32f7xx_ll_usb.o [1]
USB_SetDevAddress       0x0802933b    0x2c  Code  Gb  stm32f7xx_ll_usb.o [1]
USB_SetDevSpeed         0x08028a8d    0x16  Code  Gb  stm32f7xx_ll_usb.o [1]
USB_WritePacket         0x08029195    0x46  Code  Gb  stm32f7xx_ll_usb.o [1]
UsageFault_Handler      0x08029a45     0x2  Code  Gb  stm32f7xx_it.o [1]
VOL_CUR                 0x2001fe58     0x2  Data  Lc  usbd_audio_in.o [1]
Volume                  0x20010424     0x1  Data  Gb  audio_codec.o [1]
WavePlayerInit          0x080230d5    0x12  Code  Gb  waveplayer _CS43L22.o [1]
WaveRec_idxSens1        0x2001fe3c     0x2  Data  Gb  main.o [1]
WaveRec_idxSens2        0x2001fe3e     0x2  Data  Gb  main.o [1]
WaveRec_idxSens3        0x2001fe38     0x2  Data  Gb  main.o [1]
WaveRec_idxSens4        0x2001fe36     0x2  Data  Gb  main.o [1]
WaveRec_idxSens5        0x2001fe40     0x2  Data  Gb  main.o [1]
WaveRec_idxSens6        0x2001fe42     0x2  Data  Gb  main.o [1]
WaveRecord_flgIni       0x2001fe85     0x1  Data  Gb  waverecorder.o [1]
WaveRecord_flgSDO7Finish
                        0x2001fe88     0x1  Data  Gb  waverecorder.o [1]
WaveRecord_flgSDO8Finish
                        0x2001fe89     0x1  Data  Gb  waverecorder.o [1]
WriteCoef               0x08024dcb    0xae  Code  Gb  sta321mp.o [1]
WriteSTAByte            0x08024a3d    0x5c  Code  Gb  sta321mp.o [1]
XferCplt                0x2001fe24     0x4  Data  Gb  waveplayer _CS43L22.o [1]
__aeabi_cdcmpeq         0x08023d3d          Code  Gb  DblCmpEq.o [6]
__aeabi_cdcmple         0x08021055          Code  Gb  DblCmpLe.o [6]
__aeabi_cdrcmple        0x08021085          Code  Gb  DblCmpGe.o [6]
__aeabi_cfcmpeq         0x0801f189          Code  Gb  FltCmpEq.o [6]
__aeabi_cfcmple         0x0801f1b5          Code  Gb  FltCmpLe.o [6]
__aeabi_d2f             0x0801f79d          Code  Gb  DblToFlt.o [6]
__aeabi_d2iz            0x0801f5ad          Code  Gb  DblToI32.o [6]
__aeabi_dadd            0x0801f4c5          Code  Gb  DblAdd.o [6]
__aeabi_ddiv            0x0801f26d          Code  Gb  DblDiv.o [6]
__aeabi_dmul            0x0801f5f9          Code  Gb  DblMul.o [6]
__aeabi_dsub            0x0801fc7d          Code  Gb  DblSub.o [6]
__aeabi_errno_addr      0x080210b5     0x6  Code  Gb  errno.o [3]
__aeabi_f2d             0x0801f1ed          Code  Gb  FltToDbl.o [6]
__aeabi_fmul            0x0801f1d9    0x12  Code  Gb  FltMul.o [6]
__aeabi_i2d             0x0801f23d          Code  Gb  I32ToDbl.o [6]
__aeabi_memset          0x08026489          Code  Gb  ABImemset.o [7]
__aeabi_ui2d            0x0801f251          Code  Gb  I32ToDbl.o [6]
__aeabi_ui2f            0x0801f1a5     0xe  Code  Gb  U32ToFlt.o [6]
__cmain                 0x08029c51          Code  Gb  cmain.o [7]
__data_GetMemChunk      0x08028621    0x2c  Code  Gb  xgetmemchunk.o [3]
__exit                  0x08029519    0x14  Code  Gb  exit.o [8]
__iar_Dint              0x08023cc3    0x7a  Code  Gb  xdint.o [6]
__iar_Errno             0x20010420     0x4  Data  Gb  errno.o [3]
__iar_Memset            0x08026489          Code  Gb  ABImemset.o [7]
__iar_Memset_word       0x08026491          Code  Gb  ABImemset.o [7]
__iar_Quad              0x080210c1   0x12c  Code  Gb  xquad.o [6]
__iar_Sin               0x0801f82d   0x3b2  Code  Gb  xsin.o [6]
__iar_close_ttio        0x0802952d    0x2e  Code  Gb  iarttio.o [8]
__iar_copy_init3        0x08029b65    0x2c  Code  Gb  copy_init3.o [7]
__iar_d2uiz             0x0801f5d9          Code  Gb  DblToI32.o [6]
__iar_dadd              0x0801f4d9          Code  Gb  DblAdd.o [6]
__iar_data_init3        0x08029b91    0x28  Code  Gb  data_init.o [7]
__iar_dlfree            0x080274c7   0x510  Code  Gb  dlmalloc.o [3]
__iar_dlib_perthread_access
                        0x08023cc1     0x2  Code  Gb  xtls.o [3]
__iar_dlmalloc          0x08027211   0x2aa  Code  Gb  dlmalloc.o [3]
__iar_dsub              0x0801fc91          Code  Gb  DblSub.o [6]
__iar_dsubStart         0x0801fca3          Code  Gb  DblSub.o [6]
__iar_edom              0x08021229          Code  Gb  iarEdom.o [7]
__iar_fmod              0x08023d5d          Code  Gb  fmod.o [6]
__iar_fmodl             0x08023d5d          Code  Gb  fmod.o [6]
__iar_init_vfp          0x08029c01          Code  Gb  fpinit_M.o [6]
__iar_lookup_ttioh      0x0802955d     0x8  Code  Gb  XShttio.o [3]
__iar_program_start     0x08029cf5          Code  Gb  cstartup_M.o [7]
__iar_sqrt              0x0801fdfd          Code  Gb  sqrt.o [6]
__iar_ttio_handles      0x20010410     0x8  Data  Lc  XShttio.o [3]
__iar_ui2d              0x0801f255          Code  Gb  I32ToDbl.o [6]
__iar_unaligned___aeabi_memcpy
                        0x080279e1          Code  Gb  ABImemcpy_unaligned.o [7]
__iar_unaligned___aeabi_memcpy4
                        0x08027a01          Code  Gb  ABImemcpy_unaligned.o [7]
__iar_unaligned___aeabi_memcpy8
                        0x08027a01          Code  Gb  ABImemcpy_unaligned.o [7]
__iar_zero_init3        0x08029b25    0x40  Code  Gb  zero_init3.o [7]
__low_level_init        0x08029c6b     0x4  Code  Gb  low_level_init.o [3]
__vector_table          0x08000000          Data  Gb  startup_stm32f746xx.o [1]
_call_main              0x08029c5d          Code  Gb  cmain.o [7]
_exit                   0x08029c75          Code  Gb  cexit.o [7]
_gm_                    0x2001f210   0x1d8  Data  Lc  dlmalloc.o [3]
_main                   0x08029c67          Code  Gb  cmain.o [7]
abort                   0x08028619     0x6  Code  Gb  abort.o [3]
abs                     0x080231f1     0x8  Code  Gb  abs.o [3]
armBitRevTable          0x080001c8   0x800  Data  Gb  arm_common_tables.o [4]
arm_cfft_radix4_init_f32
                        0x08010a41    0xb0  Code  Gb  arm_cfft_radix4_init_f32.o [4]
arm_rfft_init_f32       0x080089c9    0x72  Code  Gb  arm_rfft_init_f32.o [4]
btnSW1                  0x2001fe7f     0x1  Data  Gb  main.o [1]
btnSW2                  0x2001fe80     0x1  Data  Gb  main.o [1]
bufCoefBiquad           0x2001fdf8    0x10  Data  Gb  sta321mp.o [1]
bufPCMSens7             0x2001fe28     0x4  Data  Gb  waverecorder.o [1]
bufPCMSens8             0x2001fe2c     0x4  Data  Gb  waverecorder.o [1]
bufferSum               0x2001e42c   0x800  Data  Gb  main.o [1]
buffer_switch           0x20010425     0x1  Data  Gb  main.o [1]
cntFrm                  0x2001fe34     0x2  Data  Gb  audio_application.o [1]
cntOS                   0x2001fe20     0x4  Data  Gb  stm32f7xx_it.o [1]
cntPos                  0x2001fe60     0x2  Data  Gb  waverecorder.o [1]
cntPos7                 0x2001fe62     0x2  Data  Gb  waverecorder.o [1]
cntRisingEXTI           0x2001fe46     0x2  Data  Gb  main.o [1]
cntStrt                 0x2001fe64     0x2  Data  Gb  waverecorder.o [1]
cntTime200              0x2001fe54     0x2  Data  Gb  main.o [1]
exit                    0x08029c6f     0x4  Code  Gb  exit.o [3]
flg10ms                 0x2001fe83     0x1  Data  Gb  main.o [1]
flgDlyUpd               0x2001fe81     0x1  Data  Gb  main.o [1]
fmod                    0x08023d5d          Code  Gb  fmod.o [6]
fmodl                   0x08023d5d          Code  Gb  fmod.o [6]
hUSBDDevice             0x2001efec   0x224  Data  Gb  main.o [1]
hUSBDDeviceDesc         0x200103f0    0x14  Data  Gb  usbd_desc.o [1]
haudioInstance          0x2001f8e4    0x64  Data  Lc  usbd_audio_in.o [1]
hdma_spi5_rx            0x2001fab0    0x50  Data  Gb  waverecorder.o [1]
hdma_spi6_rx            0x2001fb00    0x50  Data  Gb  waverecorder.o [1]
hi2c1                   0x2001fc10    0x3c  Data  Gb  audio_codec.o [1]
hi2c2                   0x2001fc4c    0x3c  Data  Gb  audio_codec.o [1]
hi2s1                   0x2001fb90    0x40  Data  Gb  waverecorder.o [1]
hi2s2                   0x2001fbd0    0x40  Data  Gb  waverecorder.o [1]
hi2s3                   0x2001fb50    0x40  Data  Gb  waveplayer _CS43L22.o [1]
hpcd                    0x2001ec2c   0x3c0  Data  Gb  usbd_conf_f4.o [1]
hspi4                   0x2001f880    0x64  Data  Gb  main.o [1]
hspi5                   0x2001f948    0x64  Data  Gb  waverecorder.o [1]
hspi6                   0x2001f9ac    0x64  Data  Gb  waverecorder.o [1]
huart3                  0x2001f7a8    0x70  Data  Gb  main.o [1]
iSDO12                  0x2001fe78     0x2  Data  Gb  waverecorder.o [1]
iSDO34                  0x2001fe7a     0x2  Data  Gb  waverecorder.o [1]
iSDO56                  0x2001fe7c     0x2  Data  Gb  waverecorder.o [1]
idxFrmPDMMic8           0x2001fe5e     0x2  Data  Gb  waverecorder.o [1]
idxLatency12            0x2001fe4a     0x2  Data  Gb  main.o [1]
idxLatency13            0x2001fe48     0x2  Data  Gb  main.o [1]
idxLatency14            0x2001fe4c     0x2  Data  Gb  main.o [1]
idxLatency25            0x2001fe4e     0x2  Data  Gb  main.o [1]
idxLatency63            0x2001fe50     0x2  Data  Gb  main.o [1]
idxLatency78            0x2001fe52     0x2  Data  Gb  main.o [1]
idxMic7                 0x2001fe5c     0x2  Data  Gb  waverecorder.o [1]
idxMic8                 0x2001fe5a     0x2  Data  Gb  waverecorder.o [1]
idxSPI5DataBuf3         0x2001fe44     0x2  Data  Gb  main.o [1]
init_mparams            0x0802650b    0x32  Code  Lc  dlmalloc.o [3]
init_top                0x0802653d    0x34  Code  Lc  dlmalloc.o [3]
main                    0x08021d75   0x25e  Code  Gb  main.o [1]
mparams                 0x2001fd68    0x18  Data  Lc  dlmalloc.o [3]
pDataMic7               0x2001f6b0    0x80  Data  Gb  waverecorder.o [1]
pDataMic8               0x2001f630    0x80  Data  Gb  waverecorder.o [1]
pcSTAComnd              0x20010304    0x50  Data  Gb  sta321mp.o [1]
pcSTAComnd1             0x2001fe56     0x2  Data  Gb  sta321mp.o [1]
pcSTAComnd2             0x2001038c    0x24  Data  Gb  sta321mp.o [1]
prepend_alloc           0x08026571   0x36c  Code  Lc  dlmalloc.o [3]
realCoefA               0x08008a40  0x8000  Data  Lc  arm_rfft_init_f32.o [4]
realCoefB               0x08010af0  0x8000  Data  Lc  arm_rfft_init_f32.o [4]
sdramHandle             0x2001fc88    0x34  Data  Lc  stm32746g_discovery_sdram.o [1]
segment_holding         0x080264f1    0x1a  Code  Lc  dlmalloc.o [3]
sqrt                    0x0801fdfd          Code  Gb  sqrt.o [6]
sqrtl                   0x0801fdfd          Code  Gb  sqrt.o [6]
stFrstFrmStore          0x2001fe82     0x1  Data  Gb  main.o [1]
sta321mp_biquad         0x08024f3b   0x160  Code  Lc  sta321mp.o [1]
sta321mp_mixer          0x08024ee3    0x2a  Code  Lc  sta321mp.o [1]
sta321mp_postscale      0x08024f25    0x16  Code  Lc  sta321mp.o [1]
sta321mp_prescale       0x08024f0d    0x18  Code  Lc  sta321mp.o [1]
stm32_crc               0x20010000     0x4  Data  Gb  pdm_filter.o [5]
swtSDO7                 0x2001fe86     0x1  Data  Gb  waverecorder.o [1]
swtSDO8                 0x2001fe87     0x1  Data  Gb  waverecorder.o [1]
sys_alloc               0x080268dd   0x386  Code  Lc  dlmalloc.o [3]
tmalloc_large           0x08026c71   0x390  Code  Lc  dlmalloc.o [3]
tmalloc_small           0x08027001   0x210  Code  Lc  dlmalloc.o [3]
twiddleCoef_4096        0x080009c8  0x8000  Data  Gb  arm_common_tables.o [4]
uwTick                  0x2001fe1c     0x4  Data  Lc  stm32f7xx_hal.o [1]
vRawSens1               0x2001fe66     0x2  Data  Gb  waverecorder.o [1]
vRawSens2               0x2001fe68     0x2  Data  Gb  waverecorder.o [1]
vRawSens3               0x2001fe6c     0x2  Data  Gb  waverecorder.o [1]
vRawSens4               0x2001fe6a     0x2  Data  Gb  waverecorder.o [1]
vRawSens5               0x2001fe6e     0x2  Data  Gb  waverecorder.o [1]
vRawSens6               0x2001fe70     0x2  Data  Gb  waverecorder.o [1]
vol_table               0x080299b8    0x84  Data  Gb  usbd_audio_if.o [1]
volume                  0x20010428     0x1  Data  Gb  waveplayer _CS43L22.o [1]


[1] = H:\PhanLeSon\ActivNoise\Microphone\F7\Mic_Array_Project\Mic_Array\Projects\STM32746G\Applications\Audio\Mic_Array\EWARM\STM32F7\Obj
[2] = command line
[3] = dl7M_tlf.a
[4] = iar_cortexM7ls_math.a
[5] = libPDMFilter_CM7_IAR.a
[6] = m7M_tls.a
[7] = rt7M_tl.a
[8] = shb_l.a

  103 636 bytes of readonly  code memory
   69 012 bytes of readonly  data memory
   81 552 bytes of readwrite data memory (+ 102 880 absolute)

Errors: none
Warnings: none
