///////////////////////////////////////////////////////////////////////////////
//
// IAR ANSI C/C++ Compiler V7.50.2.10312/W32 for ARM      27/Feb/2016  00:32:33
// Copyright 1999-2015 IAR Systems AB.
//
//    Cpu mode     =  thumb
//    Endian       =  little
//    Source file  =  
//        H:\PhanLeSon\ActivNoise\Microphone\F7\Mic_Array_Project\Mic_Array\Drivers\STM32F7xx_HAL_Driver\Src\stm32f7xx_hal_dma.c
//    Command line =  
//        H:\PhanLeSon\ActivNoise\Microphone\F7\Mic_Array_Project\Mic_Array\Drivers\STM32F7xx_HAL_Driver\Src\stm32f7xx_hal_dma.c
//        -D USE_HAL_DRIVER -D STM32F746xx -D USE_STM32746G_DISCO -D
//        USE_IOEXPANDER -D USE_USB_FS -lC
//        H:\PhanLeSon\ActivNoise\Microphone\F7\Mic_Array_Project\Mic_Array\Projects\STM32746G\Applications\Audio\Mic_Array\EWARM\STM32F7\List
//        -lA
//        H:\PhanLeSon\ActivNoise\Microphone\F7\Mic_Array_Project\Mic_Array\Projects\STM32746G\Applications\Audio\Mic_Array\EWARM\STM32F7\List
//        -o
//        H:\PhanLeSon\ActivNoise\Microphone\F7\Mic_Array_Project\Mic_Array\Projects\STM32746G\Applications\Audio\Mic_Array\EWARM\STM32F7\Obj
//        --no_unroll --no_inline --no_tbaa --no_scheduling --debug
//        --endian=little --cpu=Cortex-M7 -e --fpu=VFPv5_sp --dlib_config
//        "D:\Program Files (x86)\IAR Systems\Embedded Workbench
//        7.3\arm\INC\c\DLib_Config_Full.h" -I
//        H:\PhanLeSon\ActivNoise\Microphone\F7\Mic_Array_Project\Mic_Array\Projects\STM32746G\Applications\Audio\Mic_Array\EWARM\..\Inc\
//        -I
//        H:\PhanLeSon\ActivNoise\Microphone\F7\Mic_Array_Project\Mic_Array\Projects\STM32746G\Applications\Audio\Mic_Array\EWARM\..\..\..\..\..\..\Drivers\CMSIS\Device\ST\STM32F7xx\Include\
//        -I
//        H:\PhanLeSon\ActivNoise\Microphone\F7\Mic_Array_Project\Mic_Array\Projects\STM32746G\Applications\Audio\Mic_Array\EWARM\..\..\..\..\..\..\Drivers\STM32F7xx_HAL_Driver\Inc\
//        -I
//        H:\PhanLeSon\ActivNoise\Microphone\F7\Mic_Array_Project\Mic_Array\Projects\STM32746G\Applications\Audio\Mic_Array\EWARM\..\..\..\..\..\..\Drivers\BSP\STM32746G-Discovery\
//        -I
//        H:\PhanLeSon\ActivNoise\Microphone\F7\Mic_Array_Project\Mic_Array\Projects\STM32746G\Applications\Audio\Mic_Array\EWARM\..\..\..\..\..\..\Drivers\BSP\Components\Common\
//        -I
//        H:\PhanLeSon\ActivNoise\Microphone\F7\Mic_Array_Project\Mic_Array\Projects\STM32746G\Applications\Audio\Mic_Array\EWARM\..\..\..\..\..\..\Utilities\Log\
//        -I
//        H:\PhanLeSon\ActivNoise\Microphone\F7\Mic_Array_Project\Mic_Array\Projects\STM32746G\Applications\Audio\Mic_Array\EWARM\..\..\..\..\..\..\Utilities\Fonts\
//        -I
//        H:\PhanLeSon\ActivNoise\Microphone\F7\Mic_Array_Project\Mic_Array\Projects\STM32746G\Applications\Audio\Mic_Array\EWARM\..\..\..\..\..\..\Utilities\CPU\
//        -I
//        H:\PhanLeSon\ActivNoise\Microphone\F7\Mic_Array_Project\Mic_Array\Projects\STM32746G\Applications\Audio\Mic_Array\EWARM\..\..\..\..\..\..\Middlewares\ST\STM32_USB_Device_Library\Core\Inc\
//        -I
//        H:\PhanLeSon\ActivNoise\Microphone\F7\Mic_Array_Project\Mic_Array\Projects\STM32746G\Applications\Audio\Mic_Array\EWARM\..\..\..\..\..\..\Middlewares\ST\STM32_USB_HOST_Library\Core\Inc\
//        -I
//        H:\PhanLeSon\ActivNoise\Microphone\F7\Mic_Array_Project\Mic_Array\Projects\STM32746G\Applications\Audio\Mic_Array\EWARM\..\..\..\..\..\..\Middlewares\ST\STM32_USB_HOST_Library\Class\MSC\Inc\
//        -I
//        H:\PhanLeSon\ActivNoise\Microphone\F7\Mic_Array_Project\Mic_Array\Projects\STM32746G\Applications\Audio\Mic_Array\EWARM\..\..\..\..\..\..\Middlewares\Third_Party\FatFs\src\
//        -I
//        H:\PhanLeSon\ActivNoise\Microphone\F7\Mic_Array_Project\Mic_Array\Projects\STM32746G\Applications\Audio\Mic_Array\EWARM\..\..\..\..\..\..\Middlewares\Third_Party\FatFs\src\drivers\
//        -I
//        H:\PhanLeSon\ActivNoise\Microphone\F7\Mic_Array_Project\Mic_Array\Projects\STM32746G\Applications\Audio\Mic_Array\EWARM\..\..\..\..\..\..\Middlewares\ST\STM32_Audio\Addons\PDM\
//        -I
//        H:\PhanLeSon\ActivNoise\Microphone\F7\Mic_Array_Project\Mic_Array\Projects\STM32746G\Applications\Audio\Mic_Array\EWARM\..\..\..\..\..\..\Middlewares\ST\STM32_USB_Device_Library\Class\AUDIO\Inc\
//        -Om --use_c++_inline --require_prototypes -I "D:\Program Files
//        (x86)\IAR Systems\Embedded Workbench 7.3\arm\CMSIS\Include\" -D
//        ARM_MATH_CM7
//    List file    =  
//        H:\PhanLeSon\ActivNoise\Microphone\F7\Mic_Array_Project\Mic_Array\Projects\STM32746G\Applications\Audio\Mic_Array\EWARM\STM32F7\List\stm32f7xx_hal_dma.s
//
///////////////////////////////////////////////////////////////////////////////

        RTMODEL "__SystemLibrary", "DLib"
        RTMODEL "__dlib_file_descriptor", "1"
        AAPCS BASE,INTERWORK,VFP
        PRESERVE8
        REQUIRE8

        #define SHT_PROGBITS 0x1

        EXTERN HAL_GetTick

        PUBLIC DMA_SetConfig
        PUBLIC HAL_DMA_Abort
        PUBLIC HAL_DMA_DeInit
        PUBLIC HAL_DMA_GetError
        PUBLIC HAL_DMA_GetState
        PUBLIC HAL_DMA_IRQHandler
        PUBLIC HAL_DMA_Init
        PUBLIC HAL_DMA_PollForTransfer
        PUBLIC HAL_DMA_Start
        PUBLIC HAL_DMA_Start_IT
        
          CFI Names cfiNames0
          CFI StackFrame CFA R13 DATA
          CFI Resource R0:32, R1:32, R2:32, R3:32, R4:32, R5:32, R6:32, R7:32
          CFI Resource R8:32, R9:32, R10:32, R11:32, R12:32, R13:32, R14:32
          CFI Resource D0:64, D1:64, D2:64, D3:64, D4:64, D5:64, D6:64, D7:64
          CFI Resource D8:64, D9:64, D10:64, D11:64, D12:64, D13:64, D14:64
          CFI Resource D15:64
          CFI EndNames cfiNames0
        
          CFI Common cfiCommon0 Using cfiNames0
          CFI CodeAlign 2
          CFI DataAlign 4
          CFI ReturnAddress R14 CODE
          CFI CFA R13+0
          CFI R0 Undefined
          CFI R1 Undefined
          CFI R2 Undefined
          CFI R3 Undefined
          CFI R4 SameValue
          CFI R5 SameValue
          CFI R6 SameValue
          CFI R7 SameValue
          CFI R8 SameValue
          CFI R9 SameValue
          CFI R10 SameValue
          CFI R11 SameValue
          CFI R12 Undefined
          CFI R14 SameValue
          CFI D0 Undefined
          CFI D1 Undefined
          CFI D2 Undefined
          CFI D3 Undefined
          CFI D4 Undefined
          CFI D5 Undefined
          CFI D6 Undefined
          CFI D7 Undefined
          CFI D8 SameValue
          CFI D9 SameValue
          CFI D10 SameValue
          CFI D11 SameValue
          CFI D12 SameValue
          CFI D13 SameValue
          CFI D14 SameValue
          CFI D15 SameValue
          CFI EndCommon cfiCommon0
        
// H:\PhanLeSon\ActivNoise\Microphone\F7\Mic_Array_Project\Mic_Array\Drivers\STM32F7xx_HAL_Driver\Src\stm32f7xx_hal_dma.c
//    1 /**
//    2   ******************************************************************************
//    3   * @file    stm32f7xx_hal_dma.c
//    4   * @author  MCD Application Team
//    5   * @version V1.0.1
//    6   * @date    25-June-2015
//    7   * @brief   DMA HAL module driver.
//    8   *    
//    9   *          This file provides firmware functions to manage the following 
//   10   *          functionalities of the Direct Memory Access (DMA) peripheral:
//   11   *           + Initialization and de-initialization functions
//   12   *           + IO operation functions
//   13   *           + Peripheral State and errors functions
//   14   @verbatim     
//   15   ==============================================================================      
//   16                         ##### How to use this driver #####
//   17   ============================================================================== 
//   18   [..]
//   19    (#) Enable and configure the peripheral to be connected to the DMA Stream
//   20        (except for internal SRAM/FLASH memories: no initialization is 
//   21        necessary) please refer to Reference manual for connection between peripherals
//   22        and DMA requests . 
//   23           
//   24    (#) For a given Stream, program the required configuration through the following parameters:   
//   25        Transfer Direction, Source and Destination data formats, 
//   26        Circular, Normal or peripheral flow control mode, Stream Priority level, 
//   27        Source and Destination Increment mode, FIFO mode and its Threshold (if needed), 
//   28        Burst mode for Source and/or Destination (if needed) using HAL_DMA_Init() function.
//   29                      
//   30      *** Polling mode IO operation ***
//   31      =================================   
//   32     [..] 
//   33           (+) Use HAL_DMA_Start() to start DMA transfer after the configuration of Source 
//   34               address and destination address and the Length of data to be transferred
//   35           (+) Use HAL_DMA_PollForTransfer() to poll for the end of current transfer, in this  
//   36               case a fixed Timeout can be configured by User depending from his application.
//   37                
//   38      *** Interrupt mode IO operation ***    
//   39      =================================== 
//   40     [..]     
//   41           (+) Configure the DMA interrupt priority using HAL_NVIC_SetPriority()
//   42           (+) Enable the DMA IRQ handler using HAL_NVIC_EnableIRQ() 
//   43           (+) Use HAL_DMA_Start_IT() to start DMA transfer after the configuration of  
//   44               Source address and destination address and the Length of data to be transferred. In this 
//   45               case the DMA interrupt is configured 
//   46           (+) Use HAL_DMA_IRQHandler() called under DMA_IRQHandler() Interrupt subroutine
//   47           (+) At the end of data transfer HAL_DMA_IRQHandler() function is executed and user can 
//   48               add his own function by customization of function pointer XferCpltCallback and 
//   49               XferErrorCallback (i.e a member of DMA handle structure). 
//   50     [..]                
//   51      (#) Use HAL_DMA_GetState() function to return the DMA state and HAL_DMA_GetError() in case of error 
//   52          detection.
//   53          
//   54      (#) Use HAL_DMA_Abort() function to abort the current transfer
//   55      
//   56      -@-   In Memory-to-Memory transfer mode, Circular mode is not allowed.
//   57     
//   58      -@-   The FIFO is used mainly to reduce bus usage and to allow data packing/unpacking: it is
//   59            possible to set different Data Sizes for the Peripheral and the Memory (ie. you can set
//   60            Half-Word data size for the peripheral to access its data register and set Word data size
//   61            for the Memory to gain in access time. Each two half words will be packed and written in
//   62            a single access to a Word in the Memory).
//   63       
//   64      -@-   When FIFO is disabled, it is not allowed to configure different Data Sizes for Source
//   65            and Destination. In this case the Peripheral Data Size will be applied to both Source
//   66            and Destination.               
//   67   
//   68      *** DMA HAL driver macros list ***
//   69      ============================================= 
//   70      [..]
//   71        Below the list of most used macros in DMA HAL driver.
//   72        
//   73       (+) __HAL_DMA_ENABLE: Enable the specified DMA Stream.
//   74       (+) __HAL_DMA_DISABLE: Disable the specified DMA Stream.
//   75       (+) __HAL_DMA_GET_FS: Return the current DMA Stream FIFO filled level.
//   76       (+) __HAL_DMA_GET_FLAG: Get the DMA Stream pending flags.
//   77       (+) __HAL_DMA_CLEAR_FLAG: Clear the DMA Stream pending flags.
//   78       (+) __HAL_DMA_ENABLE_IT: Enable the specified DMA Stream interrupts.
//   79       (+) __HAL_DMA_DISABLE_IT: Disable the specified DMA Stream interrupts.
//   80       (+) __HAL_DMA_GET_IT_SOURCE: Check whether the specified DMA Stream interrupt has occurred or not. 
//   81      
//   82      [..] 
//   83       (@) You can refer to the DMA HAL driver header file for more useful macros  
//   84   
//   85   @endverbatim
//   86   ******************************************************************************
//   87   * @attention
//   88   *
//   89   * <h2><center>&copy; COPYRIGHT(c) 2015 STMicroelectronics</center></h2>
//   90   *
//   91   * Redistribution and use in source and binary forms, with or without modification,
//   92   * are permitted provided that the following conditions are met:
//   93   *   1. Redistributions of source code must retain the above copyright notice,
//   94   *      this list of conditions and the following disclaimer.
//   95   *   2. Redistributions in binary form must reproduce the above copyright notice,
//   96   *      this list of conditions and the following disclaimer in the documentation
//   97   *      and/or other materials provided with the distribution.
//   98   *   3. Neither the name of STMicroelectronics nor the names of its contributors
//   99   *      may be used to endorse or promote products derived from this software
//  100   *      without specific prior written permission.
//  101   *
//  102   * THIS SOFTWARE IS PROVIDED BY THE COPYRIGHT HOLDERS AND CONTRIBUTORS "AS IS"
//  103   * AND ANY EXPRESS OR IMPLIED WARRANTIES, INCLUDING, BUT NOT LIMITED TO, THE
//  104   * IMPLIED WARRANTIES OF MERCHANTABILITY AND FITNESS FOR A PARTICULAR PURPOSE ARE
//  105   * DISCLAIMED. IN NO EVENT SHALL THE COPYRIGHT HOLDER OR CONTRIBUTORS BE LIABLE
//  106   * FOR ANY DIRECT, INDIRECT, INCIDENTAL, SPECIAL, EXEMPLARY, OR CONSEQUENTIAL
//  107   * DAMAGES (INCLUDING, BUT NOT LIMITED TO, PROCUREMENT OF SUBSTITUTE GOODS OR
//  108   * SERVICES; LOSS OF USE, DATA, OR PROFITS; OR BUSINESS INTERRUPTION) HOWEVER
//  109   * CAUSED AND ON ANY THEORY OF LIABILITY, WHETHER IN CONTRACT, STRICT LIABILITY,
//  110   * OR TORT (INCLUDING NEGLIGENCE OR OTHERWISE) ARISING IN ANY WAY OUT OF THE USE
//  111   * OF THIS SOFTWARE, EVEN IF ADVISED OF THE POSSIBILITY OF SUCH DAMAGE.
//  112   *
//  113   ******************************************************************************
//  114   */ 
//  115 
//  116 /* Includes ------------------------------------------------------------------*/
//  117 #include "stm32f7xx_hal.h"
//  118 
//  119 /** @addtogroup STM32F7xx_HAL_Driver
//  120   * @{
//  121   */
//  122 
//  123 /** @defgroup DMA DMA
//  124   * @brief DMA HAL module driver
//  125   * @{
//  126   */
//  127 
//  128 #ifdef HAL_DMA_MODULE_ENABLED
//  129 
//  130 /* Private types -------------------------------------------------------------*/
//  131 /* Private variables ---------------------------------------------------------*/
//  132 /* Private constants ---------------------------------------------------------*/
//  133 /** @addtogroup DMA_Private_Constants
//  134  * @{
//  135  */
//  136  #define HAL_TIMEOUT_DMA_ABORT    ((uint32_t)1000)  /* 1s */
//  137 /**
//  138   * @}
//  139   */
//  140 /* Private macros ------------------------------------------------------------*/
//  141 /* Private functions ---------------------------------------------------------*/
//  142 /** @addtogroup DMA_Private_Functions
//  143   * @{
//  144   */
//  145 
//  146 /**
//  147   * @brief  Sets the DMA Transfer parameter.
//  148   * @param  hdma:       pointer to a DMA_HandleTypeDef structure that contains
//  149   *                     the configuration information for the specified DMA Stream.
//  150   * @param  SrcAddress: The source memory Buffer address
//  151   * @param  DstAddress: The destination memory Buffer address
//  152   * @param  DataLength: The length of data to be transferred from source to destination
//  153   * @retval HAL status
//  154   */

        SECTION `.text`:CODE:NOROOT(1)
          CFI Block cfiBlock0 Using cfiCommon0
          CFI Function DMA_SetConfig
          CFI NoCalls
        THUMB
//  155 void DMA_SetConfig(DMA_HandleTypeDef *hdma, uint32_t SrcAddress, uint32_t DstAddress, uint32_t DataLength)
//  156 {
DMA_SetConfig:
        PUSH     {R4,R5}
          CFI R5 Frame(CFA, -4)
          CFI R4 Frame(CFA, -8)
          CFI CFA R13+8
//  157   /* Clear DBM bit */
//  158   hdma->Instance->CR &= (uint32_t)(~DMA_SxCR_DBM);
        LDR      R4,[R0, #+0]
        LDR      R5,[R4, #+0]
        BIC      R5,R5,#0x40000
        STR      R5,[R4, #+0]
//  159 	
//  160   /* Configure DMA Stream data length */
//  161   hdma->Instance->NDTR = DataLength;
        LDR      R4,[R0, #+0]
        STR      R3,[R4, #+4]
//  162 
//  163   /* Peripheral to Memory */
//  164   if((hdma->Init.Direction) == DMA_MEMORY_TO_PERIPH)
        LDR      R3,[R0, #+0]
        LDR      R4,[R0, #+8]
        CMP      R4,#+64
        BNE.N    ??DMA_SetConfig_0
//  165   {
//  166     /* Configure DMA Stream destination address */
//  167     hdma->Instance->PAR = DstAddress;
        STR      R2,[R3, #+8]
//  168 
//  169     /* Configure DMA Stream source address */
//  170     hdma->Instance->M0AR = SrcAddress;
        LDR      R0,[R0, #+0]
        STR      R1,[R0, #+12]
        B.N      ??DMA_SetConfig_1
//  171   }
//  172   /* Memory to Peripheral */
//  173   else
//  174   {
//  175     /* Configure DMA Stream source address */
//  176     hdma->Instance->PAR = SrcAddress;
??DMA_SetConfig_0:
        STR      R1,[R3, #+8]
//  177     
//  178     /* Configure DMA Stream destination address */
//  179     hdma->Instance->M0AR = DstAddress;
        LDR      R0,[R0, #+0]
        STR      R2,[R0, #+12]
//  180   }
//  181 }
??DMA_SetConfig_1:
        POP      {R4,R5}
          CFI R4 SameValue
          CFI R5 SameValue
          CFI CFA R13+0
        BX       LR               ;; return
          CFI EndBlock cfiBlock0
//  182 
//  183 /**
//  184   * @}
//  185   */  
//  186   
//  187 /* Exported functions ---------------------------------------------------------*/
//  188 /** @addtogroup DMA_Exported_Functions
//  189   * @{
//  190   */
//  191 
//  192 /** @addtogroup DMA_Exported_Functions_Group1
//  193   *
//  194 @verbatim   
//  195  ===============================================================================
//  196              ##### Initialization and de-initialization functions  #####
//  197  ===============================================================================  
//  198     [..]
//  199     This section provides functions allowing to initialize the DMA Stream source
//  200     and destination addresses, incrementation and data sizes, transfer direction, 
//  201     circular/normal mode selection, memory-to-memory mode selection and Stream priority value.
//  202     [..]
//  203     The HAL_DMA_Init() function follows the DMA configuration procedures as described in
//  204     reference manual.  
//  205 
//  206 @endverbatim
//  207   * @{
//  208   */
//  209   
//  210 /**
//  211   * @brief  Initializes the DMA according to the specified
//  212   *         parameters in the DMA_InitTypeDef and create the associated handle.
//  213   * @param  hdma: Pointer to a DMA_HandleTypeDef structure that contains
//  214   *               the configuration information for the specified DMA Stream.  
//  215   * @retval HAL status
//  216   */

        SECTION `.text`:CODE:NOROOT(1)
          CFI Block cfiBlock1 Using cfiCommon0
          CFI Function HAL_DMA_Init
          CFI NoCalls
        THUMB
//  217 HAL_StatusTypeDef HAL_DMA_Init(DMA_HandleTypeDef *hdma)
//  218 { 
HAL_DMA_Init:
        PUSH     {R4}
          CFI R4 Frame(CFA, -4)
          CFI CFA R13+4
//  219   uint32_t tmp = 0;
//  220   
//  221   /* Check the DMA peripheral state */
//  222   if(hdma == NULL)
        CMP      R0,#+0
        BNE.N    ??HAL_DMA_Init_0
//  223   {
//  224     return HAL_ERROR;
        MOVS     R0,#+1
        B.N      ??HAL_DMA_Init_1
//  225   }
//  226 
//  227   /* Check the parameters */
//  228   assert_param(IS_DMA_STREAM_ALL_INSTANCE(hdma->Instance));
//  229   assert_param(IS_DMA_CHANNEL(hdma->Init.Channel));
//  230   assert_param(IS_DMA_DIRECTION(hdma->Init.Direction));
//  231   assert_param(IS_DMA_PERIPHERAL_INC_STATE(hdma->Init.PeriphInc));
//  232   assert_param(IS_DMA_MEMORY_INC_STATE(hdma->Init.MemInc));
//  233   assert_param(IS_DMA_PERIPHERAL_DATA_SIZE(hdma->Init.PeriphDataAlignment));
//  234   assert_param(IS_DMA_MEMORY_DATA_SIZE(hdma->Init.MemDataAlignment));
//  235   assert_param(IS_DMA_MODE(hdma->Init.Mode));
//  236   assert_param(IS_DMA_PRIORITY(hdma->Init.Priority));
//  237   assert_param(IS_DMA_FIFO_MODE_STATE(hdma->Init.FIFOMode));
//  238   /* Check the memory burst, peripheral burst and FIFO threshold parameters only
//  239      when FIFO mode is enabled */
//  240   if(hdma->Init.FIFOMode != DMA_FIFOMODE_DISABLE)
//  241   {
//  242     assert_param(IS_DMA_FIFO_THRESHOLD(hdma->Init.FIFOThreshold));
//  243     assert_param(IS_DMA_MEMORY_BURST(hdma->Init.MemBurst));
//  244     assert_param(IS_DMA_PERIPHERAL_BURST(hdma->Init.PeriphBurst));
//  245   }
//  246 
//  247   /* Change DMA peripheral state */
//  248   hdma->State = HAL_DMA_STATE_BUSY;
??HAL_DMA_Init_0:
        MOVS     R1,#+2
        STRB     R1,[R0, #+53]
//  249 
//  250   /* Get the CR register value */
//  251   tmp = hdma->Instance->CR;
        LDR      R1,[R0, #+0]
        LDR      R2,[R1, #+0]
//  252 
//  253   /* Clear CHSEL, MBURST, PBURST, PL, MSIZE, PSIZE, MINC, PINC, CIRC, DIR, CT and DBM bits */
//  254   tmp &= ((uint32_t)~(DMA_SxCR_CHSEL | DMA_SxCR_MBURST | DMA_SxCR_PBURST | \ 
//  255                       DMA_SxCR_PL    | DMA_SxCR_MSIZE  | DMA_SxCR_PSIZE  | \ 
//  256                       DMA_SxCR_MINC  | DMA_SxCR_PINC   | DMA_SxCR_CIRC   | \ 
//  257                       DMA_SxCR_DIR   | DMA_SxCR_CT     | DMA_SxCR_DBM));
//  258 
//  259   /* Prepare the DMA Stream configuration */
//  260   tmp |=  hdma->Init.Channel             | hdma->Init.Direction        |
//  261           hdma->Init.PeriphInc           | hdma->Init.MemInc           |
//  262           hdma->Init.PeriphDataAlignment | hdma->Init.MemDataAlignment |
//  263           hdma->Init.Mode                | hdma->Init.Priority;
        LDR.W    R3,??DataTable1  ;; 0xf010803f
        ANDS     R2,R3,R2
        LDR      R3,[R0, #+4]
        ORRS     R2,R3,R2
        LDR      R3,[R0, #+8]
        ORRS     R2,R3,R2
        LDR      R3,[R0, #+12]
        ORRS     R2,R3,R2
        LDR      R3,[R0, #+16]
        ORRS     R2,R3,R2
        LDR      R3,[R0, #+20]
        ORRS     R2,R3,R2
        LDR      R3,[R0, #+24]
        ORRS     R2,R3,R2
        LDR      R3,[R0, #+28]
        ORRS     R2,R3,R2
        LDR      R3,[R0, #+32]
        ORRS     R2,R3,R2
//  264 
//  265   /* the Memory burst and peripheral burst are not used when the FIFO is disabled */
//  266   if(hdma->Init.FIFOMode == DMA_FIFOMODE_ENABLE)
        LDR      R3,[R0, #+36]
        CMP      R3,#+4
        BNE.N    ??HAL_DMA_Init_2
//  267   {
//  268     /* Get memory burst and peripheral burst */
//  269     tmp |=  hdma->Init.MemBurst | hdma->Init.PeriphBurst;
        LDR      R3,[R0, #+44]
        LDR      R4,[R0, #+48]
        ORRS     R3,R4,R3
        ORRS     R2,R3,R2
//  270   }
//  271   
//  272   /* Write to DMA Stream CR register */
//  273   hdma->Instance->CR = tmp;  
??HAL_DMA_Init_2:
        STR      R2,[R1, #+0]
//  274 
//  275   /* Get the FCR register value */
//  276   tmp = hdma->Instance->FCR;
        LDR      R1,[R0, #+0]
        LDR      R2,[R1, #+20]
//  277 
//  278   /* Clear Direct mode and FIFO threshold bits */
//  279   tmp &= (uint32_t)~(DMA_SxFCR_DMDIS | DMA_SxFCR_FTH);
//  280 
//  281   /* Prepare the DMA Stream FIFO configuration */
//  282   tmp |= hdma->Init.FIFOMode;
        LDR      R3,[R0, #+36]
        LSRS     R2,R2,#+3
        ORRS     R2,R3,R2, LSL #+3
//  283 
//  284   /* the FIFO threshold is not used when the FIFO mode is disabled */
//  285   if(hdma->Init.FIFOMode == DMA_FIFOMODE_ENABLE)
        CMP      R3,#+4
        BNE.N    ??HAL_DMA_Init_3
//  286   {
//  287     /* Get the FIFO threshold */
//  288     tmp |= hdma->Init.FIFOThreshold;
        LDR      R3,[R0, #+40]
        ORRS     R2,R3,R2
//  289   }
//  290   
//  291   /* Write to DMA Stream FCR */
//  292   hdma->Instance->FCR = tmp;
??HAL_DMA_Init_3:
        STR      R2,[R1, #+20]
//  293 
//  294   /* Initialize the error code */
//  295   hdma->ErrorCode = HAL_DMA_ERROR_NONE;
        MOVS     R1,#+0
        STR      R1,[R0, #+76]
//  296 
//  297   /* Initialize the DMA state */
//  298   hdma->State = HAL_DMA_STATE_READY;
        MOVS     R1,#+1
        STRB     R1,[R0, #+53]
//  299 
//  300   return HAL_OK;
        MOVS     R0,#+0
??HAL_DMA_Init_1:
        POP      {R4}
          CFI R4 SameValue
          CFI CFA R13+0
        BX       LR               ;; return
//  301 }
          CFI EndBlock cfiBlock1
//  302 
//  303 /**
//  304   * @brief  DeInitializes the DMA peripheral 
//  305   * @param  hdma: pointer to a DMA_HandleTypeDef structure that contains
//  306   *               the configuration information for the specified DMA Stream.  
//  307   * @retval HAL status
//  308   */

        SECTION `.text`:CODE:NOROOT(1)
          CFI Block cfiBlock2 Using cfiCommon0
          CFI Function HAL_DMA_DeInit
          CFI NoCalls
        THUMB
//  309 HAL_StatusTypeDef HAL_DMA_DeInit(DMA_HandleTypeDef *hdma)
//  310 {
HAL_DMA_DeInit:
        PUSH     {R4-R7}
          CFI R7 Frame(CFA, -4)
          CFI R6 Frame(CFA, -8)
          CFI R5 Frame(CFA, -12)
          CFI R4 Frame(CFA, -16)
          CFI CFA R13+16
//  311   /* Check the DMA peripheral state */
//  312   if(hdma == NULL)
        CMP      R0,#+0
        BEQ.N    ??HAL_DMA_DeInit_0
//  313   {
//  314     return HAL_ERROR;
//  315   }
//  316   
//  317   /* Check the DMA peripheral state */
//  318   if(hdma->State == HAL_DMA_STATE_BUSY)
        ADD      R1,R0,#+52
        LDRB     R2,[R1, #+1]
        CMP      R2,#+2
        BNE.N    ??HAL_DMA_DeInit_1
//  319   {
//  320      return HAL_ERROR;
??HAL_DMA_DeInit_0:
        MOVS     R0,#+1
        B.W      ??HAL_DMA_DeInit_2
//  321   }
//  322 
//  323   /* Disable the selected DMA Streamx */
//  324   __HAL_DMA_DISABLE(hdma);
??HAL_DMA_DeInit_1:
        LDR      R2,[R0, #+0]
        LDR      R3,[R2, #+0]
        LSRS     R3,R3,#+1
        LSLS     R3,R3,#+1
        STR      R3,[R2, #+0]
//  325 
//  326   /* Reset DMA Streamx control register */
//  327   hdma->Instance->CR   = 0;
        MOVS     R2,#+0
        LDR      R3,[R0, #+0]
        STR      R2,[R3, #+0]
//  328 
//  329   /* Reset DMA Streamx number of data to transfer register */
//  330   hdma->Instance->NDTR = 0;
        LDR      R3,[R0, #+0]
        STR      R2,[R3, #+4]
//  331 
//  332   /* Reset DMA Streamx peripheral address register */
//  333   hdma->Instance->PAR  = 0;
        LDR      R3,[R0, #+0]
        STR      R2,[R3, #+8]
//  334 
//  335   /* Reset DMA Streamx memory 0 address register */
//  336   hdma->Instance->M0AR = 0;
        LDR      R3,[R0, #+0]
        STR      R2,[R3, #+12]
//  337 
//  338   /* Reset DMA Streamx memory 1 address register */
//  339   hdma->Instance->M1AR = 0;
        LDR      R3,[R0, #+0]
        STR      R2,[R3, #+16]
//  340 
//  341   /* Reset DMA Streamx FIFO control register */
//  342   hdma->Instance->FCR  = (uint32_t)0x00000021;
        MOVS     R2,#+33
        LDR      R3,[R0, #+0]
        STR      R2,[R3, #+20]
//  343 
//  344   /* Clear all flags */
//  345   __HAL_DMA_CLEAR_FLAG(hdma, __HAL_DMA_GET_DME_FLAG_INDEX(hdma));
        LDR      R7,[R0, #+0]
        LDR.W    R2,??DataTable1_1  ;; 0x40026408
        LDR.W    R3,??DataTable1_2  ;; 0x400260b9
        LDR.W    R4,??DataTable1_3  ;; 0x40026410
        LDR.W    R5,??DataTable1_4  ;; 0x40026010
        LDR.W    R6,??DataTable1_5  ;; 0x40026459
        CMP      R7,R6
        BCC.N    ??HAL_DMA_DeInit_3
        CMP      R7,R5
        BEQ.N    ??HAL_DMA_DeInit_4
        CMP      R7,R4
        BEQ.N    ??HAL_DMA_DeInit_4
        LDR.W    R12,??DataTable1_6  ;; 0x40026070
        CMP      R7,R12
        BEQ.N    ??HAL_DMA_DeInit_4
        LDR.W    R12,??DataTable1_7  ;; 0x40026470
        CMP      R7,R12
        BNE.N    ??HAL_DMA_DeInit_5
??HAL_DMA_DeInit_4:
        LDR.W    R7,??DataTable1_8  ;; 0x800004
        B.N      ??HAL_DMA_DeInit_6
??HAL_DMA_DeInit_5:
        LDR.W    R12,??DataTable1_9  ;; 0x40026028
        CMP      R7,R12
        BEQ.N    ??HAL_DMA_DeInit_7
        LDR.W    R12,??DataTable1_10  ;; 0x40026428
        CMP      R7,R12
        BEQ.N    ??HAL_DMA_DeInit_7
        LDR.W    R12,??DataTable1_11  ;; 0x40026088
        CMP      R7,R12
        BEQ.N    ??HAL_DMA_DeInit_7
        LDR.W    R12,??DataTable1_12  ;; 0x40026488
        CMP      R7,R12
        BNE.N    ??HAL_DMA_DeInit_8
??HAL_DMA_DeInit_7:
        MOV      R7,#+256
        B.N      ??HAL_DMA_DeInit_6
??HAL_DMA_DeInit_8:
        LDR.W    R12,??DataTable1_13  ;; 0x40026040
        CMP      R7,R12
        BNE.N    ??HAL_DMA_DeInit_9
        MOV      R7,#+262144
        B.N      ??HAL_DMA_DeInit_6
??HAL_DMA_DeInit_9:
        LDR.W    R12,??DataTable1_14  ;; 0x40026440
        CMP      R7,R12
        BNE.N    ??HAL_DMA_DeInit_10
        MOV      R7,#+262144
        B.N      ??HAL_DMA_DeInit_6
??HAL_DMA_DeInit_10:
        LDR.W    R12,??DataTable1_15  ;; 0x400260a0
        CMP      R7,R12
        BNE.N    ??HAL_DMA_DeInit_11
        MOV      R7,#+262144
        B.N      ??HAL_DMA_DeInit_6
??HAL_DMA_DeInit_11:
        LDR.W    R12,??DataTable1_16  ;; 0x400264a0
        CMP      R7,R12
        BNE.N    ??HAL_DMA_DeInit_12
        MOV      R7,#+262144
        B.N      ??HAL_DMA_DeInit_6
??HAL_DMA_DeInit_12:
        MOV      R7,#+16777216
??HAL_DMA_DeInit_6:
        STR      R7,[R2, #+4]
        B.N      ??HAL_DMA_DeInit_13
??HAL_DMA_DeInit_3:
        CMP      R7,R3
        BCC.N    ??HAL_DMA_DeInit_14
        CMP      R7,R5
        BEQ.N    ??HAL_DMA_DeInit_15
        CMP      R7,R4
        BEQ.N    ??HAL_DMA_DeInit_15
        LDR.W    R12,??DataTable1_6  ;; 0x40026070
        CMP      R7,R12
        BEQ.N    ??HAL_DMA_DeInit_15
        LDR.W    R12,??DataTable1_7  ;; 0x40026470
        CMP      R7,R12
        BNE.N    ??HAL_DMA_DeInit_16
??HAL_DMA_DeInit_15:
        LDR.W    R7,??DataTable1_8  ;; 0x800004
        B.N      ??HAL_DMA_DeInit_17
??HAL_DMA_DeInit_16:
        LDR.W    R12,??DataTable1_9  ;; 0x40026028
        CMP      R7,R12
        BEQ.N    ??HAL_DMA_DeInit_18
        LDR.W    R12,??DataTable1_10  ;; 0x40026428
        CMP      R7,R12
        BEQ.N    ??HAL_DMA_DeInit_18
        LDR.W    R12,??DataTable1_11  ;; 0x40026088
        CMP      R7,R12
        BEQ.N    ??HAL_DMA_DeInit_18
        LDR.W    R12,??DataTable1_12  ;; 0x40026488
        CMP      R7,R12
        BNE.N    ??HAL_DMA_DeInit_19
??HAL_DMA_DeInit_18:
        MOV      R7,#+256
        B.N      ??HAL_DMA_DeInit_17
??HAL_DMA_DeInit_19:
        LDR.W    R12,??DataTable1_13  ;; 0x40026040
        CMP      R7,R12
        BNE.N    ??HAL_DMA_DeInit_20
        MOV      R7,#+262144
        B.N      ??HAL_DMA_DeInit_17
??HAL_DMA_DeInit_20:
        LDR.W    R12,??DataTable1_14  ;; 0x40026440
        CMP      R7,R12
        BNE.N    ??HAL_DMA_DeInit_21
        MOV      R7,#+262144
        B.N      ??HAL_DMA_DeInit_17
??HAL_DMA_DeInit_21:
        LDR.W    R12,??DataTable1_15  ;; 0x400260a0
        CMP      R7,R12
        BNE.N    ??HAL_DMA_DeInit_22
        MOV      R7,#+262144
        B.N      ??HAL_DMA_DeInit_17
??HAL_DMA_DeInit_22:
        LDR.W    R12,??DataTable1_16  ;; 0x400264a0
        CMP      R7,R12
        BNE.N    ??HAL_DMA_DeInit_23
        MOV      R7,#+262144
        B.N      ??HAL_DMA_DeInit_17
??HAL_DMA_DeInit_23:
        MOV      R7,#+16777216
??HAL_DMA_DeInit_17:
        STR      R7,[R2, #+0]
        B.N      ??HAL_DMA_DeInit_13
??HAL_DMA_DeInit_14:
        LDR.W    R12,??DataTable1_17  ;; 0x40026059
        CMP      R7,R12
        BCC.N    ??HAL_DMA_DeInit_24
        CMP      R7,R5
        BEQ.N    ??HAL_DMA_DeInit_25
        CMP      R7,R4
        BEQ.N    ??HAL_DMA_DeInit_25
        LDR.W    R12,??DataTable1_6  ;; 0x40026070
        CMP      R7,R12
        BEQ.N    ??HAL_DMA_DeInit_25
        LDR.W    R12,??DataTable1_7  ;; 0x40026470
        CMP      R7,R12
        BNE.N    ??HAL_DMA_DeInit_26
??HAL_DMA_DeInit_25:
        LDR.W    R7,??DataTable1_8  ;; 0x800004
        B.N      ??HAL_DMA_DeInit_27
??HAL_DMA_DeInit_26:
        LDR.W    R12,??DataTable1_9  ;; 0x40026028
        CMP      R7,R12
        BEQ.N    ??HAL_DMA_DeInit_28
        LDR.W    R12,??DataTable1_10  ;; 0x40026428
        CMP      R7,R12
        BEQ.N    ??HAL_DMA_DeInit_28
        LDR.W    R12,??DataTable1_11  ;; 0x40026088
        CMP      R7,R12
        BEQ.N    ??HAL_DMA_DeInit_28
        LDR.W    R12,??DataTable1_12  ;; 0x40026488
        CMP      R7,R12
        BNE.N    ??HAL_DMA_DeInit_29
??HAL_DMA_DeInit_28:
        MOV      R7,#+256
        B.N      ??HAL_DMA_DeInit_27
??HAL_DMA_DeInit_29:
        LDR.W    R12,??DataTable1_13  ;; 0x40026040
        CMP      R7,R12
        BNE.N    ??HAL_DMA_DeInit_30
        MOV      R7,#+262144
        B.N      ??HAL_DMA_DeInit_27
??HAL_DMA_DeInit_30:
        LDR.W    R12,??DataTable1_14  ;; 0x40026440
        CMP      R7,R12
        BNE.N    ??HAL_DMA_DeInit_31
        MOV      R7,#+262144
        B.N      ??HAL_DMA_DeInit_27
??HAL_DMA_DeInit_31:
        LDR.W    R12,??DataTable1_15  ;; 0x400260a0
        CMP      R7,R12
        BNE.N    ??HAL_DMA_DeInit_32
        MOV      R7,#+262144
        B.N      ??HAL_DMA_DeInit_27
??HAL_DMA_DeInit_32:
        LDR.W    R12,??DataTable1_16  ;; 0x400264a0
        CMP      R7,R12
        BNE.N    ??HAL_DMA_DeInit_33
        MOV      R7,#+262144
        B.N      ??HAL_DMA_DeInit_27
??HAL_DMA_DeInit_33:
        MOV      R7,#+16777216
??HAL_DMA_DeInit_27:
        LDR.W    R12,??DataTable1_18  ;; 0x40026008
        STR      R7,[R12, #+4]
        B.N      ??HAL_DMA_DeInit_13
??HAL_DMA_DeInit_24:
        CMP      R7,R5
        BEQ.N    ??HAL_DMA_DeInit_34
        CMP      R7,R4
        BEQ.N    ??HAL_DMA_DeInit_34
        LDR.W    R12,??DataTable1_6  ;; 0x40026070
        CMP      R7,R12
        BEQ.N    ??HAL_DMA_DeInit_34
        LDR.W    R12,??DataTable1_7  ;; 0x40026470
        CMP      R7,R12
        BNE.N    ??HAL_DMA_DeInit_35
??HAL_DMA_DeInit_34:
        LDR.W    R7,??DataTable1_8  ;; 0x800004
        B.N      ??HAL_DMA_DeInit_36
??HAL_DMA_DeInit_35:
        LDR.W    R12,??DataTable1_9  ;; 0x40026028
        CMP      R7,R12
        BEQ.N    ??HAL_DMA_DeInit_37
        LDR.W    R12,??DataTable1_10  ;; 0x40026428
        CMP      R7,R12
        BEQ.N    ??HAL_DMA_DeInit_37
        LDR.W    R12,??DataTable1_11  ;; 0x40026088
        CMP      R7,R12
        BEQ.N    ??HAL_DMA_DeInit_37
        LDR.W    R12,??DataTable1_12  ;; 0x40026488
        CMP      R7,R12
        BNE.N    ??HAL_DMA_DeInit_38
??HAL_DMA_DeInit_37:
        MOV      R7,#+256
        B.N      ??HAL_DMA_DeInit_36
??HAL_DMA_DeInit_38:
        LDR.W    R12,??DataTable1_13  ;; 0x40026040
        CMP      R7,R12
        BNE.N    ??HAL_DMA_DeInit_39
        MOV      R7,#+262144
        B.N      ??HAL_DMA_DeInit_36
??HAL_DMA_DeInit_39:
        LDR.W    R12,??DataTable1_14  ;; 0x40026440
        CMP      R7,R12
        BNE.N    ??HAL_DMA_DeInit_40
        MOV      R7,#+262144
        B.N      ??HAL_DMA_DeInit_36
??HAL_DMA_DeInit_40:
        LDR.W    R12,??DataTable1_15  ;; 0x400260a0
        CMP      R7,R12
        BNE.N    ??HAL_DMA_DeInit_41
        MOV      R7,#+262144
        B.N      ??HAL_DMA_DeInit_36
??HAL_DMA_DeInit_41:
        LDR.W    R12,??DataTable1_16  ;; 0x400264a0
        CMP      R7,R12
        BNE.N    ??HAL_DMA_DeInit_42
        MOV      R7,#+262144
        B.N      ??HAL_DMA_DeInit_36
??HAL_DMA_DeInit_42:
        MOV      R7,#+16777216
??HAL_DMA_DeInit_36:
        LDR.W    R12,??DataTable1_18  ;; 0x40026008
        STR      R7,[R12, #+0]
//  346   __HAL_DMA_CLEAR_FLAG(hdma, __HAL_DMA_GET_TC_FLAG_INDEX(hdma));
??HAL_DMA_DeInit_13:
        LDR      R7,[R0, #+0]
        CMP      R7,R6
        BCC.N    ??HAL_DMA_DeInit_43
        CMP      R7,R5
        BEQ.N    ??HAL_DMA_DeInit_44
        CMP      R7,R4
        BEQ.N    ??HAL_DMA_DeInit_44
        LDR.W    R12,??DataTable1_6  ;; 0x40026070
        CMP      R7,R12
        BEQ.N    ??HAL_DMA_DeInit_44
        LDR.W    R12,??DataTable1_7  ;; 0x40026470
        CMP      R7,R12
        BNE.N    ??HAL_DMA_DeInit_45
??HAL_DMA_DeInit_44:
        MOVS     R7,#+32
        B.N      ??HAL_DMA_DeInit_46
??HAL_DMA_DeInit_45:
        LDR.W    R12,??DataTable1_9  ;; 0x40026028
        CMP      R7,R12
        BEQ.N    ??HAL_DMA_DeInit_47
        LDR.W    R12,??DataTable1_10  ;; 0x40026428
        CMP      R7,R12
        BEQ.N    ??HAL_DMA_DeInit_47
        LDR.W    R12,??DataTable1_11  ;; 0x40026088
        CMP      R7,R12
        BEQ.N    ??HAL_DMA_DeInit_47
        LDR.W    R12,??DataTable1_12  ;; 0x40026488
        CMP      R7,R12
        BNE.N    ??HAL_DMA_DeInit_48
??HAL_DMA_DeInit_47:
        MOV      R7,#+2048
        B.N      ??HAL_DMA_DeInit_46
??HAL_DMA_DeInit_48:
        LDR.W    R12,??DataTable1_13  ;; 0x40026040
        CMP      R7,R12
        BNE.N    ??HAL_DMA_DeInit_49
        MOV      R7,#+2097152
        B.N      ??HAL_DMA_DeInit_46
??HAL_DMA_DeInit_49:
        LDR.W    R12,??DataTable1_14  ;; 0x40026440
        CMP      R7,R12
        BNE.N    ??HAL_DMA_DeInit_50
        MOV      R7,#+2097152
        B.N      ??HAL_DMA_DeInit_46
??HAL_DMA_DeInit_50:
        LDR.W    R12,??DataTable1_15  ;; 0x400260a0
        CMP      R7,R12
        BNE.N    ??HAL_DMA_DeInit_51
        MOV      R7,#+2097152
        B.N      ??HAL_DMA_DeInit_46
??HAL_DMA_DeInit_51:
        LDR.W    R12,??DataTable1_16  ;; 0x400264a0
        CMP      R7,R12
        BNE.N    ??HAL_DMA_DeInit_52
        MOV      R7,#+2097152
        B.N      ??HAL_DMA_DeInit_46
??HAL_DMA_DeInit_52:
        MOV      R7,#+134217728
??HAL_DMA_DeInit_46:
        STR      R7,[R2, #+4]
        B.N      ??HAL_DMA_DeInit_53
??HAL_DMA_DeInit_43:
        CMP      R7,R3
        BCC.N    ??HAL_DMA_DeInit_54
        CMP      R7,R5
        BEQ.N    ??HAL_DMA_DeInit_55
        CMP      R7,R4
        BEQ.N    ??HAL_DMA_DeInit_55
        LDR.W    R12,??DataTable1_6  ;; 0x40026070
        CMP      R7,R12
        BEQ.N    ??HAL_DMA_DeInit_55
        LDR.W    R12,??DataTable1_7  ;; 0x40026470
        CMP      R7,R12
        BNE.N    ??HAL_DMA_DeInit_56
??HAL_DMA_DeInit_55:
        MOVS     R7,#+32
        B.N      ??HAL_DMA_DeInit_57
??HAL_DMA_DeInit_56:
        LDR.W    R12,??DataTable1_9  ;; 0x40026028
        CMP      R7,R12
        BEQ.N    ??HAL_DMA_DeInit_58
        LDR.W    R12,??DataTable1_10  ;; 0x40026428
        CMP      R7,R12
        BEQ.N    ??HAL_DMA_DeInit_58
        LDR.W    R12,??DataTable1_11  ;; 0x40026088
        CMP      R7,R12
        BEQ.N    ??HAL_DMA_DeInit_58
        LDR.W    R12,??DataTable1_12  ;; 0x40026488
        CMP      R7,R12
        BNE.N    ??HAL_DMA_DeInit_59
??HAL_DMA_DeInit_58:
        MOV      R7,#+2048
        B.N      ??HAL_DMA_DeInit_57
??HAL_DMA_DeInit_59:
        LDR.W    R12,??DataTable1_13  ;; 0x40026040
        CMP      R7,R12
        BNE.N    ??HAL_DMA_DeInit_60
        MOV      R7,#+2097152
        B.N      ??HAL_DMA_DeInit_57
??HAL_DMA_DeInit_60:
        LDR.W    R12,??DataTable1_14  ;; 0x40026440
        CMP      R7,R12
        BNE.N    ??HAL_DMA_DeInit_61
        MOV      R7,#+2097152
        B.N      ??HAL_DMA_DeInit_57
??HAL_DMA_DeInit_61:
        LDR.W    R12,??DataTable1_15  ;; 0x400260a0
        CMP      R7,R12
        BNE.N    ??HAL_DMA_DeInit_62
        MOV      R7,#+2097152
        B.N      ??HAL_DMA_DeInit_57
??HAL_DMA_DeInit_62:
        LDR.W    R12,??DataTable1_16  ;; 0x400264a0
        CMP      R7,R12
        BNE.N    ??HAL_DMA_DeInit_63
        MOV      R7,#+2097152
        B.N      ??HAL_DMA_DeInit_57
??HAL_DMA_DeInit_63:
        MOV      R7,#+134217728
??HAL_DMA_DeInit_57:
        STR      R7,[R2, #+0]
        B.N      ??HAL_DMA_DeInit_53
??HAL_DMA_DeInit_54:
        LDR.W    R12,??DataTable1_17  ;; 0x40026059
        CMP      R7,R12
        BCC.N    ??HAL_DMA_DeInit_64
        CMP      R7,R5
        BEQ.N    ??HAL_DMA_DeInit_65
        CMP      R7,R4
        BEQ.N    ??HAL_DMA_DeInit_65
        LDR.W    R12,??DataTable1_6  ;; 0x40026070
        CMP      R7,R12
        BEQ.N    ??HAL_DMA_DeInit_65
        LDR.W    R12,??DataTable1_7  ;; 0x40026470
        CMP      R7,R12
        BNE.N    ??HAL_DMA_DeInit_66
??HAL_DMA_DeInit_65:
        MOVS     R7,#+32
        B.N      ??HAL_DMA_DeInit_67
??HAL_DMA_DeInit_66:
        LDR.W    R12,??DataTable1_9  ;; 0x40026028
        CMP      R7,R12
        BEQ.N    ??HAL_DMA_DeInit_68
        LDR.W    R12,??DataTable1_10  ;; 0x40026428
        CMP      R7,R12
        BEQ.N    ??HAL_DMA_DeInit_68
        LDR.W    R12,??DataTable1_11  ;; 0x40026088
        CMP      R7,R12
        BEQ.N    ??HAL_DMA_DeInit_68
        LDR.W    R12,??DataTable1_12  ;; 0x40026488
        CMP      R7,R12
        BNE.N    ??HAL_DMA_DeInit_69
??HAL_DMA_DeInit_68:
        MOV      R7,#+2048
        B.N      ??HAL_DMA_DeInit_67
??HAL_DMA_DeInit_69:
        LDR.W    R12,??DataTable1_13  ;; 0x40026040
        CMP      R7,R12
        BNE.N    ??HAL_DMA_DeInit_70
        MOV      R7,#+2097152
        B.N      ??HAL_DMA_DeInit_67
??HAL_DMA_DeInit_70:
        LDR.W    R12,??DataTable1_14  ;; 0x40026440
        CMP      R7,R12
        BNE.N    ??HAL_DMA_DeInit_71
        MOV      R7,#+2097152
        B.N      ??HAL_DMA_DeInit_67
??HAL_DMA_DeInit_71:
        LDR.W    R12,??DataTable1_15  ;; 0x400260a0
        CMP      R7,R12
        BNE.N    ??HAL_DMA_DeInit_72
        MOV      R7,#+2097152
        B.N      ??HAL_DMA_DeInit_67
??HAL_DMA_DeInit_72:
        LDR.W    R12,??DataTable1_16  ;; 0x400264a0
        CMP      R7,R12
        BNE.N    ??HAL_DMA_DeInit_73
        MOV      R7,#+2097152
        B.N      ??HAL_DMA_DeInit_67
??HAL_DMA_DeInit_73:
        MOV      R7,#+134217728
??HAL_DMA_DeInit_67:
        LDR.W    R12,??DataTable1_18  ;; 0x40026008
        STR      R7,[R12, #+4]
        B.N      ??HAL_DMA_DeInit_53
??HAL_DMA_DeInit_64:
        CMP      R7,R5
        BEQ.N    ??HAL_DMA_DeInit_74
        CMP      R7,R4
        BEQ.N    ??HAL_DMA_DeInit_74
        LDR.W    R12,??DataTable1_6  ;; 0x40026070
        CMP      R7,R12
        BEQ.N    ??HAL_DMA_DeInit_74
        LDR.W    R12,??DataTable1_7  ;; 0x40026470
        CMP      R7,R12
        BNE.N    ??HAL_DMA_DeInit_75
??HAL_DMA_DeInit_74:
        MOVS     R7,#+32
        B.N      ??HAL_DMA_DeInit_76
??HAL_DMA_DeInit_75:
        LDR.W    R12,??DataTable1_9  ;; 0x40026028
        CMP      R7,R12
        BEQ.N    ??HAL_DMA_DeInit_77
        LDR.W    R12,??DataTable1_10  ;; 0x40026428
        CMP      R7,R12
        BEQ.N    ??HAL_DMA_DeInit_77
        LDR.W    R12,??DataTable1_11  ;; 0x40026088
        CMP      R7,R12
        BEQ.N    ??HAL_DMA_DeInit_77
        LDR.W    R12,??DataTable1_12  ;; 0x40026488
        CMP      R7,R12
        BNE.N    ??HAL_DMA_DeInit_78
??HAL_DMA_DeInit_77:
        MOV      R7,#+2048
        B.N      ??HAL_DMA_DeInit_76
??HAL_DMA_DeInit_78:
        LDR.W    R12,??DataTable1_13  ;; 0x40026040
        CMP      R7,R12
        BNE.N    ??HAL_DMA_DeInit_79
        MOV      R7,#+2097152
        B.N      ??HAL_DMA_DeInit_76
??HAL_DMA_DeInit_79:
        LDR.W    R12,??DataTable1_14  ;; 0x40026440
        CMP      R7,R12
        BNE.N    ??HAL_DMA_DeInit_80
        MOV      R7,#+2097152
        B.N      ??HAL_DMA_DeInit_76
??HAL_DMA_DeInit_80:
        LDR.W    R12,??DataTable1_15  ;; 0x400260a0
        CMP      R7,R12
        BNE.N    ??HAL_DMA_DeInit_81
        MOV      R7,#+2097152
        B.N      ??HAL_DMA_DeInit_76
??HAL_DMA_DeInit_81:
        LDR.W    R12,??DataTable1_16  ;; 0x400264a0
        CMP      R7,R12
        BNE.N    ??HAL_DMA_DeInit_82
        MOV      R7,#+2097152
        B.N      ??HAL_DMA_DeInit_76
??HAL_DMA_DeInit_82:
        MOV      R7,#+134217728
??HAL_DMA_DeInit_76:
        LDR.W    R12,??DataTable1_18  ;; 0x40026008
        STR      R7,[R12, #+0]
//  347   __HAL_DMA_CLEAR_FLAG(hdma, __HAL_DMA_GET_TE_FLAG_INDEX(hdma));
??HAL_DMA_DeInit_53:
        LDR      R7,[R0, #+0]
        CMP      R7,R6
        BCC.N    ??HAL_DMA_DeInit_83
        CMP      R7,R5
        BEQ.N    ??HAL_DMA_DeInit_84
        CMP      R7,R4
        BEQ.N    ??HAL_DMA_DeInit_84
        LDR.W    R12,??DataTable1_6  ;; 0x40026070
        CMP      R7,R12
        BEQ.N    ??HAL_DMA_DeInit_84
        LDR.W    R12,??DataTable1_7  ;; 0x40026470
        CMP      R7,R12
        BNE.N    ??HAL_DMA_DeInit_85
??HAL_DMA_DeInit_84:
        MOVS     R7,#+8
        B.N      ??HAL_DMA_DeInit_86
??HAL_DMA_DeInit_85:
        LDR.W    R12,??DataTable1_9  ;; 0x40026028
        CMP      R7,R12
        BEQ.N    ??HAL_DMA_DeInit_87
        LDR.W    R12,??DataTable1_10  ;; 0x40026428
        CMP      R7,R12
        BEQ.N    ??HAL_DMA_DeInit_87
        LDR.W    R12,??DataTable1_11  ;; 0x40026088
        CMP      R7,R12
        BEQ.N    ??HAL_DMA_DeInit_87
        LDR.W    R12,??DataTable1_12  ;; 0x40026488
        CMP      R7,R12
        BNE.N    ??HAL_DMA_DeInit_88
??HAL_DMA_DeInit_87:
        MOV      R7,#+512
        B.N      ??HAL_DMA_DeInit_86
??HAL_DMA_DeInit_88:
        LDR.W    R12,??DataTable1_13  ;; 0x40026040
        CMP      R7,R12
        BNE.N    ??HAL_DMA_DeInit_89
        MOV      R7,#+524288
        B.N      ??HAL_DMA_DeInit_86
??HAL_DMA_DeInit_89:
        LDR.W    R12,??DataTable1_14  ;; 0x40026440
        CMP      R7,R12
        BNE.N    ??HAL_DMA_DeInit_90
        MOV      R7,#+524288
        B.N      ??HAL_DMA_DeInit_86
??HAL_DMA_DeInit_90:
        LDR.W    R12,??DataTable1_15  ;; 0x400260a0
        CMP      R7,R12
        BNE.N    ??HAL_DMA_DeInit_91
        MOV      R7,#+524288
        B.N      ??HAL_DMA_DeInit_86
??HAL_DMA_DeInit_91:
        LDR.W    R12,??DataTable1_16  ;; 0x400264a0
        CMP      R7,R12
        BNE.N    ??HAL_DMA_DeInit_92
        MOV      R7,#+524288
        B.N      ??HAL_DMA_DeInit_86
??HAL_DMA_DeInit_92:
        MOV      R7,#+33554432
??HAL_DMA_DeInit_86:
        STR      R7,[R2, #+4]
        B.N      ??HAL_DMA_DeInit_93
??HAL_DMA_DeInit_83:
        CMP      R7,R3
        BCC.N    ??HAL_DMA_DeInit_94
        CMP      R7,R5
        BEQ.N    ??HAL_DMA_DeInit_95
        CMP      R7,R4
        BEQ.N    ??HAL_DMA_DeInit_95
        LDR.W    R12,??DataTable1_6  ;; 0x40026070
        CMP      R7,R12
        BEQ.N    ??HAL_DMA_DeInit_95
        LDR.W    R12,??DataTable1_7  ;; 0x40026470
        CMP      R7,R12
        BNE.N    ??HAL_DMA_DeInit_96
??HAL_DMA_DeInit_95:
        MOVS     R7,#+8
        B.N      ??HAL_DMA_DeInit_97
??HAL_DMA_DeInit_96:
        LDR.W    R12,??DataTable1_9  ;; 0x40026028
        CMP      R7,R12
        BEQ.N    ??HAL_DMA_DeInit_98
        LDR.W    R12,??DataTable1_10  ;; 0x40026428
        CMP      R7,R12
        BEQ.N    ??HAL_DMA_DeInit_98
        LDR.W    R12,??DataTable1_11  ;; 0x40026088
        CMP      R7,R12
        BEQ.N    ??HAL_DMA_DeInit_98
        LDR.W    R12,??DataTable1_12  ;; 0x40026488
        CMP      R7,R12
        BNE.N    ??HAL_DMA_DeInit_99
??HAL_DMA_DeInit_98:
        MOV      R7,#+512
        B.N      ??HAL_DMA_DeInit_97
??HAL_DMA_DeInit_99:
        LDR.W    R12,??DataTable1_13  ;; 0x40026040
        CMP      R7,R12
        BNE.N    ??HAL_DMA_DeInit_100
        MOV      R7,#+524288
        B.N      ??HAL_DMA_DeInit_97
??HAL_DMA_DeInit_100:
        LDR.W    R12,??DataTable1_14  ;; 0x40026440
        CMP      R7,R12
        BNE.N    ??HAL_DMA_DeInit_101
        MOV      R7,#+524288
        B.N      ??HAL_DMA_DeInit_97
??HAL_DMA_DeInit_101:
        LDR.W    R12,??DataTable1_15  ;; 0x400260a0
        CMP      R7,R12
        BNE.N    ??HAL_DMA_DeInit_102
        MOV      R7,#+524288
        B.N      ??HAL_DMA_DeInit_97
??HAL_DMA_DeInit_102:
        LDR.W    R12,??DataTable1_16  ;; 0x400264a0
        CMP      R7,R12
        BNE.N    ??HAL_DMA_DeInit_103
        MOV      R7,#+524288
        B.N      ??HAL_DMA_DeInit_97
??HAL_DMA_DeInit_103:
        MOV      R7,#+33554432
??HAL_DMA_DeInit_97:
        STR      R7,[R2, #+0]
        B.N      ??HAL_DMA_DeInit_93
??HAL_DMA_DeInit_94:
        LDR.W    R12,??DataTable1_17  ;; 0x40026059
        CMP      R7,R12
        BCC.N    ??HAL_DMA_DeInit_104
        CMP      R7,R5
        BEQ.N    ??HAL_DMA_DeInit_105
        CMP      R7,R4
        BEQ.N    ??HAL_DMA_DeInit_105
        LDR.W    R12,??DataTable1_6  ;; 0x40026070
        CMP      R7,R12
        BEQ.N    ??HAL_DMA_DeInit_105
        LDR.W    R12,??DataTable1_7  ;; 0x40026470
        CMP      R7,R12
        BNE.N    ??HAL_DMA_DeInit_106
??HAL_DMA_DeInit_105:
        MOVS     R7,#+8
        B.N      ??HAL_DMA_DeInit_107
??HAL_DMA_DeInit_106:
        LDR.W    R12,??DataTable1_9  ;; 0x40026028
        CMP      R7,R12
        BEQ.N    ??HAL_DMA_DeInit_108
        LDR.W    R12,??DataTable1_10  ;; 0x40026428
        CMP      R7,R12
        BEQ.N    ??HAL_DMA_DeInit_108
        LDR.W    R12,??DataTable1_11  ;; 0x40026088
        CMP      R7,R12
        BEQ.N    ??HAL_DMA_DeInit_108
        LDR.W    R12,??DataTable1_12  ;; 0x40026488
        CMP      R7,R12
        BNE.N    ??HAL_DMA_DeInit_109
??HAL_DMA_DeInit_108:
        MOV      R7,#+512
        B.N      ??HAL_DMA_DeInit_107
??HAL_DMA_DeInit_109:
        LDR.W    R12,??DataTable1_13  ;; 0x40026040
        CMP      R7,R12
        BNE.N    ??HAL_DMA_DeInit_110
        MOV      R7,#+524288
        B.N      ??HAL_DMA_DeInit_107
??HAL_DMA_DeInit_110:
        LDR.W    R12,??DataTable1_14  ;; 0x40026440
        CMP      R7,R12
        BNE.N    ??HAL_DMA_DeInit_111
        MOV      R7,#+524288
        B.N      ??HAL_DMA_DeInit_107
??HAL_DMA_DeInit_111:
        LDR.W    R12,??DataTable1_15  ;; 0x400260a0
        CMP      R7,R12
        BNE.N    ??HAL_DMA_DeInit_112
        MOV      R7,#+524288
        B.N      ??HAL_DMA_DeInit_107
??HAL_DMA_DeInit_112:
        LDR.W    R12,??DataTable1_16  ;; 0x400264a0
        CMP      R7,R12
        BNE.N    ??HAL_DMA_DeInit_113
        MOV      R7,#+524288
        B.N      ??HAL_DMA_DeInit_107
??HAL_DMA_DeInit_113:
        MOV      R7,#+33554432
??HAL_DMA_DeInit_107:
        LDR.W    R12,??DataTable1_18  ;; 0x40026008
        STR      R7,[R12, #+4]
        B.N      ??HAL_DMA_DeInit_93
??HAL_DMA_DeInit_104:
        CMP      R7,R5
        BEQ.N    ??HAL_DMA_DeInit_114
        CMP      R7,R4
        BEQ.N    ??HAL_DMA_DeInit_114
        LDR.W    R12,??DataTable1_6  ;; 0x40026070
        CMP      R7,R12
        BEQ.N    ??HAL_DMA_DeInit_114
        LDR.W    R12,??DataTable1_7  ;; 0x40026470
        CMP      R7,R12
        BNE.N    ??HAL_DMA_DeInit_115
??HAL_DMA_DeInit_114:
        MOVS     R7,#+8
        B.N      ??HAL_DMA_DeInit_116
??HAL_DMA_DeInit_115:
        LDR.W    R12,??DataTable1_9  ;; 0x40026028
        CMP      R7,R12
        BEQ.N    ??HAL_DMA_DeInit_117
        LDR.W    R12,??DataTable1_10  ;; 0x40026428
        CMP      R7,R12
        BEQ.N    ??HAL_DMA_DeInit_117
        LDR.W    R12,??DataTable1_11  ;; 0x40026088
        CMP      R7,R12
        BEQ.N    ??HAL_DMA_DeInit_117
        LDR.W    R12,??DataTable1_12  ;; 0x40026488
        CMP      R7,R12
        BNE.N    ??HAL_DMA_DeInit_118
??HAL_DMA_DeInit_117:
        MOV      R7,#+512
        B.N      ??HAL_DMA_DeInit_116
??HAL_DMA_DeInit_118:
        LDR.W    R12,??DataTable1_13  ;; 0x40026040
        CMP      R7,R12
        BNE.N    ??HAL_DMA_DeInit_119
        MOV      R7,#+524288
        B.N      ??HAL_DMA_DeInit_116
??HAL_DMA_DeInit_119:
        LDR.W    R12,??DataTable1_14  ;; 0x40026440
        CMP      R7,R12
        BNE.N    ??HAL_DMA_DeInit_120
        MOV      R7,#+524288
        B.N      ??HAL_DMA_DeInit_116
??HAL_DMA_DeInit_120:
        LDR.W    R12,??DataTable1_15  ;; 0x400260a0
        CMP      R7,R12
        BNE.N    ??HAL_DMA_DeInit_121
        MOV      R7,#+524288
        B.N      ??HAL_DMA_DeInit_116
??HAL_DMA_DeInit_121:
        LDR.W    R12,??DataTable1_16  ;; 0x400264a0
        CMP      R7,R12
        BNE.N    ??HAL_DMA_DeInit_122
        MOV      R7,#+524288
        B.N      ??HAL_DMA_DeInit_116
??HAL_DMA_DeInit_122:
        MOV      R7,#+33554432
??HAL_DMA_DeInit_116:
        LDR.W    R12,??DataTable1_18  ;; 0x40026008
        STR      R7,[R12, #+0]
//  348   __HAL_DMA_CLEAR_FLAG(hdma, __HAL_DMA_GET_FE_FLAG_INDEX(hdma));
??HAL_DMA_DeInit_93:
        LDR      R7,[R0, #+0]
        CMP      R7,R6
        BCC.N    ??HAL_DMA_DeInit_123
        CMP      R7,R5
        BEQ.N    ??HAL_DMA_DeInit_124
        CMP      R7,R4
        BEQ.N    ??HAL_DMA_DeInit_124
        LDR.W    R12,??DataTable1_6  ;; 0x40026070
        CMP      R7,R12
        BEQ.N    ??HAL_DMA_DeInit_124
        LDR.W    R12,??DataTable1_7  ;; 0x40026470
        CMP      R7,R12
        BNE.N    ??HAL_DMA_DeInit_125
??HAL_DMA_DeInit_124:
        LDR.W    R7,??DataTable1_19  ;; 0x800001
        B.N      ??HAL_DMA_DeInit_126
??HAL_DMA_DeInit_125:
        LDR.W    R12,??DataTable1_9  ;; 0x40026028
        CMP      R7,R12
        BEQ.N    ??HAL_DMA_DeInit_127
        LDR.W    R12,??DataTable1_10  ;; 0x40026428
        CMP      R7,R12
        BEQ.N    ??HAL_DMA_DeInit_127
        LDR.W    R12,??DataTable1_11  ;; 0x40026088
        CMP      R7,R12
        BEQ.N    ??HAL_DMA_DeInit_127
        LDR.W    R12,??DataTable1_12  ;; 0x40026488
        CMP      R7,R12
        BNE.N    ??HAL_DMA_DeInit_128
??HAL_DMA_DeInit_127:
        MOVS     R7,#+64
        B.N      ??HAL_DMA_DeInit_126
??HAL_DMA_DeInit_128:
        LDR.W    R12,??DataTable1_13  ;; 0x40026040
        CMP      R7,R12
        BNE.N    ??HAL_DMA_DeInit_129
        MOV      R7,#+65536
        B.N      ??HAL_DMA_DeInit_126
??HAL_DMA_DeInit_129:
        LDR.W    R12,??DataTable1_14  ;; 0x40026440
        CMP      R7,R12
        BNE.N    ??HAL_DMA_DeInit_130
        MOV      R7,#+65536
        B.N      ??HAL_DMA_DeInit_126
??HAL_DMA_DeInit_130:
        LDR.W    R12,??DataTable1_15  ;; 0x400260a0
        CMP      R7,R12
        BNE.N    ??HAL_DMA_DeInit_131
        MOV      R7,#+65536
        B.N      ??HAL_DMA_DeInit_126
??HAL_DMA_DeInit_131:
        LDR.W    R12,??DataTable1_16  ;; 0x400264a0
        CMP      R7,R12
        BNE.N    ??HAL_DMA_DeInit_132
        MOV      R7,#+65536
        B.N      ??HAL_DMA_DeInit_126
??HAL_DMA_DeInit_132:
        MOV      R7,#+4194304
??HAL_DMA_DeInit_126:
        STR      R7,[R2, #+4]
        B.N      ??HAL_DMA_DeInit_133
??HAL_DMA_DeInit_123:
        CMP      R7,R3
        BCC.N    ??HAL_DMA_DeInit_134
        CMP      R7,R5
        BEQ.N    ??HAL_DMA_DeInit_135
        CMP      R7,R4
        BEQ.N    ??HAL_DMA_DeInit_135
        LDR.W    R12,??DataTable1_6  ;; 0x40026070
        CMP      R7,R12
        BEQ.N    ??HAL_DMA_DeInit_135
        LDR.W    R12,??DataTable1_7  ;; 0x40026470
        CMP      R7,R12
        BNE.N    ??HAL_DMA_DeInit_136
??HAL_DMA_DeInit_135:
        LDR.W    R7,??DataTable1_19  ;; 0x800001
        B.N      ??HAL_DMA_DeInit_137
??HAL_DMA_DeInit_136:
        LDR.W    R12,??DataTable1_9  ;; 0x40026028
        CMP      R7,R12
        BEQ.N    ??HAL_DMA_DeInit_138
        LDR.W    R12,??DataTable1_10  ;; 0x40026428
        CMP      R7,R12
        BEQ.N    ??HAL_DMA_DeInit_138
        LDR.W    R12,??DataTable1_11  ;; 0x40026088
        CMP      R7,R12
        BEQ.N    ??HAL_DMA_DeInit_138
        LDR.W    R12,??DataTable1_12  ;; 0x40026488
        CMP      R7,R12
        BNE.N    ??HAL_DMA_DeInit_139
??HAL_DMA_DeInit_138:
        MOVS     R7,#+64
        B.N      ??HAL_DMA_DeInit_137
??HAL_DMA_DeInit_139:
        LDR.W    R12,??DataTable1_13  ;; 0x40026040
        CMP      R7,R12
        BNE.N    ??HAL_DMA_DeInit_140
        MOV      R7,#+65536
        B.N      ??HAL_DMA_DeInit_137
??HAL_DMA_DeInit_140:
        LDR.W    R12,??DataTable1_14  ;; 0x40026440
        CMP      R7,R12
        BNE.N    ??HAL_DMA_DeInit_141
        MOV      R7,#+65536
        B.N      ??HAL_DMA_DeInit_137
??HAL_DMA_DeInit_141:
        LDR.W    R12,??DataTable1_15  ;; 0x400260a0
        CMP      R7,R12
        BNE.N    ??HAL_DMA_DeInit_142
        MOV      R7,#+65536
        B.N      ??HAL_DMA_DeInit_137
??HAL_DMA_DeInit_142:
        LDR.W    R12,??DataTable1_16  ;; 0x400264a0
        CMP      R7,R12
        BNE.N    ??HAL_DMA_DeInit_143
        MOV      R7,#+65536
        B.N      ??HAL_DMA_DeInit_137
??HAL_DMA_DeInit_143:
        MOV      R7,#+4194304
??HAL_DMA_DeInit_137:
        STR      R7,[R2, #+0]
        B.N      ??HAL_DMA_DeInit_133
??HAL_DMA_DeInit_134:
        LDR.W    R12,??DataTable1_17  ;; 0x40026059
        CMP      R7,R12
        BCC.N    ??HAL_DMA_DeInit_144
        CMP      R7,R5
        BEQ.N    ??HAL_DMA_DeInit_145
        CMP      R7,R4
        BEQ.N    ??HAL_DMA_DeInit_145
        LDR.W    R12,??DataTable1_6  ;; 0x40026070
        CMP      R7,R12
        BEQ.N    ??HAL_DMA_DeInit_145
        LDR.W    R12,??DataTable1_7  ;; 0x40026470
        CMP      R7,R12
        BNE.N    ??HAL_DMA_DeInit_146
??HAL_DMA_DeInit_145:
        LDR.W    R7,??DataTable1_19  ;; 0x800001
        B.N      ??HAL_DMA_DeInit_147
??HAL_DMA_DeInit_146:
        LDR.W    R12,??DataTable1_9  ;; 0x40026028
        CMP      R7,R12
        BEQ.N    ??HAL_DMA_DeInit_148
        LDR.W    R12,??DataTable1_10  ;; 0x40026428
        CMP      R7,R12
        BEQ.N    ??HAL_DMA_DeInit_148
        LDR.W    R12,??DataTable1_11  ;; 0x40026088
        CMP      R7,R12
        BEQ.N    ??HAL_DMA_DeInit_148
        LDR.W    R12,??DataTable1_12  ;; 0x40026488
        CMP      R7,R12
        BNE.N    ??HAL_DMA_DeInit_149
??HAL_DMA_DeInit_148:
        MOVS     R7,#+64
        B.N      ??HAL_DMA_DeInit_147
??HAL_DMA_DeInit_149:
        LDR.W    R12,??DataTable1_13  ;; 0x40026040
        CMP      R7,R12
        BNE.N    ??HAL_DMA_DeInit_150
        MOV      R7,#+65536
        B.N      ??HAL_DMA_DeInit_147
??HAL_DMA_DeInit_150:
        LDR.W    R12,??DataTable1_14  ;; 0x40026440
        CMP      R7,R12
        BNE.N    ??HAL_DMA_DeInit_151
        MOV      R7,#+65536
        B.N      ??HAL_DMA_DeInit_147
??HAL_DMA_DeInit_151:
        LDR.W    R12,??DataTable1_15  ;; 0x400260a0
        CMP      R7,R12
        BNE.N    ??HAL_DMA_DeInit_152
        MOV      R7,#+65536
        B.N      ??HAL_DMA_DeInit_147
??HAL_DMA_DeInit_152:
        LDR.W    R12,??DataTable1_16  ;; 0x400264a0
        CMP      R7,R12
        BNE.N    ??HAL_DMA_DeInit_153
        MOV      R7,#+65536
        B.N      ??HAL_DMA_DeInit_147
??HAL_DMA_DeInit_153:
        MOV      R7,#+4194304
??HAL_DMA_DeInit_147:
        LDR.W    R12,??DataTable1_18  ;; 0x40026008
        STR      R7,[R12, #+4]
        B.N      ??HAL_DMA_DeInit_133
??HAL_DMA_DeInit_144:
        CMP      R7,R5
        BEQ.N    ??HAL_DMA_DeInit_154
        CMP      R7,R4
        BEQ.N    ??HAL_DMA_DeInit_154
        LDR.W    R12,??DataTable1_6  ;; 0x40026070
        CMP      R7,R12
        BEQ.N    ??HAL_DMA_DeInit_154
        LDR.W    R12,??DataTable1_7  ;; 0x40026470
        CMP      R7,R12
        BNE.N    ??HAL_DMA_DeInit_155
??HAL_DMA_DeInit_154:
        LDR.N    R7,??DataTable1_19  ;; 0x800001
        B.N      ??HAL_DMA_DeInit_156
??HAL_DMA_DeInit_155:
        LDR.W    R12,??DataTable1_9  ;; 0x40026028
        CMP      R7,R12
        BEQ.N    ??HAL_DMA_DeInit_157
        LDR.W    R12,??DataTable1_10  ;; 0x40026428
        CMP      R7,R12
        BEQ.N    ??HAL_DMA_DeInit_157
        LDR.W    R12,??DataTable1_11  ;; 0x40026088
        CMP      R7,R12
        BEQ.N    ??HAL_DMA_DeInit_157
        LDR.W    R12,??DataTable1_12  ;; 0x40026488
        CMP      R7,R12
        BNE.N    ??HAL_DMA_DeInit_158
??HAL_DMA_DeInit_157:
        MOVS     R7,#+64
        B.N      ??HAL_DMA_DeInit_156
??HAL_DMA_DeInit_158:
        LDR.W    R12,??DataTable1_13  ;; 0x40026040
        CMP      R7,R12
        BNE.N    ??HAL_DMA_DeInit_159
        MOV      R7,#+65536
        B.N      ??HAL_DMA_DeInit_156
??HAL_DMA_DeInit_159:
        LDR.W    R12,??DataTable1_14  ;; 0x40026440
        CMP      R7,R12
        BNE.N    ??HAL_DMA_DeInit_160
        MOV      R7,#+65536
        B.N      ??HAL_DMA_DeInit_156
??HAL_DMA_DeInit_160:
        LDR.W    R12,??DataTable1_15  ;; 0x400260a0
        CMP      R7,R12
        BNE.N    ??HAL_DMA_DeInit_161
        MOV      R7,#+65536
        B.N      ??HAL_DMA_DeInit_156
??HAL_DMA_DeInit_161:
        LDR.W    R12,??DataTable1_16  ;; 0x400264a0
        CMP      R7,R12
        BNE.N    ??HAL_DMA_DeInit_162
        MOV      R7,#+65536
        B.N      ??HAL_DMA_DeInit_156
??HAL_DMA_DeInit_162:
        MOV      R7,#+4194304
??HAL_DMA_DeInit_156:
        LDR.W    R12,??DataTable1_18  ;; 0x40026008
        STR      R7,[R12, #+0]
//  349   __HAL_DMA_CLEAR_FLAG(hdma, __HAL_DMA_GET_HT_FLAG_INDEX(hdma));
??HAL_DMA_DeInit_133:
        LDR      R0,[R0, #+0]
        CMP      R0,R6
        BCC.N    ??HAL_DMA_DeInit_163
        CMP      R0,R5
        BEQ.N    ??HAL_DMA_DeInit_164
        CMP      R0,R4
        BEQ.N    ??HAL_DMA_DeInit_164
        LDR.N    R3,??DataTable1_6  ;; 0x40026070
        CMP      R0,R3
        BEQ.N    ??HAL_DMA_DeInit_164
        LDR.N    R3,??DataTable1_7  ;; 0x40026470
        CMP      R0,R3
        BNE.N    ??HAL_DMA_DeInit_165
??HAL_DMA_DeInit_164:
        MOVS     R0,#+16
        B.N      ??HAL_DMA_DeInit_166
??HAL_DMA_DeInit_165:
        LDR.N    R3,??DataTable1_9  ;; 0x40026028
        CMP      R0,R3
        BEQ.N    ??HAL_DMA_DeInit_167
        LDR.N    R3,??DataTable1_10  ;; 0x40026428
        CMP      R0,R3
        BEQ.N    ??HAL_DMA_DeInit_167
        LDR.N    R3,??DataTable1_11  ;; 0x40026088
        CMP      R0,R3
        BEQ.N    ??HAL_DMA_DeInit_167
        LDR.N    R3,??DataTable1_12  ;; 0x40026488
        CMP      R0,R3
        BNE.N    ??HAL_DMA_DeInit_168
??HAL_DMA_DeInit_167:
        MOV      R0,#+1024
        B.N      ??HAL_DMA_DeInit_166
??HAL_DMA_DeInit_168:
        LDR.N    R3,??DataTable1_13  ;; 0x40026040
        CMP      R0,R3
        BNE.N    ??HAL_DMA_DeInit_169
        MOV      R0,#+1048576
        B.N      ??HAL_DMA_DeInit_166
??HAL_DMA_DeInit_169:
        LDR.N    R3,??DataTable1_14  ;; 0x40026440
        CMP      R0,R3
        BNE.N    ??HAL_DMA_DeInit_170
        MOV      R0,#+1048576
        B.N      ??HAL_DMA_DeInit_166
??HAL_DMA_DeInit_170:
        LDR.N    R3,??DataTable1_15  ;; 0x400260a0
        CMP      R0,R3
        BNE.N    ??HAL_DMA_DeInit_171
        MOV      R0,#+1048576
        B.N      ??HAL_DMA_DeInit_166
??HAL_DMA_DeInit_171:
        LDR.N    R3,??DataTable1_16  ;; 0x400264a0
        CMP      R0,R3
        BNE.N    ??HAL_DMA_DeInit_172
        MOV      R0,#+1048576
        B.N      ??HAL_DMA_DeInit_166
??HAL_DMA_DeInit_172:
        MOV      R0,#+67108864
??HAL_DMA_DeInit_166:
        STR      R0,[R2, #+4]
        B.N      ??HAL_DMA_DeInit_173
??HAL_DMA_DeInit_163:
        CMP      R0,R3
        BCC.N    ??HAL_DMA_DeInit_174
        CMP      R0,R5
        BEQ.N    ??HAL_DMA_DeInit_175
        CMP      R0,R4
        BEQ.N    ??HAL_DMA_DeInit_175
        LDR.N    R3,??DataTable1_6  ;; 0x40026070
        CMP      R0,R3
        BEQ.N    ??HAL_DMA_DeInit_175
        LDR.N    R3,??DataTable1_7  ;; 0x40026470
        CMP      R0,R3
        BNE.N    ??HAL_DMA_DeInit_176
??HAL_DMA_DeInit_175:
        MOVS     R0,#+16
        B.N      ??HAL_DMA_DeInit_177
??HAL_DMA_DeInit_176:
        LDR.N    R3,??DataTable1_9  ;; 0x40026028
        CMP      R0,R3
        BEQ.N    ??HAL_DMA_DeInit_178
        LDR.N    R3,??DataTable1_10  ;; 0x40026428
        CMP      R0,R3
        BEQ.N    ??HAL_DMA_DeInit_178
        LDR.N    R3,??DataTable1_11  ;; 0x40026088
        CMP      R0,R3
        BEQ.N    ??HAL_DMA_DeInit_178
        LDR.N    R3,??DataTable1_12  ;; 0x40026488
        CMP      R0,R3
        BNE.N    ??HAL_DMA_DeInit_179
??HAL_DMA_DeInit_178:
        MOV      R0,#+1024
        B.N      ??HAL_DMA_DeInit_177
??HAL_DMA_DeInit_179:
        LDR.N    R3,??DataTable1_13  ;; 0x40026040
        CMP      R0,R3
        BNE.N    ??HAL_DMA_DeInit_180
        MOV      R0,#+1048576
        B.N      ??HAL_DMA_DeInit_177
??HAL_DMA_DeInit_180:
        LDR.N    R3,??DataTable1_14  ;; 0x40026440
        CMP      R0,R3
        BNE.N    ??HAL_DMA_DeInit_181
        MOV      R0,#+1048576
        B.N      ??HAL_DMA_DeInit_177
??HAL_DMA_DeInit_181:
        LDR.N    R3,??DataTable1_15  ;; 0x400260a0
        CMP      R0,R3
        BNE.N    ??HAL_DMA_DeInit_182
        MOV      R0,#+1048576
        B.N      ??HAL_DMA_DeInit_177
??HAL_DMA_DeInit_182:
        LDR.N    R3,??DataTable1_16  ;; 0x400264a0
        CMP      R0,R3
        BNE.N    ??HAL_DMA_DeInit_183
        MOV      R0,#+1048576
        B.N      ??HAL_DMA_DeInit_177
??HAL_DMA_DeInit_183:
        MOV      R0,#+67108864
??HAL_DMA_DeInit_177:
        STR      R0,[R2, #+0]
        B.N      ??HAL_DMA_DeInit_173
??HAL_DMA_DeInit_174:
        LDR.N    R2,??DataTable1_17  ;; 0x40026059
        CMP      R0,R2
        BCC.N    ??HAL_DMA_DeInit_184
        CMP      R0,R5
        BEQ.N    ??HAL_DMA_DeInit_185
        CMP      R0,R4
        BEQ.N    ??HAL_DMA_DeInit_185
        LDR.N    R2,??DataTable1_6  ;; 0x40026070
        CMP      R0,R2
        BEQ.N    ??HAL_DMA_DeInit_185
        LDR.N    R2,??DataTable1_7  ;; 0x40026470
        CMP      R0,R2
        BNE.N    ??HAL_DMA_DeInit_186
??HAL_DMA_DeInit_185:
        MOVS     R0,#+16
        B.N      ??HAL_DMA_DeInit_187
??HAL_DMA_DeInit_186:
        LDR.N    R2,??DataTable1_9  ;; 0x40026028
        CMP      R0,R2
        BEQ.N    ??HAL_DMA_DeInit_188
        LDR.N    R2,??DataTable1_10  ;; 0x40026428
        CMP      R0,R2
        BEQ.N    ??HAL_DMA_DeInit_188
        LDR.N    R2,??DataTable1_11  ;; 0x40026088
        CMP      R0,R2
        BEQ.N    ??HAL_DMA_DeInit_188
        LDR.N    R2,??DataTable1_12  ;; 0x40026488
        CMP      R0,R2
        BNE.N    ??HAL_DMA_DeInit_189
??HAL_DMA_DeInit_188:
        MOV      R0,#+1024
        B.N      ??HAL_DMA_DeInit_187
??HAL_DMA_DeInit_189:
        LDR.N    R2,??DataTable1_13  ;; 0x40026040
        CMP      R0,R2
        BNE.N    ??HAL_DMA_DeInit_190
        MOV      R0,#+1048576
        B.N      ??HAL_DMA_DeInit_187
??HAL_DMA_DeInit_190:
        LDR.N    R2,??DataTable1_14  ;; 0x40026440
        CMP      R0,R2
        BNE.N    ??HAL_DMA_DeInit_191
        MOV      R0,#+1048576
        B.N      ??HAL_DMA_DeInit_187
??HAL_DMA_DeInit_191:
        LDR.N    R2,??DataTable1_15  ;; 0x400260a0
        CMP      R0,R2
        BNE.N    ??HAL_DMA_DeInit_192
        MOV      R0,#+1048576
        B.N      ??HAL_DMA_DeInit_187
??HAL_DMA_DeInit_192:
        LDR.N    R2,??DataTable1_16  ;; 0x400264a0
        CMP      R0,R2
        BNE.N    ??HAL_DMA_DeInit_193
        MOV      R0,#+1048576
        B.N      ??HAL_DMA_DeInit_187
??HAL_DMA_DeInit_193:
        MOV      R0,#+67108864
??HAL_DMA_DeInit_187:
        LDR.N    R2,??DataTable1_18  ;; 0x40026008
        STR      R0,[R2, #+4]
        B.N      ??HAL_DMA_DeInit_173
??HAL_DMA_DeInit_184:
        CMP      R0,R5
        BEQ.N    ??HAL_DMA_DeInit_194
        CMP      R0,R4
        BEQ.N    ??HAL_DMA_DeInit_194
        LDR.N    R2,??DataTable1_6  ;; 0x40026070
        CMP      R0,R2
        BEQ.N    ??HAL_DMA_DeInit_194
        LDR.N    R2,??DataTable1_7  ;; 0x40026470
        CMP      R0,R2
        BNE.N    ??HAL_DMA_DeInit_195
??HAL_DMA_DeInit_194:
        MOVS     R0,#+16
        B.N      ??HAL_DMA_DeInit_196
??HAL_DMA_DeInit_195:
        LDR.N    R2,??DataTable1_9  ;; 0x40026028
        CMP      R0,R2
        BEQ.N    ??HAL_DMA_DeInit_197
        LDR.N    R2,??DataTable1_10  ;; 0x40026428
        CMP      R0,R2
        BEQ.N    ??HAL_DMA_DeInit_197
        LDR.N    R2,??DataTable1_11  ;; 0x40026088
        CMP      R0,R2
        BEQ.N    ??HAL_DMA_DeInit_197
        LDR.N    R2,??DataTable1_12  ;; 0x40026488
        CMP      R0,R2
        BNE.N    ??HAL_DMA_DeInit_198
??HAL_DMA_DeInit_197:
        MOV      R0,#+1024
        B.N      ??HAL_DMA_DeInit_196
??HAL_DMA_DeInit_198:
        LDR.N    R2,??DataTable1_13  ;; 0x40026040
        CMP      R0,R2
        BNE.N    ??HAL_DMA_DeInit_199
        MOV      R0,#+1048576
        B.N      ??HAL_DMA_DeInit_196
??HAL_DMA_DeInit_199:
        LDR.N    R2,??DataTable1_14  ;; 0x40026440
        CMP      R0,R2
        BNE.N    ??HAL_DMA_DeInit_200
        MOV      R0,#+1048576
        B.N      ??HAL_DMA_DeInit_196
??HAL_DMA_DeInit_200:
        LDR.N    R2,??DataTable1_15  ;; 0x400260a0
        CMP      R0,R2
        BNE.N    ??HAL_DMA_DeInit_201
        MOV      R0,#+1048576
        B.N      ??HAL_DMA_DeInit_196
??HAL_DMA_DeInit_201:
        LDR.N    R2,??DataTable1_16  ;; 0x400264a0
        CMP      R0,R2
        BNE.N    ??HAL_DMA_DeInit_202
        MOV      R0,#+1048576
        B.N      ??HAL_DMA_DeInit_196
??HAL_DMA_DeInit_202:
        MOV      R0,#+67108864
??HAL_DMA_DeInit_196:
        LDR.N    R2,??DataTable1_18  ;; 0x40026008
        STR      R0,[R2, #+0]
//  350 
//  351   /* Initialize the error code */
//  352   hdma->ErrorCode = HAL_DMA_ERROR_NONE;
??HAL_DMA_DeInit_173:
        MOVS     R0,#+0
        STR      R0,[R1, #+24]
//  353 
//  354   /* Initialize the DMA state */
//  355   hdma->State = HAL_DMA_STATE_RESET;
        STRB     R0,[R1, #+1]
//  356 
//  357   /* Release Lock */
//  358   __HAL_UNLOCK(hdma);
        STRB     R0,[R1, #+0]
//  359 
//  360   return HAL_OK;
??HAL_DMA_DeInit_2:
        POP      {R4-R7}
          CFI R4 SameValue
          CFI R5 SameValue
          CFI R6 SameValue
          CFI R7 SameValue
          CFI CFA R13+0
        BX       LR               ;; return
//  361 }
          CFI EndBlock cfiBlock2

        SECTION `.text`:CODE:NOROOT(2)
        SECTION_TYPE SHT_PROGBITS, 0
        DATA
??DataTable1:
        DC32     0xf010803f

        SECTION `.text`:CODE:NOROOT(2)
        SECTION_TYPE SHT_PROGBITS, 0
        DATA
??DataTable1_1:
        DC32     0x40026408

        SECTION `.text`:CODE:NOROOT(2)
        SECTION_TYPE SHT_PROGBITS, 0
        DATA
??DataTable1_2:
        DC32     0x400260b9

        SECTION `.text`:CODE:NOROOT(2)
        SECTION_TYPE SHT_PROGBITS, 0
        DATA
??DataTable1_3:
        DC32     0x40026410

        SECTION `.text`:CODE:NOROOT(2)
        SECTION_TYPE SHT_PROGBITS, 0
        DATA
??DataTable1_4:
        DC32     0x40026010

        SECTION `.text`:CODE:NOROOT(2)
        SECTION_TYPE SHT_PROGBITS, 0
        DATA
??DataTable1_5:
        DC32     0x40026459

        SECTION `.text`:CODE:NOROOT(2)
        SECTION_TYPE SHT_PROGBITS, 0
        DATA
??DataTable1_6:
        DC32     0x40026070

        SECTION `.text`:CODE:NOROOT(2)
        SECTION_TYPE SHT_PROGBITS, 0
        DATA
??DataTable1_7:
        DC32     0x40026470

        SECTION `.text`:CODE:NOROOT(2)
        SECTION_TYPE SHT_PROGBITS, 0
        DATA
??DataTable1_8:
        DC32     0x800004

        SECTION `.text`:CODE:NOROOT(2)
        SECTION_TYPE SHT_PROGBITS, 0
        DATA
??DataTable1_9:
        DC32     0x40026028

        SECTION `.text`:CODE:NOROOT(2)
        SECTION_TYPE SHT_PROGBITS, 0
        DATA
??DataTable1_10:
        DC32     0x40026428

        SECTION `.text`:CODE:NOROOT(2)
        SECTION_TYPE SHT_PROGBITS, 0
        DATA
??DataTable1_11:
        DC32     0x40026088

        SECTION `.text`:CODE:NOROOT(2)
        SECTION_TYPE SHT_PROGBITS, 0
        DATA
??DataTable1_12:
        DC32     0x40026488

        SECTION `.text`:CODE:NOROOT(2)
        SECTION_TYPE SHT_PROGBITS, 0
        DATA
??DataTable1_13:
        DC32     0x40026040

        SECTION `.text`:CODE:NOROOT(2)
        SECTION_TYPE SHT_PROGBITS, 0
        DATA
??DataTable1_14:
        DC32     0x40026440

        SECTION `.text`:CODE:NOROOT(2)
        SECTION_TYPE SHT_PROGBITS, 0
        DATA
??DataTable1_15:
        DC32     0x400260a0

        SECTION `.text`:CODE:NOROOT(2)
        SECTION_TYPE SHT_PROGBITS, 0
        DATA
??DataTable1_16:
        DC32     0x400264a0

        SECTION `.text`:CODE:NOROOT(2)
        SECTION_TYPE SHT_PROGBITS, 0
        DATA
??DataTable1_17:
        DC32     0x40026059

        SECTION `.text`:CODE:NOROOT(2)
        SECTION_TYPE SHT_PROGBITS, 0
        DATA
??DataTable1_18:
        DC32     0x40026008

        SECTION `.text`:CODE:NOROOT(2)
        SECTION_TYPE SHT_PROGBITS, 0
        DATA
??DataTable1_19:
        DC32     0x800001
//  362 
//  363 /**
//  364   * @}
//  365   */
//  366 
//  367 /** @addtogroup DMA_Exported_Functions_Group2
//  368   *
//  369 @verbatim   
//  370  ===============================================================================
//  371                       #####  IO operation functions  #####
//  372  ===============================================================================  
//  373     [..]  This section provides functions allowing to:
//  374       (+) Configure the source, destination address and data length and Start DMA transfer
//  375       (+) Configure the source, destination address and data length and 
//  376           Start DMA transfer with interrupt
//  377       (+) Abort DMA transfer
//  378       (+) Poll for transfer complete
//  379       (+) Handle DMA interrupt request  
//  380 
//  381 @endverbatim
//  382   * @{
//  383   */
//  384 
//  385 /**
//  386   * @brief  Starts the DMA Transfer.
//  387   * @param  hdma      : pointer to a DMA_HandleTypeDef structure that contains
//  388   *                     the configuration information for the specified DMA Stream.  
//  389   * @param  SrcAddress: The source memory Buffer address
//  390   * @param  DstAddress: The destination memory Buffer address
//  391   * @param  DataLength: The length of data to be transferred from source to destination
//  392   * @retval HAL status
//  393   */

        SECTION `.text`:CODE:NOROOT(1)
          CFI Block cfiBlock3 Using cfiCommon0
          CFI Function HAL_DMA_Start
        THUMB
//  394 HAL_StatusTypeDef HAL_DMA_Start(DMA_HandleTypeDef *hdma, uint32_t SrcAddress, uint32_t DstAddress, uint32_t DataLength)
//  395 {
HAL_DMA_Start:
        PUSH     {R3-R5,LR}
          CFI R14 Frame(CFA, -4)
          CFI R5 Frame(CFA, -8)
          CFI R4 Frame(CFA, -12)
          CFI CFA R13+16
        MOV      R4,R0
//  396   /* Process locked */
//  397   __HAL_LOCK(hdma);
        ADD      R0,R4,#+52
        LDRB     R5,[R0, #+0]
        CMP      R5,#+1
        BNE.N    ??HAL_DMA_Start_0
        MOVS     R0,#+2
        POP      {R1,R4,R5,PC}
??HAL_DMA_Start_0:
        MOVS     R5,#+1
        STRB     R5,[R0, #+0]
//  398 
//  399   /* Change DMA peripheral state */
//  400   hdma->State = HAL_DMA_STATE_BUSY;
        MOVS     R5,#+2
        STRB     R5,[R0, #+1]
//  401 
//  402    /* Check the parameters */
//  403   assert_param(IS_DMA_BUFFER_SIZE(DataLength));
//  404 
//  405   /* Disable the peripheral */
//  406   __HAL_DMA_DISABLE(hdma);
        LDR      R0,[R4, #+0]
        LDR      R5,[R0, #+0]
        LSRS     R5,R5,#+1
        LSLS     R5,R5,#+1
        STR      R5,[R0, #+0]
//  407 
//  408   /* Configure the source, destination address and the data length */
//  409   DMA_SetConfig(hdma, SrcAddress, DstAddress, DataLength);
        MOV      R0,R4
          CFI FunCall DMA_SetConfig
        BL       DMA_SetConfig
//  410 
//  411   /* Enable the Peripheral */
//  412   __HAL_DMA_ENABLE(hdma);
        LDR      R0,[R4, #+0]
        LDR      R1,[R0, #+0]
        ORR      R1,R1,#0x1
        STR      R1,[R0, #+0]
//  413 
//  414   return HAL_OK; 
        MOVS     R0,#+0
        POP      {R1,R4,R5,PC}    ;; return
//  415 }
          CFI EndBlock cfiBlock3
//  416 
//  417 /**
//  418   * @brief  Start the DMA Transfer with interrupt enabled.
//  419   * @param  hdma:       pointer to a DMA_HandleTypeDef structure that contains
//  420   *                     the configuration information for the specified DMA Stream.  
//  421   * @param  SrcAddress: The source memory Buffer address
//  422   * @param  DstAddress: The destination memory Buffer address
//  423   * @param  DataLength: The length of data to be transferred from source to destination
//  424   * @retval HAL status
//  425   */

        SECTION `.text`:CODE:NOROOT(1)
          CFI Block cfiBlock4 Using cfiCommon0
          CFI Function HAL_DMA_Start_IT
        THUMB
//  426 HAL_StatusTypeDef HAL_DMA_Start_IT(DMA_HandleTypeDef *hdma, uint32_t SrcAddress, uint32_t DstAddress, uint32_t DataLength)
//  427 {
HAL_DMA_Start_IT:
        PUSH     {R3-R5,LR}
          CFI R14 Frame(CFA, -4)
          CFI R5 Frame(CFA, -8)
          CFI R4 Frame(CFA, -12)
          CFI CFA R13+16
        MOV      R4,R0
//  428   /* Process locked */
//  429   __HAL_LOCK(hdma);
        ADD      R0,R4,#+52
        LDRB     R5,[R0, #+0]
        CMP      R5,#+1
        BNE.N    ??HAL_DMA_Start_IT_0
        MOVS     R0,#+2
        POP      {R1,R4,R5,PC}
??HAL_DMA_Start_IT_0:
        MOVS     R5,#+1
        STRB     R5,[R0, #+0]
//  430 
//  431   /* Change DMA peripheral state */
//  432   hdma->State = HAL_DMA_STATE_BUSY;
        MOVS     R5,#+2
        STRB     R5,[R0, #+1]
//  433 
//  434    /* Check the parameters */
//  435   assert_param(IS_DMA_BUFFER_SIZE(DataLength));
//  436 
//  437   /* Disable the peripheral */
//  438   __HAL_DMA_DISABLE(hdma);
        LDR      R0,[R4, #+0]
        LDR      R5,[R0, #+0]
        LSRS     R5,R5,#+1
        LSLS     R5,R5,#+1
        STR      R5,[R0, #+0]
//  439 
//  440   /* Configure the source, destination address and the data length */
//  441   DMA_SetConfig(hdma, SrcAddress, DstAddress, DataLength);
        MOV      R0,R4
          CFI FunCall DMA_SetConfig
        BL       DMA_SetConfig
//  442 
//  443   /* Enable the transfer complete interrupt */
//  444   __HAL_DMA_ENABLE_IT(hdma, DMA_IT_TC);
        LDR      R0,[R4, #+0]
        LDR      R1,[R0, #+0]
        ORR      R1,R1,#0x10
        STR      R1,[R0, #+0]
//  445 
//  446   /* Enable the Half transfer complete interrupt */
//  447   __HAL_DMA_ENABLE_IT(hdma, DMA_IT_HT);  
        LDR      R0,[R4, #+0]
        LDR      R1,[R0, #+0]
        ORR      R1,R1,#0x8
        STR      R1,[R0, #+0]
//  448 
//  449   /* Enable the transfer Error interrupt */
//  450   __HAL_DMA_ENABLE_IT(hdma, DMA_IT_TE);
        LDR      R0,[R4, #+0]
        LDR      R1,[R0, #+0]
        ORR      R1,R1,#0x4
        STR      R1,[R0, #+0]
//  451 
//  452   /* Enable the FIFO Error interrupt */
//  453   __HAL_DMA_ENABLE_IT(hdma, DMA_IT_FE);
        LDR      R0,[R4, #+0]
        LDR      R1,[R0, #+20]
        ORR      R1,R1,#0x80
        STR      R1,[R0, #+20]
//  454 
//  455   /* Enable the direct mode Error interrupt */
//  456   __HAL_DMA_ENABLE_IT(hdma, DMA_IT_DME);
        LDR      R0,[R4, #+0]
        LDR      R1,[R0, #+0]
        ORR      R1,R1,#0x2
        STR      R1,[R0, #+0]
//  457 
//  458    /* Enable the Peripheral */
//  459   __HAL_DMA_ENABLE(hdma);
        LDR      R0,[R4, #+0]
        LDR      R1,[R0, #+0]
        ORR      R1,R1,#0x1
        STR      R1,[R0, #+0]
//  460 
//  461   return HAL_OK;
        MOVS     R0,#+0
        POP      {R1,R4,R5,PC}    ;; return
//  462 } 
          CFI EndBlock cfiBlock4
//  463 
//  464 /**
//  465   * @brief  Aborts the DMA Transfer.
//  466   * @param  hdma  : pointer to a DMA_HandleTypeDef structure that contains
//  467   *                 the configuration information for the specified DMA Stream.
//  468   *                   
//  469   * @note  After disabling a DMA Stream, a check for wait until the DMA Stream is 
//  470   *        effectively disabled is added. If a Stream is disabled 
//  471   *        while a data transfer is ongoing, the current data will be transferred
//  472   *        and the Stream will be effectively disabled only after the transfer of
//  473   *        this single data is finished.  
//  474   * @retval HAL status
//  475   */

        SECTION `.text`:CODE:NOROOT(1)
          CFI Block cfiBlock5 Using cfiCommon0
          CFI Function HAL_DMA_Abort
        THUMB
//  476 HAL_StatusTypeDef HAL_DMA_Abort(DMA_HandleTypeDef *hdma)
//  477 {
HAL_DMA_Abort:
        PUSH     {R3-R5,LR}
          CFI R14 Frame(CFA, -4)
          CFI R5 Frame(CFA, -8)
          CFI R4 Frame(CFA, -12)
          CFI CFA R13+16
        MOV      R4,R0
//  478   uint32_t tickstart = 0;
//  479 
//  480   /* Disable the stream */
//  481   __HAL_DMA_DISABLE(hdma);
        LDR      R0,[R4, #+0]
        LDR      R1,[R0, #+0]
        LSRS     R1,R1,#+1
        LSLS     R1,R1,#+1
        STR      R1,[R0, #+0]
//  482 
//  483   /* Get tick */
//  484   tickstart = HAL_GetTick();
          CFI FunCall HAL_GetTick
        BL       HAL_GetTick
        MOV      R5,R0
//  485 
//  486   /* Check if the DMA Stream is effectively disabled */
//  487   while((hdma->Instance->CR & DMA_SxCR_EN) != 0)
??HAL_DMA_Abort_0:
        LDR      R0,[R4, #+0]
        LDR      R0,[R0, #+0]
        LSLS     R0,R0,#+31
        BPL.N    ??HAL_DMA_Abort_1
//  488   {
//  489     /* Check for the Timeout */
//  490     if((HAL_GetTick() - tickstart ) > HAL_TIMEOUT_DMA_ABORT)
          CFI FunCall HAL_GetTick
        BL       HAL_GetTick
        SUBS     R0,R0,R5
        CMP      R0,#+1000
        BLS.N    ??HAL_DMA_Abort_0
//  491     {
//  492       /* Update error code */
//  493       hdma->ErrorCode |= HAL_DMA_ERROR_TIMEOUT;
        ADD      R0,R4,#+52
        LDR      R1,[R0, #+24]
        ORR      R1,R1,#0x20
        STR      R1,[R0, #+24]
//  494       
//  495       /* Process Unlocked */
//  496       __HAL_UNLOCK(hdma);
        MOVS     R1,#+0
        STRB     R1,[R0, #+0]
//  497       
//  498       /* Change the DMA state */
//  499       hdma->State = HAL_DMA_STATE_TIMEOUT;
        MOVS     R1,#+3
        STRB     R1,[R0, #+1]
//  500       
//  501       return HAL_TIMEOUT;
        MOV      R0,R1
        POP      {R1,R4,R5,PC}
//  502     }
//  503   }
//  504   /* Process Unlocked */
//  505   __HAL_UNLOCK(hdma);
??HAL_DMA_Abort_1:
        ADD      R0,R4,#+52
        MOVS     R1,#+0
        STRB     R1,[R0, #+0]
//  506 
//  507   /* Change the DMA state*/
//  508   hdma->State = HAL_DMA_STATE_READY;
        MOVS     R1,#+1
        STRB     R1,[R0, #+1]
//  509 
//  510   return HAL_OK;
        MOVS     R0,#+0
        POP      {R1,R4,R5,PC}    ;; return
//  511 }
          CFI EndBlock cfiBlock5
//  512 
//  513 /**
//  514   * @brief  Polling for transfer complete.
//  515   * @param  hdma:          pointer to a DMA_HandleTypeDef structure that contains
//  516   *                        the configuration information for the specified DMA Stream.
//  517   * @param  CompleteLevel: Specifies the DMA level complete.  
//  518   * @param  Timeout:       Timeout duration.
//  519   * @retval HAL status
//  520   */

        SECTION `.text`:CODE:NOROOT(2)
          CFI Block cfiBlock6 Using cfiCommon0
          CFI Function HAL_DMA_PollForTransfer
        THUMB
//  521 HAL_StatusTypeDef HAL_DMA_PollForTransfer(DMA_HandleTypeDef *hdma, uint32_t CompleteLevel, uint32_t Timeout)
//  522 {
HAL_DMA_PollForTransfer:
        PUSH     {R4-R10,LR}
          CFI R14 Frame(CFA, -4)
          CFI R10 Frame(CFA, -8)
          CFI R9 Frame(CFA, -12)
          CFI R8 Frame(CFA, -16)
          CFI R7 Frame(CFA, -20)
          CFI R6 Frame(CFA, -24)
          CFI R5 Frame(CFA, -28)
          CFI R4 Frame(CFA, -32)
          CFI CFA R13+32
        MOV      R4,R0
        MOV      R5,R1
        MOV      R6,R2
//  523   uint32_t temp, tmp, tmp1, tmp2;
//  524   uint32_t tickstart = 0; 
//  525 
//  526   /* Get the level transfer complete flag */
//  527   if(CompleteLevel == HAL_DMA_FULL_TRANSFER)
        LDR      R0,[R4, #+0]
        LDR.W    R7,??HAL_DMA_PollForTransfer_0  ;; 0x40026010
        CMP      R5,#+0
        BNE.N    ??HAL_DMA_PollForTransfer_1
//  528   {
//  529     /* Transfer Complete flag */
//  530     temp = __HAL_DMA_GET_TC_FLAG_INDEX(hdma);
        CMP      R0,R7
        BEQ.N    ??HAL_DMA_PollForTransfer_2
        LDR.W    R1,??HAL_DMA_PollForTransfer_0+0x4  ;; 0x40026410
        CMP      R0,R1
        BEQ.N    ??HAL_DMA_PollForTransfer_2
        LDR.W    R1,??HAL_DMA_PollForTransfer_0+0x8  ;; 0x40026070
        CMP      R0,R1
        BEQ.N    ??HAL_DMA_PollForTransfer_2
        LDR.W    R1,??HAL_DMA_PollForTransfer_0+0xC  ;; 0x40026470
        CMP      R0,R1
        BNE.N    ??HAL_DMA_PollForTransfer_3
??HAL_DMA_PollForTransfer_2:
        MOV      R8,#+32
        B.N      ??HAL_DMA_PollForTransfer_4
??HAL_DMA_PollForTransfer_3:
        LDR.W    R1,??HAL_DMA_PollForTransfer_0+0x10  ;; 0x40026028
        CMP      R0,R1
        BEQ.N    ??HAL_DMA_PollForTransfer_5
        LDR.W    R1,??HAL_DMA_PollForTransfer_0+0x14  ;; 0x40026428
        CMP      R0,R1
        BEQ.N    ??HAL_DMA_PollForTransfer_5
        LDR.W    R1,??HAL_DMA_PollForTransfer_0+0x18  ;; 0x40026088
        CMP      R0,R1
        BEQ.N    ??HAL_DMA_PollForTransfer_5
        LDR.W    R1,??HAL_DMA_PollForTransfer_0+0x1C  ;; 0x40026488
        CMP      R0,R1
        BNE.N    ??HAL_DMA_PollForTransfer_6
??HAL_DMA_PollForTransfer_5:
        MOV      R8,#+2048
        B.N      ??HAL_DMA_PollForTransfer_4
??HAL_DMA_PollForTransfer_6:
        LDR.W    R1,??HAL_DMA_PollForTransfer_0+0x20  ;; 0x40026040
        CMP      R0,R1
        BNE.N    ??HAL_DMA_PollForTransfer_7
        MOV      R8,#+2097152
        B.N      ??HAL_DMA_PollForTransfer_4
??HAL_DMA_PollForTransfer_7:
        LDR.W    R1,??HAL_DMA_PollForTransfer_0+0x24  ;; 0x40026440
        CMP      R0,R1
        BNE.N    ??HAL_DMA_PollForTransfer_8
        MOV      R8,#+2097152
        B.N      ??HAL_DMA_PollForTransfer_4
??HAL_DMA_PollForTransfer_8:
        LDR.W    R1,??HAL_DMA_PollForTransfer_0+0x28  ;; 0x400260a0
        CMP      R0,R1
        BNE.N    ??HAL_DMA_PollForTransfer_9
        MOV      R8,#+2097152
        B.N      ??HAL_DMA_PollForTransfer_4
??HAL_DMA_PollForTransfer_9:
        LDR.W    R1,??HAL_DMA_PollForTransfer_10  ;; 0x400264a0
        CMP      R0,R1
        BNE.N    ??HAL_DMA_PollForTransfer_11
        MOV      R8,#+2097152
        B.N      ??HAL_DMA_PollForTransfer_4
??HAL_DMA_PollForTransfer_11:
        MOV      R8,#+134217728
        B.N      ??HAL_DMA_PollForTransfer_4
//  531   }
//  532   else
//  533   {
//  534     /* Half Transfer Complete flag */
//  535     temp = __HAL_DMA_GET_HT_FLAG_INDEX(hdma);
??HAL_DMA_PollForTransfer_1:
        CMP      R0,R7
        BEQ.N    ??HAL_DMA_PollForTransfer_12
        LDR.W    R1,??HAL_DMA_PollForTransfer_0+0x4  ;; 0x40026410
        CMP      R0,R1
        BEQ.N    ??HAL_DMA_PollForTransfer_12
        LDR.W    R1,??HAL_DMA_PollForTransfer_0+0x8  ;; 0x40026070
        CMP      R0,R1
        BEQ.N    ??HAL_DMA_PollForTransfer_12
        LDR.W    R1,??HAL_DMA_PollForTransfer_0+0xC  ;; 0x40026470
        CMP      R0,R1
        BNE.N    ??HAL_DMA_PollForTransfer_13
??HAL_DMA_PollForTransfer_12:
        MOV      R8,#+16
        B.N      ??HAL_DMA_PollForTransfer_4
??HAL_DMA_PollForTransfer_13:
        LDR.W    R1,??HAL_DMA_PollForTransfer_0+0x10  ;; 0x40026028
        CMP      R0,R1
        BEQ.N    ??HAL_DMA_PollForTransfer_14
        LDR.W    R1,??HAL_DMA_PollForTransfer_0+0x14  ;; 0x40026428
        CMP      R0,R1
        BEQ.N    ??HAL_DMA_PollForTransfer_14
        LDR.W    R1,??HAL_DMA_PollForTransfer_0+0x18  ;; 0x40026088
        CMP      R0,R1
        BEQ.N    ??HAL_DMA_PollForTransfer_14
        LDR.W    R1,??HAL_DMA_PollForTransfer_0+0x1C  ;; 0x40026488
        CMP      R0,R1
        BNE.N    ??HAL_DMA_PollForTransfer_15
??HAL_DMA_PollForTransfer_14:
        MOV      R8,#+1024
        B.N      ??HAL_DMA_PollForTransfer_4
??HAL_DMA_PollForTransfer_15:
        LDR.W    R1,??HAL_DMA_PollForTransfer_0+0x20  ;; 0x40026040
        CMP      R0,R1
        BNE.N    ??HAL_DMA_PollForTransfer_16
        MOV      R8,#+1048576
        B.N      ??HAL_DMA_PollForTransfer_4
??HAL_DMA_PollForTransfer_16:
        LDR.W    R1,??HAL_DMA_PollForTransfer_0+0x24  ;; 0x40026440
        CMP      R0,R1
        BNE.N    ??HAL_DMA_PollForTransfer_17
        MOV      R8,#+1048576
        B.N      ??HAL_DMA_PollForTransfer_4
??HAL_DMA_PollForTransfer_17:
        LDR.W    R1,??HAL_DMA_PollForTransfer_0+0x28  ;; 0x400260a0
        CMP      R0,R1
        BNE.N    ??HAL_DMA_PollForTransfer_18
        MOV      R8,#+1048576
        B.N      ??HAL_DMA_PollForTransfer_4
??HAL_DMA_PollForTransfer_18:
        LDR.W    R1,??HAL_DMA_PollForTransfer_10  ;; 0x400264a0
        CMP      R0,R1
        BNE.N    ??HAL_DMA_PollForTransfer_19
        MOV      R8,#+1048576
        B.N      ??HAL_DMA_PollForTransfer_4
??HAL_DMA_PollForTransfer_19:
        MOV      R8,#+67108864
//  536   }
//  537 
//  538   /* Get tick */
//  539   tickstart = HAL_GetTick();
??HAL_DMA_PollForTransfer_4:
          CFI FunCall HAL_GetTick
        BL       HAL_GetTick
        MOV      R9,R0
//  540 
//  541   while(__HAL_DMA_GET_FLAG(hdma, temp) == RESET)
??HAL_DMA_PollForTransfer_20:
        LDR      R3,[R4, #+0]
        MOV      R2,R3
        LDR.W    R0,??HAL_DMA_PollForTransfer_10+0x4  ;; 0x40026400
        LDR.W    R1,??HAL_DMA_PollForTransfer_10+0x8  ;; 0x40026459
        CMP      R2,R1
        BCC.N    ??HAL_DMA_PollForTransfer_21
        LDR      R12,[R0, #+4]
        AND      R12,R8,R12
        B.N      ??HAL_DMA_PollForTransfer_22
??HAL_DMA_PollForTransfer_21:
        LDR.W    R12,??HAL_DMA_PollForTransfer_10+0xC  ;; 0x400260b9
        CMP      R2,R12
        BCC.N    ??HAL_DMA_PollForTransfer_23
        LDR      R12,[R0, #+0]
        AND      R12,R8,R12
        B.N      ??HAL_DMA_PollForTransfer_22
??HAL_DMA_PollForTransfer_23:
        LDR.W    LR,??HAL_DMA_PollForTransfer_10+0x10  ;; 0x40026000
        LDR.W    R12,??HAL_DMA_PollForTransfer_10+0x14  ;; 0x40026059
        CMP      R2,R12
        BCC.N    ??HAL_DMA_PollForTransfer_24
        LDR      R12,[LR, #+4]
        AND      R12,R8,R12
        B.N      ??HAL_DMA_PollForTransfer_22
??HAL_DMA_PollForTransfer_24:
        LDR      R12,[LR, #+0]
        AND      R12,R8,R12
??HAL_DMA_PollForTransfer_22:
        CMP      R12,#+0
        BNE.W    ??HAL_DMA_PollForTransfer_25
//  542   {
//  543     tmp  = __HAL_DMA_GET_FLAG(hdma, __HAL_DMA_GET_TE_FLAG_INDEX(hdma));
        CMP      R2,R1
        BCC.N    ??HAL_DMA_PollForTransfer_26
        LDR      R3,[R0, #+4]
        CMP      R2,R7
        BEQ.N    ??HAL_DMA_PollForTransfer_27
        LDR.W    R12,??HAL_DMA_PollForTransfer_0+0x4  ;; 0x40026410
        CMP      R2,R12
        BEQ.N    ??HAL_DMA_PollForTransfer_27
        LDR.W    R12,??HAL_DMA_PollForTransfer_0+0x8  ;; 0x40026070
        CMP      R2,R12
        BEQ.N    ??HAL_DMA_PollForTransfer_27
        LDR.W    R12,??HAL_DMA_PollForTransfer_0+0xC  ;; 0x40026470
        CMP      R2,R12
        BNE.N    ??HAL_DMA_PollForTransfer_28
??HAL_DMA_PollForTransfer_27:
        MOV      R12,#+8
        B.N      ??HAL_DMA_PollForTransfer_29
??HAL_DMA_PollForTransfer_28:
        LDR.W    R12,??HAL_DMA_PollForTransfer_0+0x10  ;; 0x40026028
        CMP      R2,R12
        BEQ.N    ??HAL_DMA_PollForTransfer_30
        LDR.W    R12,??HAL_DMA_PollForTransfer_0+0x14  ;; 0x40026428
        CMP      R2,R12
        BEQ.N    ??HAL_DMA_PollForTransfer_30
        LDR.W    R12,??HAL_DMA_PollForTransfer_0+0x18  ;; 0x40026088
        CMP      R2,R12
        BEQ.N    ??HAL_DMA_PollForTransfer_30
        LDR.W    R12,??HAL_DMA_PollForTransfer_0+0x1C  ;; 0x40026488
        CMP      R2,R12
        BNE.N    ??HAL_DMA_PollForTransfer_31
??HAL_DMA_PollForTransfer_30:
        MOV      R12,#+512
        B.N      ??HAL_DMA_PollForTransfer_29
??HAL_DMA_PollForTransfer_31:
        LDR.W    R12,??HAL_DMA_PollForTransfer_0+0x20  ;; 0x40026040
        CMP      R2,R12
        BNE.N    ??HAL_DMA_PollForTransfer_32
        MOV      R12,#+524288
        B.N      ??HAL_DMA_PollForTransfer_29
??HAL_DMA_PollForTransfer_32:
        LDR.W    R12,??HAL_DMA_PollForTransfer_0+0x24  ;; 0x40026440
        CMP      R2,R12
        BNE.N    ??HAL_DMA_PollForTransfer_33
        MOV      R12,#+524288
        B.N      ??HAL_DMA_PollForTransfer_29
??HAL_DMA_PollForTransfer_33:
        LDR.W    R12,??HAL_DMA_PollForTransfer_0+0x28  ;; 0x400260a0
        CMP      R2,R12
        BNE.N    ??HAL_DMA_PollForTransfer_34
        MOV      R12,#+524288
        B.N      ??HAL_DMA_PollForTransfer_29
??HAL_DMA_PollForTransfer_34:
        LDR.W    R12,??HAL_DMA_PollForTransfer_10  ;; 0x400264a0
        CMP      R2,R12
        BNE.N    ??HAL_DMA_PollForTransfer_35
        MOV      R12,#+524288
        B.N      ??HAL_DMA_PollForTransfer_29
??HAL_DMA_PollForTransfer_35:
        MOV      R12,#+33554432
??HAL_DMA_PollForTransfer_29:
        AND      R3,R12,R3
        B.N      ??HAL_DMA_PollForTransfer_36
??HAL_DMA_PollForTransfer_26:
        LDR.W    R3,??HAL_DMA_PollForTransfer_10+0xC  ;; 0x400260b9
        CMP      R2,R3
        BCC.N    ??HAL_DMA_PollForTransfer_37
        LDR      R3,[R0, #+0]
        CMP      R2,R7
        BEQ.N    ??HAL_DMA_PollForTransfer_38
        LDR.W    R12,??HAL_DMA_PollForTransfer_0+0x4  ;; 0x40026410
        CMP      R2,R12
        BEQ.N    ??HAL_DMA_PollForTransfer_38
        LDR.W    R12,??HAL_DMA_PollForTransfer_0+0x8  ;; 0x40026070
        CMP      R2,R12
        BEQ.N    ??HAL_DMA_PollForTransfer_38
        LDR.W    R12,??HAL_DMA_PollForTransfer_0+0xC  ;; 0x40026470
        CMP      R2,R12
        BNE.N    ??HAL_DMA_PollForTransfer_39
??HAL_DMA_PollForTransfer_38:
        MOV      R12,#+8
        B.N      ??HAL_DMA_PollForTransfer_40
??HAL_DMA_PollForTransfer_39:
        LDR.W    R12,??HAL_DMA_PollForTransfer_0+0x10  ;; 0x40026028
        CMP      R2,R12
        BEQ.N    ??HAL_DMA_PollForTransfer_41
        LDR.W    R12,??HAL_DMA_PollForTransfer_0+0x14  ;; 0x40026428
        CMP      R2,R12
        BEQ.N    ??HAL_DMA_PollForTransfer_41
        LDR.W    R12,??HAL_DMA_PollForTransfer_0+0x18  ;; 0x40026088
        CMP      R2,R12
        BEQ.N    ??HAL_DMA_PollForTransfer_41
        LDR.W    R12,??HAL_DMA_PollForTransfer_0+0x1C  ;; 0x40026488
        CMP      R2,R12
        BNE.N    ??HAL_DMA_PollForTransfer_42
??HAL_DMA_PollForTransfer_41:
        MOV      R12,#+512
        B.N      ??HAL_DMA_PollForTransfer_40
??HAL_DMA_PollForTransfer_42:
        LDR.W    R12,??HAL_DMA_PollForTransfer_0+0x20  ;; 0x40026040
        CMP      R2,R12
        BNE.N    ??HAL_DMA_PollForTransfer_43
        MOV      R12,#+524288
        B.N      ??HAL_DMA_PollForTransfer_40
??HAL_DMA_PollForTransfer_43:
        LDR.W    R12,??HAL_DMA_PollForTransfer_0+0x24  ;; 0x40026440
        CMP      R2,R12
        BNE.N    ??HAL_DMA_PollForTransfer_44
        MOV      R12,#+524288
        B.N      ??HAL_DMA_PollForTransfer_40
??HAL_DMA_PollForTransfer_44:
        LDR.W    R12,??HAL_DMA_PollForTransfer_0+0x28  ;; 0x400260a0
        CMP      R2,R12
        BNE.N    ??HAL_DMA_PollForTransfer_45
        MOV      R12,#+524288
        B.N      ??HAL_DMA_PollForTransfer_40
??HAL_DMA_PollForTransfer_45:
        LDR.W    R12,??HAL_DMA_PollForTransfer_10  ;; 0x400264a0
        CMP      R2,R12
        BNE.N    ??HAL_DMA_PollForTransfer_46
        MOV      R12,#+524288
        B.N      ??HAL_DMA_PollForTransfer_40
??HAL_DMA_PollForTransfer_46:
        MOV      R12,#+33554432
??HAL_DMA_PollForTransfer_40:
        AND      R3,R12,R3
        B.N      ??HAL_DMA_PollForTransfer_36
??HAL_DMA_PollForTransfer_37:
        LDR.W    LR,??HAL_DMA_PollForTransfer_10+0x10  ;; 0x40026000
        LDR.W    R3,??HAL_DMA_PollForTransfer_10+0x14  ;; 0x40026059
        CMP      R2,R3
        BCC.N    ??HAL_DMA_PollForTransfer_47
        LDR      R3,[LR, #+4]
        CMP      R2,R7
        BEQ.N    ??HAL_DMA_PollForTransfer_48
        LDR.W    R12,??HAL_DMA_PollForTransfer_0+0x4  ;; 0x40026410
        CMP      R2,R12
        BEQ.N    ??HAL_DMA_PollForTransfer_48
        LDR.W    R12,??HAL_DMA_PollForTransfer_0+0x8  ;; 0x40026070
        CMP      R2,R12
        BEQ.N    ??HAL_DMA_PollForTransfer_48
        LDR.W    R12,??HAL_DMA_PollForTransfer_0+0xC  ;; 0x40026470
        CMP      R2,R12
        BNE.N    ??HAL_DMA_PollForTransfer_49
??HAL_DMA_PollForTransfer_48:
        MOV      R12,#+8
        B.N      ??HAL_DMA_PollForTransfer_50
??HAL_DMA_PollForTransfer_49:
        LDR.W    R12,??HAL_DMA_PollForTransfer_0+0x10  ;; 0x40026028
        CMP      R2,R12
        BEQ.N    ??HAL_DMA_PollForTransfer_51
        LDR.W    R12,??HAL_DMA_PollForTransfer_0+0x14  ;; 0x40026428
        CMP      R2,R12
        BEQ.N    ??HAL_DMA_PollForTransfer_51
        LDR.W    R12,??HAL_DMA_PollForTransfer_0+0x18  ;; 0x40026088
        CMP      R2,R12
        BEQ.N    ??HAL_DMA_PollForTransfer_51
        LDR.W    R12,??HAL_DMA_PollForTransfer_0+0x1C  ;; 0x40026488
        CMP      R2,R12
        BNE.N    ??HAL_DMA_PollForTransfer_52
??HAL_DMA_PollForTransfer_51:
        MOV      R12,#+512
        B.N      ??HAL_DMA_PollForTransfer_50
??HAL_DMA_PollForTransfer_52:
        LDR.W    R12,??HAL_DMA_PollForTransfer_0+0x20  ;; 0x40026040
        CMP      R2,R12
        BNE.N    ??HAL_DMA_PollForTransfer_53
        MOV      R12,#+524288
        B.N      ??HAL_DMA_PollForTransfer_50
??HAL_DMA_PollForTransfer_53:
        LDR.W    R12,??HAL_DMA_PollForTransfer_0+0x24  ;; 0x40026440
        CMP      R2,R12
        BNE.N    ??HAL_DMA_PollForTransfer_54
        MOV      R12,#+524288
        B.N      ??HAL_DMA_PollForTransfer_50
??HAL_DMA_PollForTransfer_54:
        LDR.W    R12,??HAL_DMA_PollForTransfer_0+0x28  ;; 0x400260a0
        CMP      R2,R12
        BNE.N    ??HAL_DMA_PollForTransfer_55
        MOV      R12,#+524288
        B.N      ??HAL_DMA_PollForTransfer_50
??HAL_DMA_PollForTransfer_55:
        LDR.W    R12,??HAL_DMA_PollForTransfer_10  ;; 0x400264a0
        CMP      R2,R12
        BNE.N    ??HAL_DMA_PollForTransfer_56
        MOV      R12,#+524288
        B.N      ??HAL_DMA_PollForTransfer_50
??HAL_DMA_PollForTransfer_56:
        MOV      R12,#+33554432
??HAL_DMA_PollForTransfer_50:
        AND      R3,R12,R3
        B.N      ??HAL_DMA_PollForTransfer_36
??HAL_DMA_PollForTransfer_47:
        LDR      R3,[LR, #+0]
        CMP      R2,R7
        BEQ.N    ??HAL_DMA_PollForTransfer_57
        LDR.W    R12,??HAL_DMA_PollForTransfer_0+0x4  ;; 0x40026410
        CMP      R2,R12
        BEQ.N    ??HAL_DMA_PollForTransfer_57
        LDR.W    R12,??HAL_DMA_PollForTransfer_0+0x8  ;; 0x40026070
        CMP      R2,R12
        BEQ.N    ??HAL_DMA_PollForTransfer_57
        LDR.W    R12,??HAL_DMA_PollForTransfer_0+0xC  ;; 0x40026470
        CMP      R2,R12
        BNE.N    ??HAL_DMA_PollForTransfer_58
??HAL_DMA_PollForTransfer_57:
        MOV      R12,#+8
        B.N      ??HAL_DMA_PollForTransfer_59
??HAL_DMA_PollForTransfer_58:
        LDR.W    R12,??HAL_DMA_PollForTransfer_0+0x10  ;; 0x40026028
        CMP      R2,R12
        BEQ.N    ??HAL_DMA_PollForTransfer_60
        LDR.W    R12,??HAL_DMA_PollForTransfer_0+0x14  ;; 0x40026428
        CMP      R2,R12
        BEQ.N    ??HAL_DMA_PollForTransfer_60
        LDR.W    R12,??HAL_DMA_PollForTransfer_0+0x18  ;; 0x40026088
        CMP      R2,R12
        BEQ.N    ??HAL_DMA_PollForTransfer_60
        LDR.W    R12,??HAL_DMA_PollForTransfer_0+0x1C  ;; 0x40026488
        CMP      R2,R12
        BNE.N    ??HAL_DMA_PollForTransfer_61
??HAL_DMA_PollForTransfer_60:
        MOV      R12,#+512
        B.N      ??HAL_DMA_PollForTransfer_59
??HAL_DMA_PollForTransfer_61:
        LDR.W    R12,??HAL_DMA_PollForTransfer_0+0x20  ;; 0x40026040
        CMP      R2,R12
        BNE.N    ??HAL_DMA_PollForTransfer_62
        MOV      R12,#+524288
        B.N      ??HAL_DMA_PollForTransfer_59
??HAL_DMA_PollForTransfer_62:
        LDR.W    R12,??HAL_DMA_PollForTransfer_0+0x24  ;; 0x40026440
        CMP      R2,R12
        BNE.N    ??HAL_DMA_PollForTransfer_63
        MOV      R12,#+524288
        B.N      ??HAL_DMA_PollForTransfer_59
??HAL_DMA_PollForTransfer_63:
        LDR.W    R12,??HAL_DMA_PollForTransfer_0+0x28  ;; 0x400260a0
        CMP      R2,R12
        BNE.N    ??HAL_DMA_PollForTransfer_64
        MOV      R12,#+524288
        B.N      ??HAL_DMA_PollForTransfer_59
??HAL_DMA_PollForTransfer_64:
        LDR.W    R12,??HAL_DMA_PollForTransfer_10  ;; 0x400264a0
        CMP      R2,R12
        BNE.N    ??HAL_DMA_PollForTransfer_65
        MOV      R12,#+524288
        B.N      ??HAL_DMA_PollForTransfer_59
??HAL_DMA_PollForTransfer_65:
        MOV      R12,#+33554432
??HAL_DMA_PollForTransfer_59:
        AND      R3,R12,R3
//  544     tmp1 = __HAL_DMA_GET_FLAG(hdma, __HAL_DMA_GET_FE_FLAG_INDEX(hdma));
??HAL_DMA_PollForTransfer_36:
        CMP      R2,R1
        BCC.N    ??HAL_DMA_PollForTransfer_66
        LDR      R12,[R0, #+4]
        CMP      R2,R7
        BEQ.N    ??HAL_DMA_PollForTransfer_67
        LDR.W    LR,??HAL_DMA_PollForTransfer_0+0x4  ;; 0x40026410
        CMP      R2,LR
        BEQ.N    ??HAL_DMA_PollForTransfer_67
        LDR.W    LR,??HAL_DMA_PollForTransfer_0+0x8  ;; 0x40026070
        CMP      R2,LR
        BEQ.N    ??HAL_DMA_PollForTransfer_67
        LDR.W    LR,??HAL_DMA_PollForTransfer_0+0xC  ;; 0x40026470
        CMP      R2,LR
        BNE.N    ??HAL_DMA_PollForTransfer_68
??HAL_DMA_PollForTransfer_67:
        LDR.W    LR,??HAL_DMA_PollForTransfer_69  ;; 0x800001
        B.N      ??HAL_DMA_PollForTransfer_70
??HAL_DMA_PollForTransfer_68:
        LDR.W    LR,??HAL_DMA_PollForTransfer_0+0x10  ;; 0x40026028
        CMP      R2,LR
        BEQ.N    ??HAL_DMA_PollForTransfer_71
        LDR.W    LR,??HAL_DMA_PollForTransfer_0+0x14  ;; 0x40026428
        CMP      R2,LR
        BEQ.N    ??HAL_DMA_PollForTransfer_71
        LDR.W    LR,??HAL_DMA_PollForTransfer_0+0x18  ;; 0x40026088
        CMP      R2,LR
        BEQ.N    ??HAL_DMA_PollForTransfer_71
        LDR.W    LR,??HAL_DMA_PollForTransfer_0+0x1C  ;; 0x40026488
        CMP      R2,LR
        BNE.N    ??HAL_DMA_PollForTransfer_72
??HAL_DMA_PollForTransfer_71:
        MOV      LR,#+64
        B.N      ??HAL_DMA_PollForTransfer_70
??HAL_DMA_PollForTransfer_72:
        LDR.W    LR,??HAL_DMA_PollForTransfer_0+0x20  ;; 0x40026040
        CMP      R2,LR
        BNE.N    ??HAL_DMA_PollForTransfer_73
        MOV      LR,#+65536
        B.N      ??HAL_DMA_PollForTransfer_70
??HAL_DMA_PollForTransfer_73:
        LDR.W    LR,??HAL_DMA_PollForTransfer_0+0x24  ;; 0x40026440
        CMP      R2,LR
        BNE.N    ??HAL_DMA_PollForTransfer_74
        MOV      LR,#+65536
        B.N      ??HAL_DMA_PollForTransfer_70
??HAL_DMA_PollForTransfer_74:
        LDR.W    LR,??HAL_DMA_PollForTransfer_0+0x28  ;; 0x400260a0
        CMP      R2,LR
        BNE.N    ??HAL_DMA_PollForTransfer_75
        MOV      LR,#+65536
        B.N      ??HAL_DMA_PollForTransfer_70
??HAL_DMA_PollForTransfer_75:
        LDR.W    LR,??HAL_DMA_PollForTransfer_10  ;; 0x400264a0
        CMP      R2,LR
        BNE.N    ??HAL_DMA_PollForTransfer_76
        MOV      LR,#+65536
        B.N      ??HAL_DMA_PollForTransfer_70
??HAL_DMA_PollForTransfer_76:
        MOV      LR,#+4194304
??HAL_DMA_PollForTransfer_70:
        AND      R12,LR,R12
        B.N      ??HAL_DMA_PollForTransfer_77
??HAL_DMA_PollForTransfer_66:
        LDR.W    R12,??HAL_DMA_PollForTransfer_10+0xC  ;; 0x400260b9
        CMP      R2,R12
        BCC.N    ??HAL_DMA_PollForTransfer_78
        LDR      R12,[R0, #+0]
        CMP      R2,R7
        BEQ.N    ??HAL_DMA_PollForTransfer_79
        LDR.W    LR,??HAL_DMA_PollForTransfer_0+0x4  ;; 0x40026410
        CMP      R2,LR
        BEQ.N    ??HAL_DMA_PollForTransfer_79
        LDR.W    LR,??HAL_DMA_PollForTransfer_0+0x8  ;; 0x40026070
        CMP      R2,LR
        BEQ.N    ??HAL_DMA_PollForTransfer_79
        LDR.W    LR,??HAL_DMA_PollForTransfer_0+0xC  ;; 0x40026470
        CMP      R2,LR
        BNE.N    ??HAL_DMA_PollForTransfer_80
??HAL_DMA_PollForTransfer_79:
        LDR.W    LR,??HAL_DMA_PollForTransfer_69  ;; 0x800001
        B.N      ??HAL_DMA_PollForTransfer_81
??HAL_DMA_PollForTransfer_80:
        LDR.W    LR,??HAL_DMA_PollForTransfer_0+0x10  ;; 0x40026028
        CMP      R2,LR
        BEQ.N    ??HAL_DMA_PollForTransfer_82
        LDR.W    LR,??HAL_DMA_PollForTransfer_0+0x14  ;; 0x40026428
        CMP      R2,LR
        BEQ.N    ??HAL_DMA_PollForTransfer_82
        LDR.W    LR,??HAL_DMA_PollForTransfer_0+0x18  ;; 0x40026088
        CMP      R2,LR
        BEQ.N    ??HAL_DMA_PollForTransfer_82
        LDR.W    LR,??HAL_DMA_PollForTransfer_0+0x1C  ;; 0x40026488
        CMP      R2,LR
        BNE.N    ??HAL_DMA_PollForTransfer_83
??HAL_DMA_PollForTransfer_82:
        MOV      LR,#+64
        B.N      ??HAL_DMA_PollForTransfer_81
??HAL_DMA_PollForTransfer_83:
        LDR.W    LR,??HAL_DMA_PollForTransfer_0+0x20  ;; 0x40026040
        CMP      R2,LR
        BNE.N    ??HAL_DMA_PollForTransfer_84
        MOV      LR,#+65536
        B.N      ??HAL_DMA_PollForTransfer_81
??HAL_DMA_PollForTransfer_84:
        LDR.W    LR,??HAL_DMA_PollForTransfer_0+0x24  ;; 0x40026440
        CMP      R2,LR
        BNE.N    ??HAL_DMA_PollForTransfer_85
        MOV      LR,#+65536
        B.N      ??HAL_DMA_PollForTransfer_81
??HAL_DMA_PollForTransfer_85:
        LDR.W    LR,??HAL_DMA_PollForTransfer_0+0x28  ;; 0x400260a0
        CMP      R2,LR
        BNE.N    ??HAL_DMA_PollForTransfer_86
        MOV      LR,#+65536
        B.N      ??HAL_DMA_PollForTransfer_81
??HAL_DMA_PollForTransfer_86:
        LDR.W    LR,??HAL_DMA_PollForTransfer_10  ;; 0x400264a0
        CMP      R2,LR
        BNE.N    ??HAL_DMA_PollForTransfer_87
        MOV      LR,#+65536
        B.N      ??HAL_DMA_PollForTransfer_81
??HAL_DMA_PollForTransfer_87:
        MOV      LR,#+4194304
??HAL_DMA_PollForTransfer_81:
        AND      R12,LR,R12
        B.N      ??HAL_DMA_PollForTransfer_77
??HAL_DMA_PollForTransfer_78:
        LDR.W    LR,??HAL_DMA_PollForTransfer_10+0x10  ;; 0x40026000
        LDR.W    R12,??HAL_DMA_PollForTransfer_10+0x14  ;; 0x40026059
        CMP      R2,R12
        BCC.N    ??HAL_DMA_PollForTransfer_88
        LDR      R12,[LR, #+4]
        CMP      R2,R7
        BEQ.N    ??HAL_DMA_PollForTransfer_89
        LDR.W    LR,??HAL_DMA_PollForTransfer_0+0x4  ;; 0x40026410
        CMP      R2,LR
        BEQ.N    ??HAL_DMA_PollForTransfer_89
        LDR.W    LR,??HAL_DMA_PollForTransfer_0+0x8  ;; 0x40026070
        CMP      R2,LR
        BEQ.N    ??HAL_DMA_PollForTransfer_89
        LDR.W    LR,??HAL_DMA_PollForTransfer_0+0xC  ;; 0x40026470
        CMP      R2,LR
        BNE.N    ??HAL_DMA_PollForTransfer_90
??HAL_DMA_PollForTransfer_89:
        LDR.W    LR,??HAL_DMA_PollForTransfer_69  ;; 0x800001
        B.N      ??HAL_DMA_PollForTransfer_91
??HAL_DMA_PollForTransfer_90:
        LDR.W    LR,??HAL_DMA_PollForTransfer_0+0x10  ;; 0x40026028
        CMP      R2,LR
        BEQ.N    ??HAL_DMA_PollForTransfer_92
        LDR.W    LR,??HAL_DMA_PollForTransfer_0+0x14  ;; 0x40026428
        CMP      R2,LR
        BEQ.N    ??HAL_DMA_PollForTransfer_92
        LDR.W    LR,??HAL_DMA_PollForTransfer_0+0x18  ;; 0x40026088
        CMP      R2,LR
        BEQ.N    ??HAL_DMA_PollForTransfer_92
        LDR.W    LR,??HAL_DMA_PollForTransfer_0+0x1C  ;; 0x40026488
        CMP      R2,LR
        BNE.N    ??HAL_DMA_PollForTransfer_93
??HAL_DMA_PollForTransfer_92:
        MOV      LR,#+64
        B.N      ??HAL_DMA_PollForTransfer_91
??HAL_DMA_PollForTransfer_93:
        LDR.W    LR,??HAL_DMA_PollForTransfer_0+0x20  ;; 0x40026040
        CMP      R2,LR
        BNE.N    ??HAL_DMA_PollForTransfer_94
        MOV      LR,#+65536
        B.N      ??HAL_DMA_PollForTransfer_91
??HAL_DMA_PollForTransfer_94:
        LDR.W    LR,??HAL_DMA_PollForTransfer_0+0x24  ;; 0x40026440
        CMP      R2,LR
        BNE.N    ??HAL_DMA_PollForTransfer_95
        MOV      LR,#+65536
        B.N      ??HAL_DMA_PollForTransfer_91
??HAL_DMA_PollForTransfer_95:
        LDR.W    LR,??HAL_DMA_PollForTransfer_0+0x28  ;; 0x400260a0
        CMP      R2,LR
        BNE.N    ??HAL_DMA_PollForTransfer_96
        MOV      LR,#+65536
        B.N      ??HAL_DMA_PollForTransfer_91
??HAL_DMA_PollForTransfer_96:
        LDR.W    LR,??HAL_DMA_PollForTransfer_10  ;; 0x400264a0
        CMP      R2,LR
        BNE.N    ??HAL_DMA_PollForTransfer_97
        MOV      LR,#+65536
        B.N      ??HAL_DMA_PollForTransfer_91
??HAL_DMA_PollForTransfer_97:
        MOV      LR,#+4194304
??HAL_DMA_PollForTransfer_91:
        AND      R12,LR,R12
        B.N      ??HAL_DMA_PollForTransfer_77
??HAL_DMA_PollForTransfer_88:
        LDR      R12,[LR, #+0]
        CMP      R2,R7
        BEQ.N    ??HAL_DMA_PollForTransfer_98
        LDR.W    LR,??HAL_DMA_PollForTransfer_0+0x4  ;; 0x40026410
        CMP      R2,LR
        BEQ.N    ??HAL_DMA_PollForTransfer_98
        LDR.W    LR,??HAL_DMA_PollForTransfer_0+0x8  ;; 0x40026070
        CMP      R2,LR
        BEQ.N    ??HAL_DMA_PollForTransfer_98
        LDR.W    LR,??HAL_DMA_PollForTransfer_0+0xC  ;; 0x40026470
        CMP      R2,LR
        BNE.N    ??HAL_DMA_PollForTransfer_99
??HAL_DMA_PollForTransfer_98:
        LDR.W    LR,??HAL_DMA_PollForTransfer_69  ;; 0x800001
        B.N      ??HAL_DMA_PollForTransfer_100
??HAL_DMA_PollForTransfer_99:
        LDR.W    LR,??HAL_DMA_PollForTransfer_0+0x10  ;; 0x40026028
        CMP      R2,LR
        BEQ.N    ??HAL_DMA_PollForTransfer_101
        LDR.W    LR,??HAL_DMA_PollForTransfer_0+0x14  ;; 0x40026428
        CMP      R2,LR
        BEQ.N    ??HAL_DMA_PollForTransfer_101
        LDR.W    LR,??HAL_DMA_PollForTransfer_0+0x18  ;; 0x40026088
        CMP      R2,LR
        BEQ.N    ??HAL_DMA_PollForTransfer_101
        LDR.W    LR,??HAL_DMA_PollForTransfer_0+0x1C  ;; 0x40026488
        CMP      R2,LR
        BNE.N    ??HAL_DMA_PollForTransfer_102
??HAL_DMA_PollForTransfer_101:
        MOV      LR,#+64
        B.N      ??HAL_DMA_PollForTransfer_100
??HAL_DMA_PollForTransfer_102:
        LDR.W    LR,??HAL_DMA_PollForTransfer_0+0x20  ;; 0x40026040
        CMP      R2,LR
        BNE.N    ??HAL_DMA_PollForTransfer_103
        MOV      LR,#+65536
        B.N      ??HAL_DMA_PollForTransfer_100
??HAL_DMA_PollForTransfer_103:
        LDR.W    LR,??HAL_DMA_PollForTransfer_0+0x24  ;; 0x40026440
        CMP      R2,LR
        BNE.N    ??HAL_DMA_PollForTransfer_104
        MOV      LR,#+65536
        B.N      ??HAL_DMA_PollForTransfer_100
??HAL_DMA_PollForTransfer_104:
        LDR.W    LR,??HAL_DMA_PollForTransfer_0+0x28  ;; 0x400260a0
        CMP      R2,LR
        BNE.N    ??HAL_DMA_PollForTransfer_105
        MOV      LR,#+65536
        B.N      ??HAL_DMA_PollForTransfer_100
??HAL_DMA_PollForTransfer_105:
        LDR.W    LR,??HAL_DMA_PollForTransfer_10  ;; 0x400264a0
        CMP      R2,LR
        BNE.N    ??HAL_DMA_PollForTransfer_106
        MOV      LR,#+65536
        B.N      ??HAL_DMA_PollForTransfer_100
??HAL_DMA_PollForTransfer_106:
        MOV      LR,#+4194304
??HAL_DMA_PollForTransfer_100:
        AND      R12,LR,R12
//  545     tmp2 = __HAL_DMA_GET_FLAG(hdma, __HAL_DMA_GET_DME_FLAG_INDEX(hdma));
??HAL_DMA_PollForTransfer_77:
        CMP      R2,R1
        BCC.N    ??HAL_DMA_PollForTransfer_107
        LDR      LR,[R0, #+4]
        CMP      R2,R7
        BEQ.N    ??HAL_DMA_PollForTransfer_108
        LDR.W    R10,??HAL_DMA_PollForTransfer_0+0x4  ;; 0x40026410
        CMP      R2,R10
        BEQ.N    ??HAL_DMA_PollForTransfer_108
        LDR.W    R10,??HAL_DMA_PollForTransfer_0+0x8  ;; 0x40026070
        CMP      R2,R10
        BEQ.N    ??HAL_DMA_PollForTransfer_108
        LDR.W    R10,??HAL_DMA_PollForTransfer_0+0xC  ;; 0x40026470
        CMP      R2,R10
        BNE.N    ??HAL_DMA_PollForTransfer_109
??HAL_DMA_PollForTransfer_108:
        LDR.W    R2,??HAL_DMA_PollForTransfer_110  ;; 0x800004
        B.N      ??HAL_DMA_PollForTransfer_111
??HAL_DMA_PollForTransfer_109:
        LDR.W    R10,??HAL_DMA_PollForTransfer_0+0x10  ;; 0x40026028
        CMP      R2,R10
        BEQ.N    ??HAL_DMA_PollForTransfer_112
        LDR.W    R10,??HAL_DMA_PollForTransfer_0+0x14  ;; 0x40026428
        CMP      R2,R10
        BEQ.N    ??HAL_DMA_PollForTransfer_112
        LDR.W    R10,??HAL_DMA_PollForTransfer_0+0x18  ;; 0x40026088
        CMP      R2,R10
        BEQ.N    ??HAL_DMA_PollForTransfer_112
        LDR.W    R10,??HAL_DMA_PollForTransfer_0+0x1C  ;; 0x40026488
        CMP      R2,R10
        BNE.N    ??HAL_DMA_PollForTransfer_113
??HAL_DMA_PollForTransfer_112:
        MOV      R2,#+256
        B.N      ??HAL_DMA_PollForTransfer_111
??HAL_DMA_PollForTransfer_113:
        LDR.W    R10,??HAL_DMA_PollForTransfer_0+0x20  ;; 0x40026040
        CMP      R2,R10
        BNE.N    ??HAL_DMA_PollForTransfer_114
        MOV      R2,#+262144
        B.N      ??HAL_DMA_PollForTransfer_111
??HAL_DMA_PollForTransfer_114:
        LDR.W    R10,??HAL_DMA_PollForTransfer_0+0x24  ;; 0x40026440
        CMP      R2,R10
        BNE.N    ??HAL_DMA_PollForTransfer_115
        MOV      R2,#+262144
        B.N      ??HAL_DMA_PollForTransfer_111
??HAL_DMA_PollForTransfer_115:
        LDR.W    R10,??HAL_DMA_PollForTransfer_0+0x28  ;; 0x400260a0
        CMP      R2,R10
        BNE.N    ??HAL_DMA_PollForTransfer_116
        MOV      R2,#+262144
        B.N      ??HAL_DMA_PollForTransfer_111
??HAL_DMA_PollForTransfer_116:
        LDR.W    R10,??HAL_DMA_PollForTransfer_10  ;; 0x400264a0
        CMP      R2,R10
        BNE.N    ??HAL_DMA_PollForTransfer_117
        MOV      R2,#+262144
        B.N      ??HAL_DMA_PollForTransfer_111
??HAL_DMA_PollForTransfer_117:
        MOV      R2,#+16777216
??HAL_DMA_PollForTransfer_111:
        AND      R2,R2,LR
        B.N      ??HAL_DMA_PollForTransfer_118
??HAL_DMA_PollForTransfer_107:
        LDR.W    LR,??HAL_DMA_PollForTransfer_10+0xC  ;; 0x400260b9
        CMP      R2,LR
        BCC.N    ??HAL_DMA_PollForTransfer_119
        LDR      LR,[R0, #+0]
        CMP      R2,R7
        BEQ.N    ??HAL_DMA_PollForTransfer_120
        LDR.W    R10,??HAL_DMA_PollForTransfer_0+0x4  ;; 0x40026410
        CMP      R2,R10
        BEQ.N    ??HAL_DMA_PollForTransfer_120
        LDR.W    R10,??HAL_DMA_PollForTransfer_0+0x8  ;; 0x40026070
        CMP      R2,R10
        BEQ.N    ??HAL_DMA_PollForTransfer_120
        LDR.W    R10,??HAL_DMA_PollForTransfer_0+0xC  ;; 0x40026470
        CMP      R2,R10
        BNE.N    ??HAL_DMA_PollForTransfer_121
??HAL_DMA_PollForTransfer_120:
        LDR.W    R2,??HAL_DMA_PollForTransfer_110  ;; 0x800004
        B.N      ??HAL_DMA_PollForTransfer_122
??HAL_DMA_PollForTransfer_121:
        LDR.W    R10,??HAL_DMA_PollForTransfer_0+0x10  ;; 0x40026028
        CMP      R2,R10
        BEQ.N    ??HAL_DMA_PollForTransfer_123
        LDR.W    R10,??HAL_DMA_PollForTransfer_0+0x14  ;; 0x40026428
        CMP      R2,R10
        BEQ.N    ??HAL_DMA_PollForTransfer_123
        LDR.W    R10,??HAL_DMA_PollForTransfer_0+0x18  ;; 0x40026088
        CMP      R2,R10
        BEQ.N    ??HAL_DMA_PollForTransfer_123
        LDR.W    R10,??HAL_DMA_PollForTransfer_0+0x1C  ;; 0x40026488
        CMP      R2,R10
        BNE.N    ??HAL_DMA_PollForTransfer_124
??HAL_DMA_PollForTransfer_123:
        MOV      R2,#+256
        B.N      ??HAL_DMA_PollForTransfer_122
??HAL_DMA_PollForTransfer_124:
        LDR.W    R10,??HAL_DMA_PollForTransfer_0+0x20  ;; 0x40026040
        CMP      R2,R10
        BNE.N    ??HAL_DMA_PollForTransfer_125
        MOV      R2,#+262144
        B.N      ??HAL_DMA_PollForTransfer_122
??HAL_DMA_PollForTransfer_125:
        LDR.W    R10,??HAL_DMA_PollForTransfer_0+0x24  ;; 0x40026440
        CMP      R2,R10
        BNE.N    ??HAL_DMA_PollForTransfer_126
        MOV      R2,#+262144
        B.N      ??HAL_DMA_PollForTransfer_122
??HAL_DMA_PollForTransfer_126:
        LDR.W    R10,??HAL_DMA_PollForTransfer_0+0x28  ;; 0x400260a0
        CMP      R2,R10
        BNE.N    ??HAL_DMA_PollForTransfer_127
        MOV      R2,#+262144
        B.N      ??HAL_DMA_PollForTransfer_122
??HAL_DMA_PollForTransfer_127:
        LDR.W    R10,??HAL_DMA_PollForTransfer_10  ;; 0x400264a0
        CMP      R2,R10
        BNE.N    ??HAL_DMA_PollForTransfer_128
        MOV      R2,#+262144
        B.N      ??HAL_DMA_PollForTransfer_122
??HAL_DMA_PollForTransfer_128:
        MOV      R2,#+16777216
??HAL_DMA_PollForTransfer_122:
        AND      R2,R2,LR
        B.N      ??HAL_DMA_PollForTransfer_118
??HAL_DMA_PollForTransfer_119:
        LDR.W    LR,??HAL_DMA_PollForTransfer_10+0x10  ;; 0x40026000
        LDR.W    R10,??HAL_DMA_PollForTransfer_10+0x14  ;; 0x40026059
        CMP      R2,R10
        BCC.N    ??HAL_DMA_PollForTransfer_129
        LDR      LR,[LR, #+4]
        CMP      R2,R7
        BEQ.N    ??HAL_DMA_PollForTransfer_130
        LDR.W    R10,??HAL_DMA_PollForTransfer_0+0x4  ;; 0x40026410
        CMP      R2,R10
        BEQ.N    ??HAL_DMA_PollForTransfer_130
        LDR.W    R10,??HAL_DMA_PollForTransfer_0+0x8  ;; 0x40026070
        CMP      R2,R10
        BEQ.N    ??HAL_DMA_PollForTransfer_130
        LDR.W    R10,??HAL_DMA_PollForTransfer_0+0xC  ;; 0x40026470
        CMP      R2,R10
        BNE.N    ??HAL_DMA_PollForTransfer_131
??HAL_DMA_PollForTransfer_130:
        LDR.W    R2,??HAL_DMA_PollForTransfer_110  ;; 0x800004
        B.N      ??HAL_DMA_PollForTransfer_132
??HAL_DMA_PollForTransfer_131:
        LDR.W    R10,??HAL_DMA_PollForTransfer_0+0x10  ;; 0x40026028
        CMP      R2,R10
        BEQ.N    ??HAL_DMA_PollForTransfer_133
        LDR.W    R10,??HAL_DMA_PollForTransfer_0+0x14  ;; 0x40026428
        CMP      R2,R10
        BEQ.N    ??HAL_DMA_PollForTransfer_133
        LDR.W    R10,??HAL_DMA_PollForTransfer_0+0x18  ;; 0x40026088
        CMP      R2,R10
        BEQ.N    ??HAL_DMA_PollForTransfer_133
        LDR.W    R10,??HAL_DMA_PollForTransfer_0+0x1C  ;; 0x40026488
        CMP      R2,R10
        BNE.N    ??HAL_DMA_PollForTransfer_134
??HAL_DMA_PollForTransfer_133:
        MOV      R2,#+256
        B.N      ??HAL_DMA_PollForTransfer_132
??HAL_DMA_PollForTransfer_134:
        LDR.W    R10,??HAL_DMA_PollForTransfer_0+0x20  ;; 0x40026040
        CMP      R2,R10
        BNE.N    ??HAL_DMA_PollForTransfer_135
        MOV      R2,#+262144
        B.N      ??HAL_DMA_PollForTransfer_132
??HAL_DMA_PollForTransfer_135:
        LDR.W    R10,??HAL_DMA_PollForTransfer_0+0x24  ;; 0x40026440
        CMP      R2,R10
        BNE.N    ??HAL_DMA_PollForTransfer_136
        MOV      R2,#+262144
        B.N      ??HAL_DMA_PollForTransfer_132
??HAL_DMA_PollForTransfer_136:
        LDR.W    R10,??HAL_DMA_PollForTransfer_0+0x28  ;; 0x400260a0
        CMP      R2,R10
        BNE.N    ??HAL_DMA_PollForTransfer_137
        MOV      R2,#+262144
        B.N      ??HAL_DMA_PollForTransfer_132
??HAL_DMA_PollForTransfer_137:
        LDR.W    R10,??HAL_DMA_PollForTransfer_10  ;; 0x400264a0
        CMP      R2,R10
        BNE.N    ??HAL_DMA_PollForTransfer_138
        MOV      R2,#+262144
        B.N      ??HAL_DMA_PollForTransfer_132
??HAL_DMA_PollForTransfer_138:
        MOV      R2,#+16777216
??HAL_DMA_PollForTransfer_132:
        AND      R2,R2,LR
        B.N      ??HAL_DMA_PollForTransfer_118
??HAL_DMA_PollForTransfer_129:
        LDR      LR,[LR, #+0]
        CMP      R2,R7
        BEQ.N    ??HAL_DMA_PollForTransfer_139
        LDR.W    R10,??HAL_DMA_PollForTransfer_0+0x4  ;; 0x40026410
        CMP      R2,R10
        BEQ.N    ??HAL_DMA_PollForTransfer_139
        LDR.W    R10,??HAL_DMA_PollForTransfer_0+0x8  ;; 0x40026070
        CMP      R2,R10
        BEQ.N    ??HAL_DMA_PollForTransfer_139
        LDR.W    R10,??HAL_DMA_PollForTransfer_0+0xC  ;; 0x40026470
        CMP      R2,R10
        BNE.N    ??HAL_DMA_PollForTransfer_140
??HAL_DMA_PollForTransfer_139:
        LDR.W    R2,??HAL_DMA_PollForTransfer_110  ;; 0x800004
        B.N      ??HAL_DMA_PollForTransfer_141
??HAL_DMA_PollForTransfer_140:
        LDR.W    R10,??HAL_DMA_PollForTransfer_0+0x10  ;; 0x40026028
        CMP      R2,R10
        BEQ.N    ??HAL_DMA_PollForTransfer_142
        LDR.W    R10,??HAL_DMA_PollForTransfer_0+0x14  ;; 0x40026428
        CMP      R2,R10
        BEQ.N    ??HAL_DMA_PollForTransfer_142
        LDR.W    R10,??HAL_DMA_PollForTransfer_0+0x18  ;; 0x40026088
        CMP      R2,R10
        BEQ.N    ??HAL_DMA_PollForTransfer_142
        LDR.W    R10,??HAL_DMA_PollForTransfer_0+0x1C  ;; 0x40026488
        CMP      R2,R10
        BNE.N    ??HAL_DMA_PollForTransfer_143
??HAL_DMA_PollForTransfer_142:
        MOV      R2,#+256
        B.N      ??HAL_DMA_PollForTransfer_141
??HAL_DMA_PollForTransfer_143:
        LDR.W    R10,??HAL_DMA_PollForTransfer_0+0x20  ;; 0x40026040
        CMP      R2,R10
        BNE.N    ??HAL_DMA_PollForTransfer_144
        MOV      R2,#+262144
        B.N      ??HAL_DMA_PollForTransfer_141
??HAL_DMA_PollForTransfer_144:
        LDR.W    R10,??HAL_DMA_PollForTransfer_0+0x24  ;; 0x40026440
        CMP      R2,R10
        BNE.N    ??HAL_DMA_PollForTransfer_145
        MOV      R2,#+262144
        B.N      ??HAL_DMA_PollForTransfer_141
??HAL_DMA_PollForTransfer_145:
        LDR.W    R10,??HAL_DMA_PollForTransfer_0+0x28  ;; 0x400260a0
        CMP      R2,R10
        BNE.N    ??HAL_DMA_PollForTransfer_146
        MOV      R2,#+262144
        B.N      ??HAL_DMA_PollForTransfer_141
??HAL_DMA_PollForTransfer_146:
        LDR.W    R10,??HAL_DMA_PollForTransfer_10  ;; 0x400264a0
        CMP      R2,R10
        BNE.N    ??HAL_DMA_PollForTransfer_147
        MOV      R2,#+262144
        B.N      ??HAL_DMA_PollForTransfer_141
??HAL_DMA_PollForTransfer_147:
        MOV      R2,#+16777216
??HAL_DMA_PollForTransfer_141:
        AND      R2,R2,LR
//  546     if((tmp != RESET) || (tmp1 != RESET) || (tmp2 != RESET))
??HAL_DMA_PollForTransfer_118:
        ORR      LR,R12,R3
        ORRS     LR,R2,LR
        BEQ.W    ??HAL_DMA_PollForTransfer_148
//  547     {
//  548       if(tmp != RESET)
        ADD      R5,R4,#+52
        CMP      R3,#+0
        BEQ.W    ??HAL_DMA_PollForTransfer_149
//  549       {
//  550         /* Update error code */
//  551         hdma->ErrorCode |= HAL_DMA_ERROR_TE;
        LDR      R3,[R5, #+24]
        ORR      R3,R3,#0x1
        STR      R3,[R5, #+24]
//  552 
//  553         /* Clear the transfer error flag */
//  554         __HAL_DMA_CLEAR_FLAG(hdma, __HAL_DMA_GET_TE_FLAG_INDEX(hdma));
        LDR      R3,[R4, #+0]
        CMP      R3,R1
        BCC.N    ??HAL_DMA_PollForTransfer_150
        CMP      R3,R7
        BEQ.N    ??HAL_DMA_PollForTransfer_151
        LDR.N    R6,??HAL_DMA_PollForTransfer_0+0x4  ;; 0x40026410
        CMP      R3,R6
        BEQ.N    ??HAL_DMA_PollForTransfer_151
        LDR.N    R6,??HAL_DMA_PollForTransfer_0+0x8  ;; 0x40026070
        CMP      R3,R6
        BEQ.N    ??HAL_DMA_PollForTransfer_151
        LDR.N    R6,??HAL_DMA_PollForTransfer_0+0xC  ;; 0x40026470
        CMP      R3,R6
        BNE.N    ??HAL_DMA_PollForTransfer_152
??HAL_DMA_PollForTransfer_151:
        MOVS     R3,#+8
        B.N      ??HAL_DMA_PollForTransfer_153
??HAL_DMA_PollForTransfer_152:
        LDR.N    R6,??HAL_DMA_PollForTransfer_0+0x10  ;; 0x40026028
        CMP      R3,R6
        BEQ.N    ??HAL_DMA_PollForTransfer_154
        LDR.N    R6,??HAL_DMA_PollForTransfer_0+0x14  ;; 0x40026428
        CMP      R3,R6
        BEQ.N    ??HAL_DMA_PollForTransfer_154
        LDR.N    R6,??HAL_DMA_PollForTransfer_0+0x18  ;; 0x40026088
        CMP      R3,R6
        BEQ.N    ??HAL_DMA_PollForTransfer_154
        LDR.N    R6,??HAL_DMA_PollForTransfer_0+0x1C  ;; 0x40026488
        CMP      R3,R6
        BNE.N    ??HAL_DMA_PollForTransfer_155
??HAL_DMA_PollForTransfer_154:
        MOV      R3,#+512
        B.N      ??HAL_DMA_PollForTransfer_153
??HAL_DMA_PollForTransfer_155:
        LDR.N    R6,??HAL_DMA_PollForTransfer_0+0x20  ;; 0x40026040
        CMP      R3,R6
        BNE.N    ??HAL_DMA_PollForTransfer_156
        MOV      R3,#+524288
        B.N      ??HAL_DMA_PollForTransfer_153
??HAL_DMA_PollForTransfer_156:
        LDR.N    R6,??HAL_DMA_PollForTransfer_0+0x24  ;; 0x40026440
        CMP      R3,R6
        BNE.N    ??HAL_DMA_PollForTransfer_157
        MOV      R3,#+524288
        B.N      ??HAL_DMA_PollForTransfer_153
??HAL_DMA_PollForTransfer_157:
        LDR.N    R6,??HAL_DMA_PollForTransfer_0+0x28  ;; 0x400260a0
        CMP      R3,R6
        BNE.N    ??HAL_DMA_PollForTransfer_158
        MOV      R3,#+524288
        B.N      ??HAL_DMA_PollForTransfer_153
??HAL_DMA_PollForTransfer_158:
        LDR.W    R6,??HAL_DMA_PollForTransfer_10  ;; 0x400264a0
        CMP      R3,R6
        BNE.N    ??HAL_DMA_PollForTransfer_159
        MOV      R3,#+524288
        B.N      ??HAL_DMA_PollForTransfer_153
??HAL_DMA_PollForTransfer_159:
        MOV      R3,#+33554432
??HAL_DMA_PollForTransfer_153:
        STR      R3,[R0, #+12]
        B.N      ??HAL_DMA_PollForTransfer_149
??HAL_DMA_PollForTransfer_150:
        LDR.W    R6,??HAL_DMA_PollForTransfer_10+0xC  ;; 0x400260b9
        CMP      R3,R6
        BCC.N    ??HAL_DMA_PollForTransfer_160
        CMP      R3,R7
        BEQ.N    ??HAL_DMA_PollForTransfer_161
        LDR.N    R6,??HAL_DMA_PollForTransfer_0+0x4  ;; 0x40026410
        CMP      R3,R6
        BEQ.N    ??HAL_DMA_PollForTransfer_161
        LDR.N    R6,??HAL_DMA_PollForTransfer_0+0x8  ;; 0x40026070
        CMP      R3,R6
        BEQ.N    ??HAL_DMA_PollForTransfer_161
        LDR.N    R6,??HAL_DMA_PollForTransfer_0+0xC  ;; 0x40026470
        CMP      R3,R6
        BNE.N    ??HAL_DMA_PollForTransfer_162
??HAL_DMA_PollForTransfer_161:
        MOVS     R3,#+8
        B.N      ??HAL_DMA_PollForTransfer_163
??HAL_DMA_PollForTransfer_162:
        LDR.N    R6,??HAL_DMA_PollForTransfer_0+0x10  ;; 0x40026028
        CMP      R3,R6
        BEQ.N    ??HAL_DMA_PollForTransfer_164
        LDR.N    R6,??HAL_DMA_PollForTransfer_0+0x14  ;; 0x40026428
        CMP      R3,R6
        BEQ.N    ??HAL_DMA_PollForTransfer_164
        LDR.N    R6,??HAL_DMA_PollForTransfer_0+0x18  ;; 0x40026088
        CMP      R3,R6
        BEQ.N    ??HAL_DMA_PollForTransfer_164
        LDR.N    R6,??HAL_DMA_PollForTransfer_0+0x1C  ;; 0x40026488
        CMP      R3,R6
        BNE.N    ??HAL_DMA_PollForTransfer_165
??HAL_DMA_PollForTransfer_164:
        MOV      R3,#+512
        B.N      ??HAL_DMA_PollForTransfer_163
??HAL_DMA_PollForTransfer_165:
        LDR.N    R6,??HAL_DMA_PollForTransfer_0+0x20  ;; 0x40026040
        CMP      R3,R6
        BNE.N    ??HAL_DMA_PollForTransfer_166
        MOV      R3,#+524288
        B.N      ??HAL_DMA_PollForTransfer_163
??HAL_DMA_PollForTransfer_166:
        LDR.N    R6,??HAL_DMA_PollForTransfer_0+0x24  ;; 0x40026440
        CMP      R3,R6
        BNE.N    ??HAL_DMA_PollForTransfer_167
        MOV      R3,#+524288
        B.N      ??HAL_DMA_PollForTransfer_163
??HAL_DMA_PollForTransfer_167:
        LDR.N    R6,??HAL_DMA_PollForTransfer_0+0x28  ;; 0x400260a0
        CMP      R3,R6
        BNE.N    ??HAL_DMA_PollForTransfer_168
        MOV      R3,#+524288
        B.N      ??HAL_DMA_PollForTransfer_163
??HAL_DMA_PollForTransfer_168:
        LDR.W    R6,??HAL_DMA_PollForTransfer_10  ;; 0x400264a0
        CMP      R3,R6
        BNE.N    ??HAL_DMA_PollForTransfer_169
        MOV      R3,#+524288
        B.N      ??HAL_DMA_PollForTransfer_163
??HAL_DMA_PollForTransfer_169:
        MOV      R3,#+33554432
??HAL_DMA_PollForTransfer_163:
        STR      R3,[R0, #+8]
        B.N      ??HAL_DMA_PollForTransfer_149
??HAL_DMA_PollForTransfer_160:
        LDR.W    R6,??HAL_DMA_PollForTransfer_10+0x14  ;; 0x40026059
        CMP      R3,R6
        BCC.N    ??HAL_DMA_PollForTransfer_170
        CMP      R3,R7
        BEQ.N    ??HAL_DMA_PollForTransfer_171
        LDR.N    R6,??HAL_DMA_PollForTransfer_0+0x4  ;; 0x40026410
        CMP      R3,R6
        BEQ.N    ??HAL_DMA_PollForTransfer_171
        LDR.N    R6,??HAL_DMA_PollForTransfer_0+0x8  ;; 0x40026070
        CMP      R3,R6
        BEQ.N    ??HAL_DMA_PollForTransfer_171
        LDR.N    R6,??HAL_DMA_PollForTransfer_0+0xC  ;; 0x40026470
        CMP      R3,R6
        BNE.N    ??HAL_DMA_PollForTransfer_172
??HAL_DMA_PollForTransfer_171:
        MOVS     R3,#+8
        B.N      ??HAL_DMA_PollForTransfer_173
??HAL_DMA_PollForTransfer_172:
        LDR.N    R6,??HAL_DMA_PollForTransfer_0+0x10  ;; 0x40026028
        CMP      R3,R6
        BEQ.N    ??HAL_DMA_PollForTransfer_174
        LDR.N    R6,??HAL_DMA_PollForTransfer_0+0x14  ;; 0x40026428
        CMP      R3,R6
        BEQ.N    ??HAL_DMA_PollForTransfer_174
        LDR.N    R6,??HAL_DMA_PollForTransfer_0+0x18  ;; 0x40026088
        CMP      R3,R6
        BEQ.N    ??HAL_DMA_PollForTransfer_174
        LDR.N    R6,??HAL_DMA_PollForTransfer_0+0x1C  ;; 0x40026488
        CMP      R3,R6
        BNE.N    ??HAL_DMA_PollForTransfer_175
??HAL_DMA_PollForTransfer_174:
        MOV      R3,#+512
        B.N      ??HAL_DMA_PollForTransfer_173
??HAL_DMA_PollForTransfer_175:
        LDR.N    R6,??HAL_DMA_PollForTransfer_0+0x20  ;; 0x40026040
        CMP      R3,R6
        BNE.N    ??HAL_DMA_PollForTransfer_176
        MOV      R3,#+524288
        B.N      ??HAL_DMA_PollForTransfer_173
??HAL_DMA_PollForTransfer_176:
        LDR.N    R6,??HAL_DMA_PollForTransfer_0+0x24  ;; 0x40026440
        CMP      R3,R6
        BNE.N    ??HAL_DMA_PollForTransfer_177
        MOV      R3,#+524288
        B.N      ??HAL_DMA_PollForTransfer_173
??HAL_DMA_PollForTransfer_177:
        LDR.N    R6,??HAL_DMA_PollForTransfer_0+0x28  ;; 0x400260a0
        CMP      R3,R6
        BNE.N    ??HAL_DMA_PollForTransfer_178
        MOV      R3,#+524288
        B.N      ??HAL_DMA_PollForTransfer_173
??HAL_DMA_PollForTransfer_178:
        LDR.N    R6,??HAL_DMA_PollForTransfer_10  ;; 0x400264a0
        CMP      R3,R6
        BNE.N    ??HAL_DMA_PollForTransfer_179
        MOV      R3,#+524288
        B.N      ??HAL_DMA_PollForTransfer_173
??HAL_DMA_PollForTransfer_179:
        MOV      R3,#+33554432
??HAL_DMA_PollForTransfer_173:
        LDR.N    R6,??HAL_DMA_PollForTransfer_10+0x10  ;; 0x40026000
        STR      R3,[R6, #+12]
        B.N      ??HAL_DMA_PollForTransfer_149
??HAL_DMA_PollForTransfer_170:
        CMP      R3,R7
        BEQ.N    ??HAL_DMA_PollForTransfer_180
        LDR.N    R6,??HAL_DMA_PollForTransfer_0+0x4  ;; 0x40026410
        CMP      R3,R6
        BEQ.N    ??HAL_DMA_PollForTransfer_180
        LDR.N    R6,??HAL_DMA_PollForTransfer_0+0x8  ;; 0x40026070
        CMP      R3,R6
        BEQ.N    ??HAL_DMA_PollForTransfer_180
        LDR.N    R6,??HAL_DMA_PollForTransfer_0+0xC  ;; 0x40026470
        CMP      R3,R6
        BNE.N    ??HAL_DMA_PollForTransfer_181
??HAL_DMA_PollForTransfer_180:
        MOVS     R3,#+8
        B.N      ??HAL_DMA_PollForTransfer_182
??HAL_DMA_PollForTransfer_181:
        LDR.N    R6,??HAL_DMA_PollForTransfer_0+0x10  ;; 0x40026028
        CMP      R3,R6
        BEQ.N    ??HAL_DMA_PollForTransfer_183
        LDR.N    R6,??HAL_DMA_PollForTransfer_0+0x14  ;; 0x40026428
        CMP      R3,R6
        BEQ.N    ??HAL_DMA_PollForTransfer_183
        LDR.N    R6,??HAL_DMA_PollForTransfer_0+0x18  ;; 0x40026088
        CMP      R3,R6
        BEQ.N    ??HAL_DMA_PollForTransfer_183
        LDR.N    R6,??HAL_DMA_PollForTransfer_0+0x1C  ;; 0x40026488
        CMP      R3,R6
        BNE.N    ??HAL_DMA_PollForTransfer_184
??HAL_DMA_PollForTransfer_183:
        MOV      R3,#+512
        B.N      ??HAL_DMA_PollForTransfer_182
??HAL_DMA_PollForTransfer_184:
        LDR.N    R6,??HAL_DMA_PollForTransfer_0+0x20  ;; 0x40026040
        CMP      R3,R6
        BNE.N    ??HAL_DMA_PollForTransfer_185
        MOV      R3,#+524288
        B.N      ??HAL_DMA_PollForTransfer_182
??HAL_DMA_PollForTransfer_185:
        LDR.N    R6,??HAL_DMA_PollForTransfer_0+0x24  ;; 0x40026440
        CMP      R3,R6
        BNE.N    ??HAL_DMA_PollForTransfer_186
        MOV      R3,#+524288
        B.N      ??HAL_DMA_PollForTransfer_182
??HAL_DMA_PollForTransfer_186:
        LDR.N    R6,??HAL_DMA_PollForTransfer_0+0x28  ;; 0x400260a0
        CMP      R3,R6
        BNE.N    ??HAL_DMA_PollForTransfer_187
        MOV      R3,#+524288
        B.N      ??HAL_DMA_PollForTransfer_182
??HAL_DMA_PollForTransfer_187:
        LDR.N    R6,??HAL_DMA_PollForTransfer_10  ;; 0x400264a0
        CMP      R3,R6
        BNE.N    ??HAL_DMA_PollForTransfer_188
        MOV      R3,#+524288
        B.N      ??HAL_DMA_PollForTransfer_182
??HAL_DMA_PollForTransfer_188:
        MOV      R3,#+33554432
??HAL_DMA_PollForTransfer_182:
        LDR.N    R6,??HAL_DMA_PollForTransfer_10+0x10  ;; 0x40026000
        STR      R3,[R6, #+8]
//  555       }
//  556       if(tmp1 != RESET)
??HAL_DMA_PollForTransfer_149:
        CMP      R12,#+0
        BEQ.W    ??HAL_DMA_PollForTransfer_189
//  557       {
//  558         /* Update error code */
//  559         hdma->ErrorCode |= HAL_DMA_ERROR_FE;
        LDR      R3,[R5, #+24]
        ORR      R3,R3,#0x2
        STR      R3,[R5, #+24]
//  560  
//  561         /* Clear the FIFO error flag */
//  562         __HAL_DMA_CLEAR_FLAG(hdma, __HAL_DMA_GET_FE_FLAG_INDEX(hdma));
        LDR      R3,[R4, #+0]
        CMP      R3,R1
        BCC.N    ??HAL_DMA_PollForTransfer_190
        CMP      R3,R7
        BEQ.N    ??HAL_DMA_PollForTransfer_191
        LDR.N    R6,??HAL_DMA_PollForTransfer_0+0x4  ;; 0x40026410
        CMP      R3,R6
        BEQ.N    ??HAL_DMA_PollForTransfer_191
        LDR.N    R6,??HAL_DMA_PollForTransfer_0+0x8  ;; 0x40026070
        CMP      R3,R6
        BEQ.N    ??HAL_DMA_PollForTransfer_191
        LDR.N    R6,??HAL_DMA_PollForTransfer_0+0xC  ;; 0x40026470
        CMP      R3,R6
        BNE.N    ??HAL_DMA_PollForTransfer_192
??HAL_DMA_PollForTransfer_191:
        LDR.W    R3,??HAL_DMA_PollForTransfer_69  ;; 0x800001
        B.N      ??HAL_DMA_PollForTransfer_193
??HAL_DMA_PollForTransfer_192:
        LDR.N    R6,??HAL_DMA_PollForTransfer_0+0x10  ;; 0x40026028
        CMP      R3,R6
        BEQ.N    ??HAL_DMA_PollForTransfer_194
        LDR.N    R6,??HAL_DMA_PollForTransfer_0+0x14  ;; 0x40026428
        CMP      R3,R6
        BEQ.N    ??HAL_DMA_PollForTransfer_194
        LDR.N    R6,??HAL_DMA_PollForTransfer_0+0x18  ;; 0x40026088
        CMP      R3,R6
        BEQ.N    ??HAL_DMA_PollForTransfer_194
        LDR.N    R6,??HAL_DMA_PollForTransfer_0+0x1C  ;; 0x40026488
        CMP      R3,R6
        BNE.N    ??HAL_DMA_PollForTransfer_195
??HAL_DMA_PollForTransfer_194:
        MOVS     R3,#+64
        B.N      ??HAL_DMA_PollForTransfer_193
??HAL_DMA_PollForTransfer_195:
        LDR.N    R6,??HAL_DMA_PollForTransfer_0+0x20  ;; 0x40026040
        CMP      R3,R6
        BNE.N    ??HAL_DMA_PollForTransfer_196
        MOV      R3,#+65536
        B.N      ??HAL_DMA_PollForTransfer_193
??HAL_DMA_PollForTransfer_196:
        LDR.N    R6,??HAL_DMA_PollForTransfer_0+0x24  ;; 0x40026440
        CMP      R3,R6
        BNE.N    ??HAL_DMA_PollForTransfer_197
        MOV      R3,#+65536
        B.N      ??HAL_DMA_PollForTransfer_193
??HAL_DMA_PollForTransfer_197:
        LDR.N    R6,??HAL_DMA_PollForTransfer_0+0x28  ;; 0x400260a0
        CMP      R3,R6
        BNE.N    ??HAL_DMA_PollForTransfer_198
        MOV      R3,#+65536
        B.N      ??HAL_DMA_PollForTransfer_193
??HAL_DMA_PollForTransfer_198:
        LDR.N    R6,??HAL_DMA_PollForTransfer_10  ;; 0x400264a0
        CMP      R3,R6
        BNE.N    ??HAL_DMA_PollForTransfer_199
        MOV      R3,#+65536
        B.N      ??HAL_DMA_PollForTransfer_193
??HAL_DMA_PollForTransfer_199:
        MOV      R3,#+4194304
??HAL_DMA_PollForTransfer_193:
        STR      R3,[R0, #+12]
        B.N      ??HAL_DMA_PollForTransfer_189
??HAL_DMA_PollForTransfer_190:
        LDR.N    R6,??HAL_DMA_PollForTransfer_10+0xC  ;; 0x400260b9
        CMP      R3,R6
        BCC.N    ??HAL_DMA_PollForTransfer_200
        CMP      R3,R7
        BEQ.N    ??HAL_DMA_PollForTransfer_201
        LDR.N    R6,??HAL_DMA_PollForTransfer_0+0x4  ;; 0x40026410
        CMP      R3,R6
        BEQ.N    ??HAL_DMA_PollForTransfer_201
        LDR.N    R6,??HAL_DMA_PollForTransfer_0+0x8  ;; 0x40026070
        CMP      R3,R6
        BEQ.N    ??HAL_DMA_PollForTransfer_201
        LDR.N    R6,??HAL_DMA_PollForTransfer_0+0xC  ;; 0x40026470
        CMP      R3,R6
        BNE.N    ??HAL_DMA_PollForTransfer_202
??HAL_DMA_PollForTransfer_201:
        LDR.W    R3,??HAL_DMA_PollForTransfer_69  ;; 0x800001
        B.N      ??HAL_DMA_PollForTransfer_203
        Nop      
        DATA
??HAL_DMA_PollForTransfer_0:
        DC32     0x40026010
        DC32     0x40026410
        DC32     0x40026070
        DC32     0x40026470
        DC32     0x40026028
        DC32     0x40026428
        DC32     0x40026088
        DC32     0x40026488
        DC32     0x40026040
        DC32     0x40026440
        DC32     0x400260a0
        THUMB
??HAL_DMA_PollForTransfer_202:
        LDR.W    R6,??HAL_DMA_PollForTransfer_204  ;; 0x40026028
        CMP      R3,R6
        BEQ.N    ??HAL_DMA_PollForTransfer_205
        LDR.W    R6,??HAL_DMA_PollForTransfer_204+0x4  ;; 0x40026428
        CMP      R3,R6
        BEQ.N    ??HAL_DMA_PollForTransfer_205
        LDR.W    R6,??HAL_DMA_PollForTransfer_204+0x8  ;; 0x40026088
        CMP      R3,R6
        BEQ.N    ??HAL_DMA_PollForTransfer_205
        LDR.W    R6,??HAL_DMA_PollForTransfer_204+0xC  ;; 0x40026488
        CMP      R3,R6
        BNE.N    ??HAL_DMA_PollForTransfer_206
??HAL_DMA_PollForTransfer_205:
        MOVS     R3,#+64
        B.N      ??HAL_DMA_PollForTransfer_203
??HAL_DMA_PollForTransfer_206:
        LDR.W    R6,??HAL_DMA_PollForTransfer_204+0x10  ;; 0x40026040
        CMP      R3,R6
        BNE.N    ??HAL_DMA_PollForTransfer_207
        MOV      R3,#+65536
        B.N      ??HAL_DMA_PollForTransfer_203
??HAL_DMA_PollForTransfer_207:
        LDR.W    R6,??HAL_DMA_PollForTransfer_204+0x14  ;; 0x40026440
        CMP      R3,R6
        BNE.N    ??HAL_DMA_PollForTransfer_208
        MOV      R3,#+65536
        B.N      ??HAL_DMA_PollForTransfer_203
??HAL_DMA_PollForTransfer_208:
        LDR.W    R6,??HAL_DMA_PollForTransfer_204+0x18  ;; 0x400260a0
        CMP      R3,R6
        BNE.N    ??HAL_DMA_PollForTransfer_209
        MOV      R3,#+65536
        B.N      ??HAL_DMA_PollForTransfer_203
??HAL_DMA_PollForTransfer_209:
        LDR.N    R6,??HAL_DMA_PollForTransfer_10  ;; 0x400264a0
        CMP      R3,R6
        BNE.N    ??HAL_DMA_PollForTransfer_210
        MOV      R3,#+65536
        B.N      ??HAL_DMA_PollForTransfer_203
??HAL_DMA_PollForTransfer_210:
        MOV      R3,#+4194304
??HAL_DMA_PollForTransfer_203:
        STR      R3,[R0, #+8]
        B.N      ??HAL_DMA_PollForTransfer_189
??HAL_DMA_PollForTransfer_200:
        LDR.N    R6,??HAL_DMA_PollForTransfer_10+0x14  ;; 0x40026059
        CMP      R3,R6
        BCC.N    ??HAL_DMA_PollForTransfer_211
        CMP      R3,R7
        BEQ.N    ??HAL_DMA_PollForTransfer_212
        LDR.W    R6,??HAL_DMA_PollForTransfer_204+0x1C  ;; 0x40026410
        CMP      R3,R6
        BEQ.N    ??HAL_DMA_PollForTransfer_212
        LDR.W    R6,??HAL_DMA_PollForTransfer_204+0x20  ;; 0x40026070
        CMP      R3,R6
        BEQ.N    ??HAL_DMA_PollForTransfer_212
        LDR.W    R6,??HAL_DMA_PollForTransfer_204+0x24  ;; 0x40026470
        CMP      R3,R6
        BNE.N    ??HAL_DMA_PollForTransfer_213
??HAL_DMA_PollForTransfer_212:
        LDR.N    R3,??HAL_DMA_PollForTransfer_69  ;; 0x800001
        B.N      ??HAL_DMA_PollForTransfer_214
??HAL_DMA_PollForTransfer_213:
        LDR.W    R6,??HAL_DMA_PollForTransfer_204  ;; 0x40026028
        CMP      R3,R6
        BEQ.N    ??HAL_DMA_PollForTransfer_215
        LDR.W    R6,??HAL_DMA_PollForTransfer_204+0x4  ;; 0x40026428
        CMP      R3,R6
        BEQ.N    ??HAL_DMA_PollForTransfer_215
        LDR.W    R6,??HAL_DMA_PollForTransfer_204+0x8  ;; 0x40026088
        CMP      R3,R6
        BEQ.N    ??HAL_DMA_PollForTransfer_215
        LDR.W    R6,??HAL_DMA_PollForTransfer_204+0xC  ;; 0x40026488
        CMP      R3,R6
        BNE.N    ??HAL_DMA_PollForTransfer_216
??HAL_DMA_PollForTransfer_215:
        MOVS     R3,#+64
        B.N      ??HAL_DMA_PollForTransfer_214
??HAL_DMA_PollForTransfer_216:
        LDR.W    R6,??HAL_DMA_PollForTransfer_204+0x10  ;; 0x40026040
        CMP      R3,R6
        BNE.N    ??HAL_DMA_PollForTransfer_217
        MOV      R3,#+65536
        B.N      ??HAL_DMA_PollForTransfer_214
??HAL_DMA_PollForTransfer_217:
        LDR.W    R6,??HAL_DMA_PollForTransfer_204+0x14  ;; 0x40026440
        CMP      R3,R6
        BNE.N    ??HAL_DMA_PollForTransfer_218
        MOV      R3,#+65536
        B.N      ??HAL_DMA_PollForTransfer_214
??HAL_DMA_PollForTransfer_218:
        LDR.W    R6,??HAL_DMA_PollForTransfer_204+0x18  ;; 0x400260a0
        CMP      R3,R6
        BNE.N    ??HAL_DMA_PollForTransfer_219
        MOV      R3,#+65536
        B.N      ??HAL_DMA_PollForTransfer_214
??HAL_DMA_PollForTransfer_219:
        LDR.N    R6,??HAL_DMA_PollForTransfer_10  ;; 0x400264a0
        CMP      R3,R6
        BNE.N    ??HAL_DMA_PollForTransfer_220
        MOV      R3,#+65536
        B.N      ??HAL_DMA_PollForTransfer_214
??HAL_DMA_PollForTransfer_220:
        MOV      R3,#+4194304
??HAL_DMA_PollForTransfer_214:
        LDR.N    R6,??HAL_DMA_PollForTransfer_10+0x10  ;; 0x40026000
        STR      R3,[R6, #+12]
        B.N      ??HAL_DMA_PollForTransfer_189
??HAL_DMA_PollForTransfer_211:
        CMP      R3,R7
        BEQ.N    ??HAL_DMA_PollForTransfer_221
        LDR.W    R6,??HAL_DMA_PollForTransfer_204+0x1C  ;; 0x40026410
        CMP      R3,R6
        BEQ.N    ??HAL_DMA_PollForTransfer_221
        LDR.W    R6,??HAL_DMA_PollForTransfer_204+0x20  ;; 0x40026070
        CMP      R3,R6
        BEQ.N    ??HAL_DMA_PollForTransfer_221
        LDR.W    R6,??HAL_DMA_PollForTransfer_204+0x24  ;; 0x40026470
        CMP      R3,R6
        BNE.N    ??HAL_DMA_PollForTransfer_222
??HAL_DMA_PollForTransfer_221:
        LDR.N    R3,??HAL_DMA_PollForTransfer_69  ;; 0x800001
        B.N      ??HAL_DMA_PollForTransfer_223
        DATA
??HAL_DMA_PollForTransfer_10:
        DC32     0x400264a0
        DC32     0x40026400
        DC32     0x40026459
        DC32     0x400260b9
        DC32     0x40026000
        DC32     0x40026059
        THUMB
??HAL_DMA_PollForTransfer_222:
        LDR.W    R6,??HAL_DMA_PollForTransfer_204  ;; 0x40026028
        CMP      R3,R6
        BEQ.N    ??HAL_DMA_PollForTransfer_224
        LDR.W    R6,??HAL_DMA_PollForTransfer_204+0x4  ;; 0x40026428
        CMP      R3,R6
        BEQ.N    ??HAL_DMA_PollForTransfer_224
        LDR.W    R6,??HAL_DMA_PollForTransfer_204+0x8  ;; 0x40026088
        CMP      R3,R6
        BEQ.N    ??HAL_DMA_PollForTransfer_224
        LDR.W    R6,??HAL_DMA_PollForTransfer_204+0xC  ;; 0x40026488
        CMP      R3,R6
        BNE.N    ??HAL_DMA_PollForTransfer_225
??HAL_DMA_PollForTransfer_224:
        MOVS     R3,#+64
        B.N      ??HAL_DMA_PollForTransfer_223
??HAL_DMA_PollForTransfer_225:
        LDR.W    R6,??HAL_DMA_PollForTransfer_204+0x10  ;; 0x40026040
        CMP      R3,R6
        BNE.N    ??HAL_DMA_PollForTransfer_226
        MOV      R3,#+65536
        B.N      ??HAL_DMA_PollForTransfer_223
??HAL_DMA_PollForTransfer_226:
        LDR.W    R6,??HAL_DMA_PollForTransfer_204+0x14  ;; 0x40026440
        CMP      R3,R6
        BNE.N    ??HAL_DMA_PollForTransfer_227
        MOV      R3,#+65536
        B.N      ??HAL_DMA_PollForTransfer_223
??HAL_DMA_PollForTransfer_227:
        LDR.W    R6,??HAL_DMA_PollForTransfer_204+0x18  ;; 0x400260a0
        CMP      R3,R6
        BNE.N    ??HAL_DMA_PollForTransfer_228
        MOV      R3,#+65536
        B.N      ??HAL_DMA_PollForTransfer_223
??HAL_DMA_PollForTransfer_228:
        LDR.W    R6,??HAL_DMA_PollForTransfer_229  ;; 0x400264a0
        CMP      R3,R6
        BNE.N    ??HAL_DMA_PollForTransfer_230
        MOV      R3,#+65536
        B.N      ??HAL_DMA_PollForTransfer_223
??HAL_DMA_PollForTransfer_230:
        MOV      R3,#+4194304
??HAL_DMA_PollForTransfer_223:
        LDR.W    R6,??HAL_DMA_PollForTransfer_231  ;; 0x40026000
        STR      R3,[R6, #+8]
//  563       }
//  564       if(tmp2 != RESET)
??HAL_DMA_PollForTransfer_189:
        CMP      R2,#+0
        BEQ.W    ??HAL_DMA_PollForTransfer_232
//  565       {
//  566         /* Update error code */
//  567         hdma->ErrorCode |= HAL_DMA_ERROR_DME;
        LDR      R2,[R5, #+24]
        ORR      R2,R2,#0x4
        STR      R2,[R5, #+24]
//  568 
//  569         /* Clear the Direct Mode error flag */
//  570         __HAL_DMA_CLEAR_FLAG(hdma, __HAL_DMA_GET_DME_FLAG_INDEX(hdma));
        LDR      R2,[R4, #+0]
        CMP      R2,R1
        BCC.N    ??HAL_DMA_PollForTransfer_233
        CMP      R2,R7
        BEQ.N    ??HAL_DMA_PollForTransfer_234
        LDR.W    R1,??HAL_DMA_PollForTransfer_204+0x1C  ;; 0x40026410
        CMP      R2,R1
        BEQ.N    ??HAL_DMA_PollForTransfer_234
        LDR.W    R1,??HAL_DMA_PollForTransfer_204+0x20  ;; 0x40026070
        CMP      R2,R1
        BEQ.N    ??HAL_DMA_PollForTransfer_234
        LDR.W    R1,??HAL_DMA_PollForTransfer_204+0x24  ;; 0x40026470
        CMP      R2,R1
        BNE.N    ??HAL_DMA_PollForTransfer_235
??HAL_DMA_PollForTransfer_234:
        LDR.W    R1,??HAL_DMA_PollForTransfer_110  ;; 0x800004
        B.N      ??HAL_DMA_PollForTransfer_236
??HAL_DMA_PollForTransfer_235:
        LDR.W    R1,??HAL_DMA_PollForTransfer_204  ;; 0x40026028
        CMP      R2,R1
        BEQ.N    ??HAL_DMA_PollForTransfer_237
        LDR.W    R1,??HAL_DMA_PollForTransfer_204+0x4  ;; 0x40026428
        CMP      R2,R1
        BEQ.N    ??HAL_DMA_PollForTransfer_237
        LDR.W    R1,??HAL_DMA_PollForTransfer_204+0x8  ;; 0x40026088
        CMP      R2,R1
        BEQ.N    ??HAL_DMA_PollForTransfer_237
        LDR.W    R1,??HAL_DMA_PollForTransfer_204+0xC  ;; 0x40026488
        CMP      R2,R1
        BNE.N    ??HAL_DMA_PollForTransfer_238
??HAL_DMA_PollForTransfer_237:
        MOV      R1,#+256
        B.N      ??HAL_DMA_PollForTransfer_236
??HAL_DMA_PollForTransfer_238:
        LDR.W    R1,??HAL_DMA_PollForTransfer_204+0x10  ;; 0x40026040
        CMP      R2,R1
        BNE.N    ??HAL_DMA_PollForTransfer_239
        MOV      R1,#+262144
        B.N      ??HAL_DMA_PollForTransfer_236
??HAL_DMA_PollForTransfer_239:
        LDR.W    R1,??HAL_DMA_PollForTransfer_204+0x14  ;; 0x40026440
        CMP      R2,R1
        BNE.N    ??HAL_DMA_PollForTransfer_240
        MOV      R1,#+262144
        B.N      ??HAL_DMA_PollForTransfer_236
??HAL_DMA_PollForTransfer_240:
        LDR.W    R1,??HAL_DMA_PollForTransfer_204+0x18  ;; 0x400260a0
        CMP      R2,R1
        BNE.N    ??HAL_DMA_PollForTransfer_241
        MOV      R1,#+262144
        B.N      ??HAL_DMA_PollForTransfer_236
??HAL_DMA_PollForTransfer_241:
        LDR.W    R1,??HAL_DMA_PollForTransfer_229  ;; 0x400264a0
        CMP      R2,R1
        BNE.N    ??HAL_DMA_PollForTransfer_242
        MOV      R1,#+262144
        B.N      ??HAL_DMA_PollForTransfer_236
??HAL_DMA_PollForTransfer_242:
        MOV      R1,#+16777216
??HAL_DMA_PollForTransfer_236:
        STR      R1,[R0, #+12]
        B.N      ??HAL_DMA_PollForTransfer_232
??HAL_DMA_PollForTransfer_233:
        LDR.W    R1,??HAL_DMA_PollForTransfer_243  ;; 0x400260b9
        CMP      R2,R1
        BCC.N    ??HAL_DMA_PollForTransfer_244
        CMP      R2,R7
        BEQ.N    ??HAL_DMA_PollForTransfer_245
        LDR.W    R1,??HAL_DMA_PollForTransfer_204+0x1C  ;; 0x40026410
        CMP      R2,R1
        BEQ.N    ??HAL_DMA_PollForTransfer_245
        LDR.W    R1,??HAL_DMA_PollForTransfer_204+0x20  ;; 0x40026070
        CMP      R2,R1
        BEQ.N    ??HAL_DMA_PollForTransfer_245
        LDR.W    R1,??HAL_DMA_PollForTransfer_204+0x24  ;; 0x40026470
        CMP      R2,R1
        BNE.N    ??HAL_DMA_PollForTransfer_246
??HAL_DMA_PollForTransfer_245:
        LDR.W    R1,??HAL_DMA_PollForTransfer_110  ;; 0x800004
        B.N      ??HAL_DMA_PollForTransfer_247
??HAL_DMA_PollForTransfer_246:
        LDR.W    R1,??HAL_DMA_PollForTransfer_204  ;; 0x40026028
        CMP      R2,R1
        BEQ.N    ??HAL_DMA_PollForTransfer_248
        LDR.W    R1,??HAL_DMA_PollForTransfer_204+0x4  ;; 0x40026428
        CMP      R2,R1
        BEQ.N    ??HAL_DMA_PollForTransfer_248
        LDR.W    R1,??HAL_DMA_PollForTransfer_204+0x8  ;; 0x40026088
        CMP      R2,R1
        BEQ.N    ??HAL_DMA_PollForTransfer_248
        LDR.W    R1,??HAL_DMA_PollForTransfer_204+0xC  ;; 0x40026488
        CMP      R2,R1
        BNE.N    ??HAL_DMA_PollForTransfer_249
??HAL_DMA_PollForTransfer_248:
        MOV      R1,#+256
        B.N      ??HAL_DMA_PollForTransfer_247
??HAL_DMA_PollForTransfer_249:
        LDR.W    R1,??HAL_DMA_PollForTransfer_204+0x10  ;; 0x40026040
        CMP      R2,R1
        BNE.N    ??HAL_DMA_PollForTransfer_250
        MOV      R1,#+262144
        B.N      ??HAL_DMA_PollForTransfer_247
??HAL_DMA_PollForTransfer_250:
        LDR.W    R1,??HAL_DMA_PollForTransfer_204+0x14  ;; 0x40026440
        CMP      R2,R1
        BNE.N    ??HAL_DMA_PollForTransfer_251
        MOV      R1,#+262144
        B.N      ??HAL_DMA_PollForTransfer_247
??HAL_DMA_PollForTransfer_251:
        LDR.W    R1,??HAL_DMA_PollForTransfer_204+0x18  ;; 0x400260a0
        CMP      R2,R1
        BNE.N    ??HAL_DMA_PollForTransfer_252
        MOV      R1,#+262144
        B.N      ??HAL_DMA_PollForTransfer_247
??HAL_DMA_PollForTransfer_252:
        LDR.W    R1,??HAL_DMA_PollForTransfer_229  ;; 0x400264a0
        CMP      R2,R1
        BNE.N    ??HAL_DMA_PollForTransfer_253
        MOV      R1,#+262144
        B.N      ??HAL_DMA_PollForTransfer_247
??HAL_DMA_PollForTransfer_253:
        MOV      R1,#+16777216
??HAL_DMA_PollForTransfer_247:
        STR      R1,[R0, #+8]
        B.N      ??HAL_DMA_PollForTransfer_232
??HAL_DMA_PollForTransfer_244:
        LDR.W    R0,??HAL_DMA_PollForTransfer_243+0x4  ;; 0x40026059
        CMP      R2,R0
        BCC.N    ??HAL_DMA_PollForTransfer_254
        CMP      R2,R7
        BEQ.N    ??HAL_DMA_PollForTransfer_255
        LDR.W    R0,??HAL_DMA_PollForTransfer_204+0x1C  ;; 0x40026410
        CMP      R2,R0
        BEQ.N    ??HAL_DMA_PollForTransfer_255
        LDR.W    R0,??HAL_DMA_PollForTransfer_204+0x20  ;; 0x40026070
        CMP      R2,R0
        BEQ.N    ??HAL_DMA_PollForTransfer_255
        LDR.W    R0,??HAL_DMA_PollForTransfer_204+0x24  ;; 0x40026470
        CMP      R2,R0
        BNE.N    ??HAL_DMA_PollForTransfer_256
??HAL_DMA_PollForTransfer_255:
        LDR.N    R0,??HAL_DMA_PollForTransfer_110  ;; 0x800004
        B.N      ??HAL_DMA_PollForTransfer_257
??HAL_DMA_PollForTransfer_256:
        LDR.W    R0,??HAL_DMA_PollForTransfer_204  ;; 0x40026028
        CMP      R2,R0
        BEQ.N    ??HAL_DMA_PollForTransfer_258
        LDR.W    R0,??HAL_DMA_PollForTransfer_204+0x4  ;; 0x40026428
        CMP      R2,R0
        BEQ.N    ??HAL_DMA_PollForTransfer_258
        LDR.W    R0,??HAL_DMA_PollForTransfer_204+0x8  ;; 0x40026088
        CMP      R2,R0
        BEQ.N    ??HAL_DMA_PollForTransfer_258
        LDR.W    R0,??HAL_DMA_PollForTransfer_204+0xC  ;; 0x40026488
        CMP      R2,R0
        BNE.N    ??HAL_DMA_PollForTransfer_259
??HAL_DMA_PollForTransfer_258:
        MOV      R0,#+256
        B.N      ??HAL_DMA_PollForTransfer_257
??HAL_DMA_PollForTransfer_259:
        LDR.W    R0,??HAL_DMA_PollForTransfer_204+0x10  ;; 0x40026040
        CMP      R2,R0
        BNE.N    ??HAL_DMA_PollForTransfer_260
        MOV      R0,#+262144
        B.N      ??HAL_DMA_PollForTransfer_257
??HAL_DMA_PollForTransfer_260:
        LDR.W    R0,??HAL_DMA_PollForTransfer_204+0x14  ;; 0x40026440
        CMP      R2,R0
        BNE.N    ??HAL_DMA_PollForTransfer_261
        MOV      R0,#+262144
        B.N      ??HAL_DMA_PollForTransfer_257
??HAL_DMA_PollForTransfer_261:
        LDR.W    R0,??HAL_DMA_PollForTransfer_204+0x18  ;; 0x400260a0
        CMP      R2,R0
        BNE.N    ??HAL_DMA_PollForTransfer_262
        MOV      R0,#+262144
        B.N      ??HAL_DMA_PollForTransfer_257
??HAL_DMA_PollForTransfer_262:
        LDR.W    R0,??HAL_DMA_PollForTransfer_229  ;; 0x400264a0
        CMP      R2,R0
        BNE.N    ??HAL_DMA_PollForTransfer_263
        MOV      R0,#+262144
        B.N      ??HAL_DMA_PollForTransfer_257
??HAL_DMA_PollForTransfer_263:
        MOV      R0,#+16777216
??HAL_DMA_PollForTransfer_257:
        LDR.W    R1,??HAL_DMA_PollForTransfer_231  ;; 0x40026000
        STR      R0,[R1, #+12]
        B.N      ??HAL_DMA_PollForTransfer_232
??HAL_DMA_PollForTransfer_254:
        CMP      R2,R7
        BEQ.N    ??HAL_DMA_PollForTransfer_264
        LDR.W    R0,??HAL_DMA_PollForTransfer_204+0x1C  ;; 0x40026410
        CMP      R2,R0
        BEQ.N    ??HAL_DMA_PollForTransfer_264
        LDR.W    R0,??HAL_DMA_PollForTransfer_204+0x20  ;; 0x40026070
        CMP      R2,R0
        BEQ.N    ??HAL_DMA_PollForTransfer_264
        LDR.W    R0,??HAL_DMA_PollForTransfer_204+0x24  ;; 0x40026470
        CMP      R2,R0
        BNE.N    ??HAL_DMA_PollForTransfer_265
??HAL_DMA_PollForTransfer_264:
        LDR.N    R0,??HAL_DMA_PollForTransfer_110  ;; 0x800004
        B.N      ??HAL_DMA_PollForTransfer_266
        DATA
??HAL_DMA_PollForTransfer_69:
        DC32     0x800001
        THUMB
??HAL_DMA_PollForTransfer_265:
        LDR.W    R0,??HAL_DMA_PollForTransfer_204  ;; 0x40026028
        CMP      R2,R0
        BEQ.N    ??HAL_DMA_PollForTransfer_267
        LDR.W    R0,??HAL_DMA_PollForTransfer_204+0x4  ;; 0x40026428
        CMP      R2,R0
        BEQ.N    ??HAL_DMA_PollForTransfer_267
        LDR.W    R0,??HAL_DMA_PollForTransfer_204+0x8  ;; 0x40026088
        CMP      R2,R0
        BEQ.N    ??HAL_DMA_PollForTransfer_267
        LDR.W    R0,??HAL_DMA_PollForTransfer_204+0xC  ;; 0x40026488
        CMP      R2,R0
        BNE.N    ??HAL_DMA_PollForTransfer_268
??HAL_DMA_PollForTransfer_267:
        MOV      R0,#+256
        B.N      ??HAL_DMA_PollForTransfer_266
??HAL_DMA_PollForTransfer_268:
        LDR.W    R0,??HAL_DMA_PollForTransfer_204+0x10  ;; 0x40026040
        CMP      R2,R0
        BNE.N    ??HAL_DMA_PollForTransfer_269
        MOV      R0,#+262144
        B.N      ??HAL_DMA_PollForTransfer_266
??HAL_DMA_PollForTransfer_269:
        LDR.W    R0,??HAL_DMA_PollForTransfer_204+0x14  ;; 0x40026440
        CMP      R2,R0
        BNE.N    ??HAL_DMA_PollForTransfer_270
        MOV      R0,#+262144
        B.N      ??HAL_DMA_PollForTransfer_266
??HAL_DMA_PollForTransfer_270:
        LDR.W    R0,??HAL_DMA_PollForTransfer_204+0x18  ;; 0x400260a0
        CMP      R2,R0
        BNE.N    ??HAL_DMA_PollForTransfer_271
        MOV      R0,#+262144
        B.N      ??HAL_DMA_PollForTransfer_266
??HAL_DMA_PollForTransfer_271:
        LDR.W    R0,??HAL_DMA_PollForTransfer_229  ;; 0x400264a0
        CMP      R2,R0
        BNE.N    ??HAL_DMA_PollForTransfer_272
        MOV      R0,#+262144
        B.N      ??HAL_DMA_PollForTransfer_266
??HAL_DMA_PollForTransfer_272:
        MOV      R0,#+16777216
??HAL_DMA_PollForTransfer_266:
        LDR.W    R1,??HAL_DMA_PollForTransfer_231  ;; 0x40026000
        STR      R0,[R1, #+8]
//  571       }
//  572       /* Change the DMA state */
//  573       hdma->State= HAL_DMA_STATE_ERROR;
??HAL_DMA_PollForTransfer_232:
        MOVS     R0,#+4
        STRB     R0,[R5, #+1]
//  574       
//  575       /* Process Unlocked */
//  576       __HAL_UNLOCK(hdma);
        MOVS     R0,#+0
        STRB     R0,[R5, #+0]
//  577 
//  578       return HAL_ERROR;
        MOVS     R0,#+1
        B.W      ??HAL_DMA_PollForTransfer_273
//  579     }  
//  580     /* Check for the Timeout */
//  581     if(Timeout != HAL_MAX_DELAY)
??HAL_DMA_PollForTransfer_148:
        CMN      R6,#+1
        BEQ.W    ??HAL_DMA_PollForTransfer_20
//  582     {
//  583       if((Timeout == 0)||((HAL_GetTick() - tickstart ) > Timeout))
        CMP      R6,#+0
        BEQ.N    ??HAL_DMA_PollForTransfer_274
          CFI FunCall HAL_GetTick
        BL       HAL_GetTick
        SUB      R0,R0,R9
        CMP      R6,R0
        BCS.W    ??HAL_DMA_PollForTransfer_20
//  584       {
//  585         /* Update error code */
//  586         hdma->ErrorCode |= HAL_DMA_ERROR_TIMEOUT;
??HAL_DMA_PollForTransfer_274:
        ADD      R5,R4,#+52
        LDR      R0,[R5, #+24]
        ORR      R0,R0,#0x20
        STR      R0,[R5, #+24]
//  587 
//  588         /* Change the DMA state */
//  589         hdma->State = HAL_DMA_STATE_TIMEOUT;
        MOVS     R0,#+3
        STRB     R0,[R5, #+1]
//  590 
//  591         /* Process Unlocked */
//  592         __HAL_UNLOCK(hdma);
        MOVS     R0,#+0
        STRB     R0,[R5, #+0]
//  593         
//  594         return HAL_TIMEOUT;
        MOVS     R0,#+3
        B.W      ??HAL_DMA_PollForTransfer_273
//  595       }
//  596     }
//  597   }
//  598 
//  599   if(CompleteLevel == HAL_DMA_FULL_TRANSFER)
??HAL_DMA_PollForTransfer_25:
        CMP      R5,#+0
        LDR      R3,[R3, #+0]
        BNE.W    ??HAL_DMA_PollForTransfer_275
//  600   {
//  601     /* Multi_Buffering mode enabled */
//  602     if(((hdma->Instance->CR) & (uint32_t)(DMA_SxCR_DBM)) != 0)
        LSLS     R3,R3,#+13
        BPL.W    ??HAL_DMA_PollForTransfer_276
//  603     {
//  604       /* Clear the half transfer complete flag */
//  605       __HAL_DMA_CLEAR_FLAG(hdma, __HAL_DMA_GET_HT_FLAG_INDEX(hdma));
        CMP      R2,R1
        BCC.N    ??HAL_DMA_PollForTransfer_277
        CMP      R2,R7
        BEQ.N    ??HAL_DMA_PollForTransfer_278
        LDR.N    R3,??HAL_DMA_PollForTransfer_204+0x1C  ;; 0x40026410
        CMP      R2,R3
        BEQ.N    ??HAL_DMA_PollForTransfer_278
        LDR.N    R3,??HAL_DMA_PollForTransfer_204+0x20  ;; 0x40026070
        CMP      R2,R3
        BEQ.N    ??HAL_DMA_PollForTransfer_278
        LDR.N    R3,??HAL_DMA_PollForTransfer_204+0x24  ;; 0x40026470
        CMP      R2,R3
        BNE.N    ??HAL_DMA_PollForTransfer_279
??HAL_DMA_PollForTransfer_278:
        MOVS     R2,#+16
        B.N      ??HAL_DMA_PollForTransfer_280
??HAL_DMA_PollForTransfer_279:
        LDR.N    R3,??HAL_DMA_PollForTransfer_204  ;; 0x40026028
        CMP      R2,R3
        BEQ.N    ??HAL_DMA_PollForTransfer_281
        LDR.N    R3,??HAL_DMA_PollForTransfer_204+0x4  ;; 0x40026428
        CMP      R2,R3
        BEQ.N    ??HAL_DMA_PollForTransfer_281
        LDR.N    R3,??HAL_DMA_PollForTransfer_204+0x8  ;; 0x40026088
        CMP      R2,R3
        BEQ.N    ??HAL_DMA_PollForTransfer_281
        LDR.N    R3,??HAL_DMA_PollForTransfer_204+0xC  ;; 0x40026488
        CMP      R2,R3
        BNE.N    ??HAL_DMA_PollForTransfer_282
??HAL_DMA_PollForTransfer_281:
        MOV      R2,#+1024
        B.N      ??HAL_DMA_PollForTransfer_280
??HAL_DMA_PollForTransfer_282:
        LDR.N    R3,??HAL_DMA_PollForTransfer_204+0x10  ;; 0x40026040
        CMP      R2,R3
        BNE.N    ??HAL_DMA_PollForTransfer_283
        MOV      R2,#+1048576
        B.N      ??HAL_DMA_PollForTransfer_280
??HAL_DMA_PollForTransfer_283:
        LDR.N    R3,??HAL_DMA_PollForTransfer_204+0x14  ;; 0x40026440
        CMP      R2,R3
        BNE.N    ??HAL_DMA_PollForTransfer_284
        MOV      R2,#+1048576
        B.N      ??HAL_DMA_PollForTransfer_280
??HAL_DMA_PollForTransfer_284:
        LDR.N    R3,??HAL_DMA_PollForTransfer_204+0x18  ;; 0x400260a0
        CMP      R2,R3
        BNE.N    ??HAL_DMA_PollForTransfer_285
        MOV      R2,#+1048576
        B.N      ??HAL_DMA_PollForTransfer_280
??HAL_DMA_PollForTransfer_285:
        LDR.W    R3,??HAL_DMA_PollForTransfer_229  ;; 0x400264a0
        CMP      R2,R3
        BNE.N    ??HAL_DMA_PollForTransfer_286
        MOV      R2,#+1048576
        B.N      ??HAL_DMA_PollForTransfer_280
??HAL_DMA_PollForTransfer_286:
        MOV      R2,#+67108864
??HAL_DMA_PollForTransfer_280:
        STR      R2,[R0, #+12]
        B.N      ??HAL_DMA_PollForTransfer_287
??HAL_DMA_PollForTransfer_277:
        LDR.W    R3,??HAL_DMA_PollForTransfer_243  ;; 0x400260b9
        CMP      R2,R3
        BCC.N    ??HAL_DMA_PollForTransfer_288
        CMP      R2,R7
        BEQ.N    ??HAL_DMA_PollForTransfer_289
        LDR.N    R3,??HAL_DMA_PollForTransfer_204+0x1C  ;; 0x40026410
        CMP      R2,R3
        BEQ.N    ??HAL_DMA_PollForTransfer_289
        LDR.N    R3,??HAL_DMA_PollForTransfer_204+0x20  ;; 0x40026070
        CMP      R2,R3
        BEQ.N    ??HAL_DMA_PollForTransfer_289
        LDR.N    R3,??HAL_DMA_PollForTransfer_204+0x24  ;; 0x40026470
        CMP      R2,R3
        BNE.N    ??HAL_DMA_PollForTransfer_290
??HAL_DMA_PollForTransfer_289:
        MOVS     R2,#+16
        B.N      ??HAL_DMA_PollForTransfer_291
??HAL_DMA_PollForTransfer_290:
        LDR.N    R3,??HAL_DMA_PollForTransfer_204  ;; 0x40026028
        CMP      R2,R3
        BEQ.N    ??HAL_DMA_PollForTransfer_292
        LDR.N    R3,??HAL_DMA_PollForTransfer_204+0x4  ;; 0x40026428
        CMP      R2,R3
        BEQ.N    ??HAL_DMA_PollForTransfer_292
        LDR.N    R3,??HAL_DMA_PollForTransfer_204+0x8  ;; 0x40026088
        CMP      R2,R3
        BEQ.N    ??HAL_DMA_PollForTransfer_292
        LDR.N    R3,??HAL_DMA_PollForTransfer_204+0xC  ;; 0x40026488
        CMP      R2,R3
        BNE.N    ??HAL_DMA_PollForTransfer_293
??HAL_DMA_PollForTransfer_292:
        MOV      R2,#+1024
        B.N      ??HAL_DMA_PollForTransfer_291
??HAL_DMA_PollForTransfer_293:
        LDR.N    R3,??HAL_DMA_PollForTransfer_204+0x10  ;; 0x40026040
        CMP      R2,R3
        BNE.N    ??HAL_DMA_PollForTransfer_294
        MOV      R2,#+1048576
        B.N      ??HAL_DMA_PollForTransfer_291
??HAL_DMA_PollForTransfer_294:
        LDR.N    R3,??HAL_DMA_PollForTransfer_204+0x14  ;; 0x40026440
        CMP      R2,R3
        BNE.N    ??HAL_DMA_PollForTransfer_295
        MOV      R2,#+1048576
        B.N      ??HAL_DMA_PollForTransfer_291
??HAL_DMA_PollForTransfer_295:
        LDR.N    R3,??HAL_DMA_PollForTransfer_204+0x18  ;; 0x400260a0
        CMP      R2,R3
        BNE.N    ??HAL_DMA_PollForTransfer_296
        MOV      R2,#+1048576
        B.N      ??HAL_DMA_PollForTransfer_291
??HAL_DMA_PollForTransfer_296:
        LDR.W    R3,??HAL_DMA_PollForTransfer_229  ;; 0x400264a0
        CMP      R2,R3
        BNE.N    ??HAL_DMA_PollForTransfer_297
        MOV      R2,#+1048576
        B.N      ??HAL_DMA_PollForTransfer_291
??HAL_DMA_PollForTransfer_297:
        MOV      R2,#+67108864
??HAL_DMA_PollForTransfer_291:
        STR      R2,[R0, #+8]
        B.N      ??HAL_DMA_PollForTransfer_287
??HAL_DMA_PollForTransfer_288:
        LDR.W    R3,??HAL_DMA_PollForTransfer_243+0x4  ;; 0x40026059
        CMP      R2,R3
        BCC.N    ??HAL_DMA_PollForTransfer_298
        CMP      R2,R7
        BEQ.N    ??HAL_DMA_PollForTransfer_299
        LDR.N    R3,??HAL_DMA_PollForTransfer_204+0x1C  ;; 0x40026410
        CMP      R2,R3
        BEQ.N    ??HAL_DMA_PollForTransfer_299
        LDR.N    R3,??HAL_DMA_PollForTransfer_204+0x20  ;; 0x40026070
        CMP      R2,R3
        BEQ.N    ??HAL_DMA_PollForTransfer_299
        LDR.N    R3,??HAL_DMA_PollForTransfer_204+0x24  ;; 0x40026470
        CMP      R2,R3
        BNE.N    ??HAL_DMA_PollForTransfer_300
??HAL_DMA_PollForTransfer_299:
        MOVS     R2,#+16
        B.N      ??HAL_DMA_PollForTransfer_301
??HAL_DMA_PollForTransfer_300:
        LDR.N    R3,??HAL_DMA_PollForTransfer_204  ;; 0x40026028
        CMP      R2,R3
        BEQ.N    ??HAL_DMA_PollForTransfer_302
        LDR.N    R3,??HAL_DMA_PollForTransfer_204+0x4  ;; 0x40026428
        CMP      R2,R3
        BEQ.N    ??HAL_DMA_PollForTransfer_302
        LDR.N    R3,??HAL_DMA_PollForTransfer_204+0x8  ;; 0x40026088
        CMP      R2,R3
        BEQ.N    ??HAL_DMA_PollForTransfer_302
        LDR.N    R3,??HAL_DMA_PollForTransfer_204+0xC  ;; 0x40026488
        CMP      R2,R3
        BNE.N    ??HAL_DMA_PollForTransfer_303
??HAL_DMA_PollForTransfer_302:
        MOV      R2,#+1024
        B.N      ??HAL_DMA_PollForTransfer_301
??HAL_DMA_PollForTransfer_303:
        LDR.N    R3,??HAL_DMA_PollForTransfer_204+0x10  ;; 0x40026040
        CMP      R2,R3
        BNE.N    ??HAL_DMA_PollForTransfer_304
        MOV      R2,#+1048576
        B.N      ??HAL_DMA_PollForTransfer_301
??HAL_DMA_PollForTransfer_304:
        LDR.N    R3,??HAL_DMA_PollForTransfer_204+0x14  ;; 0x40026440
        CMP      R2,R3
        BNE.N    ??HAL_DMA_PollForTransfer_305
        MOV      R2,#+1048576
        B.N      ??HAL_DMA_PollForTransfer_301
??HAL_DMA_PollForTransfer_305:
        LDR.N    R3,??HAL_DMA_PollForTransfer_204+0x18  ;; 0x400260a0
        CMP      R2,R3
        BNE.N    ??HAL_DMA_PollForTransfer_306
        MOV      R2,#+1048576
        B.N      ??HAL_DMA_PollForTransfer_301
??HAL_DMA_PollForTransfer_306:
        LDR.W    R3,??HAL_DMA_PollForTransfer_229  ;; 0x400264a0
        CMP      R2,R3
        BNE.N    ??HAL_DMA_PollForTransfer_307
        MOV      R2,#+1048576
        B.N      ??HAL_DMA_PollForTransfer_301
??HAL_DMA_PollForTransfer_307:
        MOV      R2,#+67108864
??HAL_DMA_PollForTransfer_301:
        LDR.W    R3,??HAL_DMA_PollForTransfer_231  ;; 0x40026000
        STR      R2,[R3, #+12]
        B.N      ??HAL_DMA_PollForTransfer_287
        Nop      
        DATA
??HAL_DMA_PollForTransfer_110:
        DC32     0x800004
        THUMB
??HAL_DMA_PollForTransfer_298:
        CMP      R2,R7
        BEQ.N    ??HAL_DMA_PollForTransfer_308
        LDR.N    R3,??HAL_DMA_PollForTransfer_204+0x1C  ;; 0x40026410
        CMP      R2,R3
        BEQ.N    ??HAL_DMA_PollForTransfer_308
        LDR.N    R3,??HAL_DMA_PollForTransfer_204+0x20  ;; 0x40026070
        CMP      R2,R3
        BEQ.N    ??HAL_DMA_PollForTransfer_308
        LDR.N    R3,??HAL_DMA_PollForTransfer_204+0x24  ;; 0x40026470
        CMP      R2,R3
        BNE.N    ??HAL_DMA_PollForTransfer_309
??HAL_DMA_PollForTransfer_308:
        MOVS     R2,#+16
        B.N      ??HAL_DMA_PollForTransfer_310
??HAL_DMA_PollForTransfer_309:
        LDR.N    R3,??HAL_DMA_PollForTransfer_204  ;; 0x40026028
        CMP      R2,R3
        BEQ.N    ??HAL_DMA_PollForTransfer_311
        LDR.N    R3,??HAL_DMA_PollForTransfer_204+0x4  ;; 0x40026428
        CMP      R2,R3
        BEQ.N    ??HAL_DMA_PollForTransfer_311
        LDR.N    R3,??HAL_DMA_PollForTransfer_204+0x8  ;; 0x40026088
        CMP      R2,R3
        BEQ.N    ??HAL_DMA_PollForTransfer_311
        LDR.N    R3,??HAL_DMA_PollForTransfer_204+0xC  ;; 0x40026488
        CMP      R2,R3
        BNE.N    ??HAL_DMA_PollForTransfer_312
??HAL_DMA_PollForTransfer_311:
        MOV      R2,#+1024
        B.N      ??HAL_DMA_PollForTransfer_310
??HAL_DMA_PollForTransfer_312:
        LDR.N    R3,??HAL_DMA_PollForTransfer_204+0x10  ;; 0x40026040
        CMP      R2,R3
        BNE.N    ??HAL_DMA_PollForTransfer_313
        MOV      R2,#+1048576
        B.N      ??HAL_DMA_PollForTransfer_310
??HAL_DMA_PollForTransfer_313:
        LDR.N    R3,??HAL_DMA_PollForTransfer_204+0x14  ;; 0x40026440
        CMP      R2,R3
        BNE.N    ??HAL_DMA_PollForTransfer_314
        MOV      R2,#+1048576
        B.N      ??HAL_DMA_PollForTransfer_310
??HAL_DMA_PollForTransfer_314:
        LDR.N    R3,??HAL_DMA_PollForTransfer_204+0x18  ;; 0x400260a0
        CMP      R2,R3
        BNE.N    ??HAL_DMA_PollForTransfer_315
        MOV      R2,#+1048576
        B.N      ??HAL_DMA_PollForTransfer_310
??HAL_DMA_PollForTransfer_315:
        LDR.W    R3,??HAL_DMA_PollForTransfer_229  ;; 0x400264a0
        CMP      R2,R3
        BNE.N    ??HAL_DMA_PollForTransfer_316
        MOV      R2,#+1048576
        B.N      ??HAL_DMA_PollForTransfer_310
??HAL_DMA_PollForTransfer_316:
        MOV      R2,#+67108864
??HAL_DMA_PollForTransfer_310:
        LDR.W    R3,??HAL_DMA_PollForTransfer_231  ;; 0x40026000
        STR      R2,[R3, #+8]
//  606       /* Clear the transfer complete flag */
//  607       __HAL_DMA_CLEAR_FLAG(hdma, __HAL_DMA_GET_TC_FLAG_INDEX(hdma));
??HAL_DMA_PollForTransfer_287:
        LDR      R2,[R4, #+0]
        CMP      R2,R1
        BCC.N    ??HAL_DMA_PollForTransfer_317
        CMP      R2,R7
        BEQ.N    ??HAL_DMA_PollForTransfer_318
        LDR.N    R1,??HAL_DMA_PollForTransfer_204+0x1C  ;; 0x40026410
        CMP      R2,R1
        BEQ.N    ??HAL_DMA_PollForTransfer_318
        LDR.N    R1,??HAL_DMA_PollForTransfer_204+0x20  ;; 0x40026070
        CMP      R2,R1
        BEQ.N    ??HAL_DMA_PollForTransfer_318
        LDR.N    R1,??HAL_DMA_PollForTransfer_204+0x24  ;; 0x40026470
        CMP      R2,R1
        BNE.N    ??HAL_DMA_PollForTransfer_319
??HAL_DMA_PollForTransfer_318:
        MOVS     R1,#+32
        B.N      ??HAL_DMA_PollForTransfer_320
??HAL_DMA_PollForTransfer_319:
        LDR.N    R1,??HAL_DMA_PollForTransfer_204  ;; 0x40026028
        CMP      R2,R1
        BEQ.N    ??HAL_DMA_PollForTransfer_321
        LDR.N    R1,??HAL_DMA_PollForTransfer_204+0x4  ;; 0x40026428
        CMP      R2,R1
        BEQ.N    ??HAL_DMA_PollForTransfer_321
        LDR.N    R1,??HAL_DMA_PollForTransfer_204+0x8  ;; 0x40026088
        CMP      R2,R1
        BEQ.N    ??HAL_DMA_PollForTransfer_321
        LDR.N    R1,??HAL_DMA_PollForTransfer_204+0xC  ;; 0x40026488
        CMP      R2,R1
        BNE.N    ??HAL_DMA_PollForTransfer_322
??HAL_DMA_PollForTransfer_321:
        MOV      R1,#+2048
        B.N      ??HAL_DMA_PollForTransfer_320
??HAL_DMA_PollForTransfer_322:
        LDR.N    R1,??HAL_DMA_PollForTransfer_204+0x10  ;; 0x40026040
        CMP      R2,R1
        BNE.N    ??HAL_DMA_PollForTransfer_323
        MOV      R1,#+2097152
        B.N      ??HAL_DMA_PollForTransfer_320
??HAL_DMA_PollForTransfer_323:
        LDR.N    R1,??HAL_DMA_PollForTransfer_204+0x14  ;; 0x40026440
        CMP      R2,R1
        BNE.N    ??HAL_DMA_PollForTransfer_324
        MOV      R1,#+2097152
        B.N      ??HAL_DMA_PollForTransfer_320
??HAL_DMA_PollForTransfer_324:
        LDR.N    R1,??HAL_DMA_PollForTransfer_204+0x18  ;; 0x400260a0
        CMP      R2,R1
        BNE.N    ??HAL_DMA_PollForTransfer_325
        MOV      R1,#+2097152
        B.N      ??HAL_DMA_PollForTransfer_320
??HAL_DMA_PollForTransfer_325:
        LDR.W    R1,??HAL_DMA_PollForTransfer_229  ;; 0x400264a0
        CMP      R2,R1
        BNE.N    ??HAL_DMA_PollForTransfer_326
        MOV      R1,#+2097152
        B.N      ??HAL_DMA_PollForTransfer_320
??HAL_DMA_PollForTransfer_326:
        MOV      R1,#+134217728
??HAL_DMA_PollForTransfer_320:
        STR      R1,[R0, #+12]
        B.N      ??HAL_DMA_PollForTransfer_327
??HAL_DMA_PollForTransfer_317:
        LDR.W    R1,??HAL_DMA_PollForTransfer_243  ;; 0x400260b9
        CMP      R2,R1
        BCC.N    ??HAL_DMA_PollForTransfer_328
        CMP      R2,R7
        BEQ.N    ??HAL_DMA_PollForTransfer_329
        LDR.N    R1,??HAL_DMA_PollForTransfer_204+0x1C  ;; 0x40026410
        CMP      R2,R1
        BEQ.N    ??HAL_DMA_PollForTransfer_329
        LDR.N    R1,??HAL_DMA_PollForTransfer_204+0x20  ;; 0x40026070
        CMP      R2,R1
        BEQ.N    ??HAL_DMA_PollForTransfer_329
        LDR.N    R1,??HAL_DMA_PollForTransfer_204+0x24  ;; 0x40026470
        CMP      R2,R1
        BNE.N    ??HAL_DMA_PollForTransfer_330
??HAL_DMA_PollForTransfer_329:
        MOVS     R1,#+32
        B.N      ??HAL_DMA_PollForTransfer_331
        Nop      
        DATA
??HAL_DMA_PollForTransfer_204:
        DC32     0x40026028
        DC32     0x40026428
        DC32     0x40026088
        DC32     0x40026488
        DC32     0x40026040
        DC32     0x40026440
        DC32     0x400260a0
        DC32     0x40026410
        DC32     0x40026070
        DC32     0x40026470
        THUMB
??HAL_DMA_PollForTransfer_330:
        LDR.W    R1,??DataTable2  ;; 0x40026028
        CMP      R2,R1
        BEQ.N    ??HAL_DMA_PollForTransfer_332
        LDR.W    R1,??DataTable2_1  ;; 0x40026428
        CMP      R2,R1
        BEQ.N    ??HAL_DMA_PollForTransfer_332
        LDR.W    R1,??DataTable2_2  ;; 0x40026088
        CMP      R2,R1
        BEQ.N    ??HAL_DMA_PollForTransfer_332
        LDR.W    R1,??DataTable2_3  ;; 0x40026488
        CMP      R2,R1
        BNE.N    ??HAL_DMA_PollForTransfer_333
??HAL_DMA_PollForTransfer_332:
        MOV      R1,#+2048
        B.N      ??HAL_DMA_PollForTransfer_331
??HAL_DMA_PollForTransfer_333:
        LDR.W    R1,??DataTable2_4  ;; 0x40026040
        CMP      R2,R1
        BNE.N    ??HAL_DMA_PollForTransfer_334
        MOV      R1,#+2097152
        B.N      ??HAL_DMA_PollForTransfer_331
??HAL_DMA_PollForTransfer_334:
        LDR.W    R1,??DataTable2_5  ;; 0x40026440
        CMP      R2,R1
        BNE.N    ??HAL_DMA_PollForTransfer_335
        MOV      R1,#+2097152
        B.N      ??HAL_DMA_PollForTransfer_331
??HAL_DMA_PollForTransfer_335:
        LDR.W    R1,??DataTable2_6  ;; 0x400260a0
        CMP      R2,R1
        BNE.N    ??HAL_DMA_PollForTransfer_336
        MOV      R1,#+2097152
        B.N      ??HAL_DMA_PollForTransfer_331
??HAL_DMA_PollForTransfer_336:
        LDR.W    R1,??HAL_DMA_PollForTransfer_229  ;; 0x400264a0
        CMP      R2,R1
        BNE.N    ??HAL_DMA_PollForTransfer_337
        MOV      R1,#+2097152
        B.N      ??HAL_DMA_PollForTransfer_331
??HAL_DMA_PollForTransfer_337:
        MOV      R1,#+134217728
??HAL_DMA_PollForTransfer_331:
        STR      R1,[R0, #+8]
        B.N      ??HAL_DMA_PollForTransfer_327
??HAL_DMA_PollForTransfer_328:
        LDR.W    R0,??HAL_DMA_PollForTransfer_243+0x4  ;; 0x40026059
        CMP      R2,R0
        BCC.N    ??HAL_DMA_PollForTransfer_338
        CMP      R2,R7
        BEQ.N    ??HAL_DMA_PollForTransfer_339
        LDR.W    R0,??DataTable2_7  ;; 0x40026410
        CMP      R2,R0
        BEQ.N    ??HAL_DMA_PollForTransfer_339
        LDR.W    R0,??DataTable2_8  ;; 0x40026070
        CMP      R2,R0
        BEQ.N    ??HAL_DMA_PollForTransfer_339
        LDR.W    R0,??DataTable2_9  ;; 0x40026470
        CMP      R2,R0
        BNE.N    ??HAL_DMA_PollForTransfer_340
??HAL_DMA_PollForTransfer_339:
        MOVS     R0,#+32
        B.N      ??HAL_DMA_PollForTransfer_341
??HAL_DMA_PollForTransfer_340:
        LDR.W    R0,??DataTable2  ;; 0x40026028
        CMP      R2,R0
        BEQ.N    ??HAL_DMA_PollForTransfer_342
        LDR.W    R0,??DataTable2_1  ;; 0x40026428
        CMP      R2,R0
        BEQ.N    ??HAL_DMA_PollForTransfer_342
        LDR.W    R0,??DataTable2_2  ;; 0x40026088
        CMP      R2,R0
        BEQ.N    ??HAL_DMA_PollForTransfer_342
        LDR.W    R0,??DataTable2_3  ;; 0x40026488
        CMP      R2,R0
        BNE.N    ??HAL_DMA_PollForTransfer_343
??HAL_DMA_PollForTransfer_342:
        MOV      R0,#+2048
        B.N      ??HAL_DMA_PollForTransfer_341
??HAL_DMA_PollForTransfer_343:
        LDR.W    R0,??DataTable2_4  ;; 0x40026040
        CMP      R2,R0
        BNE.N    ??HAL_DMA_PollForTransfer_344
        MOV      R0,#+2097152
        B.N      ??HAL_DMA_PollForTransfer_341
??HAL_DMA_PollForTransfer_344:
        LDR.W    R0,??DataTable2_5  ;; 0x40026440
        CMP      R2,R0
        BNE.N    ??HAL_DMA_PollForTransfer_345
        MOV      R0,#+2097152
        B.N      ??HAL_DMA_PollForTransfer_341
??HAL_DMA_PollForTransfer_345:
        LDR.W    R0,??DataTable2_6  ;; 0x400260a0
        CMP      R2,R0
        BNE.N    ??HAL_DMA_PollForTransfer_346
        MOV      R0,#+2097152
        B.N      ??HAL_DMA_PollForTransfer_341
??HAL_DMA_PollForTransfer_346:
        LDR.W    R0,??HAL_DMA_PollForTransfer_229  ;; 0x400264a0
        CMP      R2,R0
        BNE.N    ??HAL_DMA_PollForTransfer_347
        MOV      R0,#+2097152
        B.N      ??HAL_DMA_PollForTransfer_341
??HAL_DMA_PollForTransfer_347:
        MOV      R0,#+134217728
??HAL_DMA_PollForTransfer_341:
        LDR.W    R1,??HAL_DMA_PollForTransfer_231  ;; 0x40026000
        STR      R0,[R1, #+12]
        B.N      ??HAL_DMA_PollForTransfer_327
??HAL_DMA_PollForTransfer_338:
        CMP      R2,R7
        BEQ.N    ??HAL_DMA_PollForTransfer_348
        LDR.W    R0,??DataTable2_7  ;; 0x40026410
        CMP      R2,R0
        BEQ.N    ??HAL_DMA_PollForTransfer_348
        LDR.W    R0,??DataTable2_8  ;; 0x40026070
        CMP      R2,R0
        BEQ.N    ??HAL_DMA_PollForTransfer_348
        LDR.W    R0,??DataTable2_9  ;; 0x40026470
        CMP      R2,R0
        BNE.N    ??HAL_DMA_PollForTransfer_349
??HAL_DMA_PollForTransfer_348:
        MOVS     R0,#+32
        B.N      ??HAL_DMA_PollForTransfer_350
??HAL_DMA_PollForTransfer_349:
        LDR.W    R0,??DataTable2  ;; 0x40026028
        CMP      R2,R0
        BEQ.N    ??HAL_DMA_PollForTransfer_351
        LDR.W    R0,??DataTable2_1  ;; 0x40026428
        CMP      R2,R0
        BEQ.N    ??HAL_DMA_PollForTransfer_351
        LDR.W    R0,??DataTable2_2  ;; 0x40026088
        CMP      R2,R0
        BEQ.N    ??HAL_DMA_PollForTransfer_351
        LDR.W    R0,??DataTable2_3  ;; 0x40026488
        CMP      R2,R0
        BNE.N    ??HAL_DMA_PollForTransfer_352
??HAL_DMA_PollForTransfer_351:
        MOV      R0,#+2048
        B.N      ??HAL_DMA_PollForTransfer_350
??HAL_DMA_PollForTransfer_352:
        LDR.W    R0,??DataTable2_4  ;; 0x40026040
        CMP      R2,R0
        BNE.N    ??HAL_DMA_PollForTransfer_353
        MOV      R0,#+2097152
        B.N      ??HAL_DMA_PollForTransfer_350
??HAL_DMA_PollForTransfer_353:
        LDR.W    R0,??DataTable2_5  ;; 0x40026440
        CMP      R2,R0
        BNE.N    ??HAL_DMA_PollForTransfer_354
        MOV      R0,#+2097152
        B.N      ??HAL_DMA_PollForTransfer_350
??HAL_DMA_PollForTransfer_354:
        LDR.W    R0,??DataTable2_6  ;; 0x400260a0
        CMP      R2,R0
        BNE.N    ??HAL_DMA_PollForTransfer_355
        MOV      R0,#+2097152
        B.N      ??HAL_DMA_PollForTransfer_350
??HAL_DMA_PollForTransfer_355:
        LDR.W    R0,??HAL_DMA_PollForTransfer_229  ;; 0x400264a0
        CMP      R2,R0
        BNE.N    ??HAL_DMA_PollForTransfer_356
        MOV      R0,#+2097152
        B.N      ??HAL_DMA_PollForTransfer_350
??HAL_DMA_PollForTransfer_356:
        MOV      R0,#+134217728
??HAL_DMA_PollForTransfer_350:
        LDR.W    R1,??HAL_DMA_PollForTransfer_231  ;; 0x40026000
        STR      R0,[R1, #+8]
//  608 
//  609       /* Current memory buffer used is Memory 0 */
//  610       if((hdma->Instance->CR & DMA_SxCR_CT) == 0)
??HAL_DMA_PollForTransfer_327:
        LDR      R0,[R4, #+0]
        LDR      R1,[R0, #+0]
        LSLS     R1,R1,#+12
        BPL.W    ??HAL_DMA_PollForTransfer_357
//  611       {
//  612         /* Change DMA peripheral state */
//  613         hdma->State = HAL_DMA_STATE_READY_MEM0;
//  614       }
//  615       /* Current memory buffer used is Memory 1 */
//  616       else if((hdma->Instance->CR & DMA_SxCR_CT) != 0)
        LDR      R0,[R0, #+0]
        LSLS     R0,R0,#+12
        BPL.W    ??HAL_DMA_PollForTransfer_358
//  617       {
//  618         /* Change DMA peripheral state */
//  619         hdma->State = HAL_DMA_STATE_READY_MEM1;
        MOVS     R0,#+33
        ADD      R1,R4,#+52
        STRB     R0,[R1, #+1]
        B.N      ??HAL_DMA_PollForTransfer_358
//  620       }
//  621     }
//  622     else
//  623     {
//  624       /* Clear the half transfer complete flag */
//  625       __HAL_DMA_CLEAR_FLAG(hdma, __HAL_DMA_GET_HT_FLAG_INDEX(hdma));
??HAL_DMA_PollForTransfer_276:
        CMP      R2,R1
        BCC.N    ??HAL_DMA_PollForTransfer_359
        CMP      R2,R7
        BEQ.N    ??HAL_DMA_PollForTransfer_360
        LDR.W    R3,??DataTable2_7  ;; 0x40026410
        CMP      R2,R3
        BEQ.N    ??HAL_DMA_PollForTransfer_360
        LDR.W    R3,??DataTable2_8  ;; 0x40026070
        CMP      R2,R3
        BEQ.N    ??HAL_DMA_PollForTransfer_360
        LDR.W    R3,??DataTable2_9  ;; 0x40026470
        CMP      R2,R3
        BNE.N    ??HAL_DMA_PollForTransfer_361
??HAL_DMA_PollForTransfer_360:
        MOVS     R2,#+16
        B.N      ??HAL_DMA_PollForTransfer_362
??HAL_DMA_PollForTransfer_361:
        LDR.W    R3,??DataTable2  ;; 0x40026028
        CMP      R2,R3
        BEQ.N    ??HAL_DMA_PollForTransfer_363
        LDR.W    R3,??DataTable2_1  ;; 0x40026428
        CMP      R2,R3
        BEQ.N    ??HAL_DMA_PollForTransfer_363
        LDR.W    R3,??DataTable2_2  ;; 0x40026088
        CMP      R2,R3
        BEQ.N    ??HAL_DMA_PollForTransfer_363
        LDR.W    R3,??DataTable2_3  ;; 0x40026488
        CMP      R2,R3
        BNE.N    ??HAL_DMA_PollForTransfer_364
??HAL_DMA_PollForTransfer_363:
        MOV      R2,#+1024
        B.N      ??HAL_DMA_PollForTransfer_362
??HAL_DMA_PollForTransfer_364:
        LDR.W    R3,??DataTable2_4  ;; 0x40026040
        CMP      R2,R3
        BNE.N    ??HAL_DMA_PollForTransfer_365
        MOV      R2,#+1048576
        B.N      ??HAL_DMA_PollForTransfer_362
??HAL_DMA_PollForTransfer_365:
        LDR.W    R3,??DataTable2_5  ;; 0x40026440
        CMP      R2,R3
        BNE.N    ??HAL_DMA_PollForTransfer_366
        MOV      R2,#+1048576
        B.N      ??HAL_DMA_PollForTransfer_362
??HAL_DMA_PollForTransfer_366:
        LDR.W    R3,??DataTable2_6  ;; 0x400260a0
        CMP      R2,R3
        BNE.N    ??HAL_DMA_PollForTransfer_367
        MOV      R2,#+1048576
        B.N      ??HAL_DMA_PollForTransfer_362
??HAL_DMA_PollForTransfer_367:
        LDR.W    R3,??HAL_DMA_PollForTransfer_229  ;; 0x400264a0
        CMP      R2,R3
        BNE.N    ??HAL_DMA_PollForTransfer_368
        MOV      R2,#+1048576
        B.N      ??HAL_DMA_PollForTransfer_362
??HAL_DMA_PollForTransfer_368:
        MOV      R2,#+67108864
??HAL_DMA_PollForTransfer_362:
        STR      R2,[R0, #+12]
        B.N      ??HAL_DMA_PollForTransfer_369
??HAL_DMA_PollForTransfer_359:
        LDR.W    R3,??HAL_DMA_PollForTransfer_243  ;; 0x400260b9
        CMP      R2,R3
        BCC.N    ??HAL_DMA_PollForTransfer_370
        CMP      R2,R7
        BEQ.N    ??HAL_DMA_PollForTransfer_371
        LDR.W    R3,??DataTable2_7  ;; 0x40026410
        CMP      R2,R3
        BEQ.N    ??HAL_DMA_PollForTransfer_371
        LDR.W    R3,??DataTable2_8  ;; 0x40026070
        CMP      R2,R3
        BEQ.N    ??HAL_DMA_PollForTransfer_371
        LDR.W    R3,??DataTable2_9  ;; 0x40026470
        CMP      R2,R3
        BNE.N    ??HAL_DMA_PollForTransfer_372
??HAL_DMA_PollForTransfer_371:
        MOVS     R2,#+16
        B.N      ??HAL_DMA_PollForTransfer_373
??HAL_DMA_PollForTransfer_372:
        LDR.W    R3,??DataTable2  ;; 0x40026028
        CMP      R2,R3
        BEQ.N    ??HAL_DMA_PollForTransfer_374
        LDR.W    R3,??DataTable2_1  ;; 0x40026428
        CMP      R2,R3
        BEQ.N    ??HAL_DMA_PollForTransfer_374
        LDR.W    R3,??DataTable2_2  ;; 0x40026088
        CMP      R2,R3
        BEQ.N    ??HAL_DMA_PollForTransfer_374
        LDR.W    R3,??DataTable2_3  ;; 0x40026488
        CMP      R2,R3
        BNE.N    ??HAL_DMA_PollForTransfer_375
??HAL_DMA_PollForTransfer_374:
        MOV      R2,#+1024
        B.N      ??HAL_DMA_PollForTransfer_373
??HAL_DMA_PollForTransfer_375:
        LDR.W    R3,??DataTable2_4  ;; 0x40026040
        CMP      R2,R3
        BNE.N    ??HAL_DMA_PollForTransfer_376
        MOV      R2,#+1048576
        B.N      ??HAL_DMA_PollForTransfer_373
??HAL_DMA_PollForTransfer_376:
        LDR.W    R3,??DataTable2_5  ;; 0x40026440
        CMP      R2,R3
        BNE.N    ??HAL_DMA_PollForTransfer_377
        MOV      R2,#+1048576
        B.N      ??HAL_DMA_PollForTransfer_373
??HAL_DMA_PollForTransfer_377:
        LDR.W    R3,??DataTable2_6  ;; 0x400260a0
        CMP      R2,R3
        BNE.N    ??HAL_DMA_PollForTransfer_378
        MOV      R2,#+1048576
        B.N      ??HAL_DMA_PollForTransfer_373
??HAL_DMA_PollForTransfer_378:
        LDR.W    R3,??HAL_DMA_PollForTransfer_229  ;; 0x400264a0
        CMP      R2,R3
        BNE.N    ??HAL_DMA_PollForTransfer_379
        MOV      R2,#+1048576
        B.N      ??HAL_DMA_PollForTransfer_373
??HAL_DMA_PollForTransfer_379:
        MOV      R2,#+67108864
??HAL_DMA_PollForTransfer_373:
        STR      R2,[R0, #+8]
        B.N      ??HAL_DMA_PollForTransfer_369
??HAL_DMA_PollForTransfer_370:
        LDR.W    R3,??HAL_DMA_PollForTransfer_243+0x4  ;; 0x40026059
        CMP      R2,R3
        BCC.N    ??HAL_DMA_PollForTransfer_380
        CMP      R2,R7
        BEQ.N    ??HAL_DMA_PollForTransfer_381
        LDR.W    R3,??DataTable2_7  ;; 0x40026410
        CMP      R2,R3
        BEQ.N    ??HAL_DMA_PollForTransfer_381
        LDR.W    R3,??DataTable2_8  ;; 0x40026070
        CMP      R2,R3
        BEQ.N    ??HAL_DMA_PollForTransfer_381
        LDR.W    R3,??DataTable2_9  ;; 0x40026470
        CMP      R2,R3
        BNE.N    ??HAL_DMA_PollForTransfer_382
??HAL_DMA_PollForTransfer_381:
        MOVS     R2,#+16
        B.N      ??HAL_DMA_PollForTransfer_383
??HAL_DMA_PollForTransfer_382:
        LDR.W    R3,??DataTable2  ;; 0x40026028
        CMP      R2,R3
        BEQ.N    ??HAL_DMA_PollForTransfer_384
        LDR.W    R3,??DataTable2_1  ;; 0x40026428
        CMP      R2,R3
        BEQ.N    ??HAL_DMA_PollForTransfer_384
        LDR.W    R3,??DataTable2_2  ;; 0x40026088
        CMP      R2,R3
        BEQ.N    ??HAL_DMA_PollForTransfer_384
        LDR.W    R3,??DataTable2_3  ;; 0x40026488
        CMP      R2,R3
        BNE.N    ??HAL_DMA_PollForTransfer_385
??HAL_DMA_PollForTransfer_384:
        MOV      R2,#+1024
        B.N      ??HAL_DMA_PollForTransfer_383
??HAL_DMA_PollForTransfer_385:
        LDR.W    R3,??DataTable2_4  ;; 0x40026040
        CMP      R2,R3
        BNE.N    ??HAL_DMA_PollForTransfer_386
        MOV      R2,#+1048576
        B.N      ??HAL_DMA_PollForTransfer_383
??HAL_DMA_PollForTransfer_386:
        LDR.W    R3,??DataTable2_5  ;; 0x40026440
        CMP      R2,R3
        BNE.N    ??HAL_DMA_PollForTransfer_387
        MOV      R2,#+1048576
        B.N      ??HAL_DMA_PollForTransfer_383
??HAL_DMA_PollForTransfer_387:
        LDR.W    R3,??DataTable2_6  ;; 0x400260a0
        CMP      R2,R3
        BNE.N    ??HAL_DMA_PollForTransfer_388
        MOV      R2,#+1048576
        B.N      ??HAL_DMA_PollForTransfer_383
??HAL_DMA_PollForTransfer_388:
        LDR.N    R3,??HAL_DMA_PollForTransfer_229  ;; 0x400264a0
        CMP      R2,R3
        BNE.N    ??HAL_DMA_PollForTransfer_389
        MOV      R2,#+1048576
        B.N      ??HAL_DMA_PollForTransfer_383
??HAL_DMA_PollForTransfer_389:
        MOV      R2,#+67108864
??HAL_DMA_PollForTransfer_383:
        LDR.W    R3,??HAL_DMA_PollForTransfer_231  ;; 0x40026000
        STR      R2,[R3, #+12]
        B.N      ??HAL_DMA_PollForTransfer_369
??HAL_DMA_PollForTransfer_380:
        CMP      R2,R7
        BEQ.N    ??HAL_DMA_PollForTransfer_390
        LDR.W    R3,??DataTable2_7  ;; 0x40026410
        CMP      R2,R3
        BEQ.N    ??HAL_DMA_PollForTransfer_390
        LDR.W    R3,??DataTable2_8  ;; 0x40026070
        CMP      R2,R3
        BEQ.N    ??HAL_DMA_PollForTransfer_390
        LDR.W    R3,??DataTable2_9  ;; 0x40026470
        CMP      R2,R3
        BNE.N    ??HAL_DMA_PollForTransfer_391
??HAL_DMA_PollForTransfer_390:
        MOVS     R2,#+16
        B.N      ??HAL_DMA_PollForTransfer_392
??HAL_DMA_PollForTransfer_391:
        LDR.W    R3,??DataTable2  ;; 0x40026028
        CMP      R2,R3
        BEQ.N    ??HAL_DMA_PollForTransfer_393
        LDR.W    R3,??DataTable2_1  ;; 0x40026428
        CMP      R2,R3
        BEQ.N    ??HAL_DMA_PollForTransfer_393
        LDR.W    R3,??DataTable2_2  ;; 0x40026088
        CMP      R2,R3
        BEQ.N    ??HAL_DMA_PollForTransfer_393
        LDR.W    R3,??DataTable2_3  ;; 0x40026488
        CMP      R2,R3
        BNE.N    ??HAL_DMA_PollForTransfer_394
??HAL_DMA_PollForTransfer_393:
        MOV      R2,#+1024
        B.N      ??HAL_DMA_PollForTransfer_392
??HAL_DMA_PollForTransfer_394:
        LDR.W    R3,??DataTable2_4  ;; 0x40026040
        CMP      R2,R3
        BNE.N    ??HAL_DMA_PollForTransfer_395
        MOV      R2,#+1048576
        B.N      ??HAL_DMA_PollForTransfer_392
??HAL_DMA_PollForTransfer_395:
        LDR.W    R3,??DataTable2_5  ;; 0x40026440
        CMP      R2,R3
        BNE.N    ??HAL_DMA_PollForTransfer_396
        MOV      R2,#+1048576
        B.N      ??HAL_DMA_PollForTransfer_392
??HAL_DMA_PollForTransfer_396:
        LDR.W    R3,??DataTable2_6  ;; 0x400260a0
        CMP      R2,R3
        BNE.N    ??HAL_DMA_PollForTransfer_397
        MOV      R2,#+1048576
        B.N      ??HAL_DMA_PollForTransfer_392
??HAL_DMA_PollForTransfer_397:
        LDR.N    R3,??HAL_DMA_PollForTransfer_229  ;; 0x400264a0
        CMP      R2,R3
        BNE.N    ??HAL_DMA_PollForTransfer_398
        MOV      R2,#+1048576
        B.N      ??HAL_DMA_PollForTransfer_392
??HAL_DMA_PollForTransfer_398:
        MOV      R2,#+67108864
??HAL_DMA_PollForTransfer_392:
        LDR.N    R3,??HAL_DMA_PollForTransfer_231  ;; 0x40026000
        STR      R2,[R3, #+8]
//  626       /* Clear the transfer complete flag */
//  627       __HAL_DMA_CLEAR_FLAG(hdma, __HAL_DMA_GET_TC_FLAG_INDEX(hdma)); 
??HAL_DMA_PollForTransfer_369:
        LDR      R2,[R4, #+0]
        CMP      R2,R1
        BCC.N    ??HAL_DMA_PollForTransfer_399
        CMP      R2,R7
        BEQ.N    ??HAL_DMA_PollForTransfer_400
        LDR.W    R1,??DataTable2_7  ;; 0x40026410
        CMP      R2,R1
        BEQ.N    ??HAL_DMA_PollForTransfer_400
        LDR.W    R1,??DataTable2_8  ;; 0x40026070
        CMP      R2,R1
        BEQ.N    ??HAL_DMA_PollForTransfer_400
        LDR.W    R1,??DataTable2_9  ;; 0x40026470
        CMP      R2,R1
        BNE.N    ??HAL_DMA_PollForTransfer_401
??HAL_DMA_PollForTransfer_400:
        MOVS     R1,#+32
        B.N      ??HAL_DMA_PollForTransfer_402
??HAL_DMA_PollForTransfer_401:
        LDR.W    R1,??DataTable2  ;; 0x40026028
        CMP      R2,R1
        BEQ.N    ??HAL_DMA_PollForTransfer_403
        LDR.W    R1,??DataTable2_1  ;; 0x40026428
        CMP      R2,R1
        BEQ.N    ??HAL_DMA_PollForTransfer_403
        LDR.W    R1,??DataTable2_2  ;; 0x40026088
        CMP      R2,R1
        BEQ.N    ??HAL_DMA_PollForTransfer_403
        LDR.W    R1,??DataTable2_3  ;; 0x40026488
        CMP      R2,R1
        BNE.N    ??HAL_DMA_PollForTransfer_404
??HAL_DMA_PollForTransfer_403:
        MOV      R1,#+2048
        B.N      ??HAL_DMA_PollForTransfer_402
??HAL_DMA_PollForTransfer_404:
        LDR.W    R1,??DataTable2_4  ;; 0x40026040
        CMP      R2,R1
        BNE.N    ??HAL_DMA_PollForTransfer_405
        MOV      R1,#+2097152
        B.N      ??HAL_DMA_PollForTransfer_402
??HAL_DMA_PollForTransfer_405:
        LDR.W    R1,??DataTable2_5  ;; 0x40026440
        CMP      R2,R1
        BNE.N    ??HAL_DMA_PollForTransfer_406
        MOV      R1,#+2097152
        B.N      ??HAL_DMA_PollForTransfer_402
??HAL_DMA_PollForTransfer_406:
        LDR.W    R1,??DataTable2_6  ;; 0x400260a0
        CMP      R2,R1
        BNE.N    ??HAL_DMA_PollForTransfer_407
        MOV      R1,#+2097152
        B.N      ??HAL_DMA_PollForTransfer_402
??HAL_DMA_PollForTransfer_407:
        LDR.N    R1,??HAL_DMA_PollForTransfer_229  ;; 0x400264a0
        CMP      R2,R1
        BNE.N    ??HAL_DMA_PollForTransfer_408
        MOV      R1,#+2097152
        B.N      ??HAL_DMA_PollForTransfer_402
??HAL_DMA_PollForTransfer_408:
        MOV      R1,#+134217728
??HAL_DMA_PollForTransfer_402:
        STR      R1,[R0, #+12]
        B.N      ??HAL_DMA_PollForTransfer_357
??HAL_DMA_PollForTransfer_399:
        LDR.N    R1,??HAL_DMA_PollForTransfer_243  ;; 0x400260b9
        CMP      R2,R1
        BCC.N    ??HAL_DMA_PollForTransfer_409
        CMP      R2,R7
        BEQ.N    ??HAL_DMA_PollForTransfer_410
        LDR.W    R1,??DataTable2_7  ;; 0x40026410
        CMP      R2,R1
        BEQ.N    ??HAL_DMA_PollForTransfer_410
        LDR.W    R1,??DataTable2_8  ;; 0x40026070
        CMP      R2,R1
        BEQ.N    ??HAL_DMA_PollForTransfer_410
        LDR.W    R1,??DataTable2_9  ;; 0x40026470
        CMP      R2,R1
        BNE.N    ??HAL_DMA_PollForTransfer_411
??HAL_DMA_PollForTransfer_410:
        MOVS     R1,#+32
        B.N      ??HAL_DMA_PollForTransfer_412
??HAL_DMA_PollForTransfer_411:
        LDR.W    R1,??DataTable2  ;; 0x40026028
        CMP      R2,R1
        BEQ.N    ??HAL_DMA_PollForTransfer_413
        LDR.W    R1,??DataTable2_1  ;; 0x40026428
        CMP      R2,R1
        BEQ.N    ??HAL_DMA_PollForTransfer_413
        LDR.W    R1,??DataTable2_2  ;; 0x40026088
        CMP      R2,R1
        BEQ.N    ??HAL_DMA_PollForTransfer_413
        LDR.W    R1,??DataTable2_3  ;; 0x40026488
        CMP      R2,R1
        BNE.N    ??HAL_DMA_PollForTransfer_414
??HAL_DMA_PollForTransfer_413:
        MOV      R1,#+2048
        B.N      ??HAL_DMA_PollForTransfer_412
??HAL_DMA_PollForTransfer_414:
        LDR.W    R1,??DataTable2_4  ;; 0x40026040
        CMP      R2,R1
        BNE.N    ??HAL_DMA_PollForTransfer_415
        MOV      R1,#+2097152
        B.N      ??HAL_DMA_PollForTransfer_412
??HAL_DMA_PollForTransfer_415:
        LDR.W    R1,??DataTable2_5  ;; 0x40026440
        CMP      R2,R1
        BNE.N    ??HAL_DMA_PollForTransfer_416
        MOV      R1,#+2097152
        B.N      ??HAL_DMA_PollForTransfer_412
??HAL_DMA_PollForTransfer_416:
        LDR.W    R1,??DataTable2_6  ;; 0x400260a0
        CMP      R2,R1
        BNE.N    ??HAL_DMA_PollForTransfer_417
        MOV      R1,#+2097152
        B.N      ??HAL_DMA_PollForTransfer_412
??HAL_DMA_PollForTransfer_417:
        LDR.N    R1,??HAL_DMA_PollForTransfer_229  ;; 0x400264a0
        CMP      R2,R1
        BNE.N    ??HAL_DMA_PollForTransfer_418
        MOV      R1,#+2097152
        B.N      ??HAL_DMA_PollForTransfer_412
??HAL_DMA_PollForTransfer_418:
        MOV      R1,#+134217728
??HAL_DMA_PollForTransfer_412:
        STR      R1,[R0, #+8]
        B.N      ??HAL_DMA_PollForTransfer_357
??HAL_DMA_PollForTransfer_409:
        LDR.N    R0,??HAL_DMA_PollForTransfer_243+0x4  ;; 0x40026059
        CMP      R2,R0
        BCC.N    ??HAL_DMA_PollForTransfer_419
        CMP      R2,R7
        BEQ.N    ??HAL_DMA_PollForTransfer_420
        LDR.W    R0,??DataTable2_7  ;; 0x40026410
        CMP      R2,R0
        BEQ.N    ??HAL_DMA_PollForTransfer_420
        LDR.W    R0,??DataTable2_8  ;; 0x40026070
        CMP      R2,R0
        BEQ.N    ??HAL_DMA_PollForTransfer_420
        LDR.W    R0,??DataTable2_9  ;; 0x40026470
        CMP      R2,R0
        BNE.N    ??HAL_DMA_PollForTransfer_421
??HAL_DMA_PollForTransfer_420:
        MOVS     R0,#+32
        B.N      ??HAL_DMA_PollForTransfer_422
??HAL_DMA_PollForTransfer_421:
        LDR.W    R0,??DataTable2  ;; 0x40026028
        CMP      R2,R0
        BEQ.N    ??HAL_DMA_PollForTransfer_423
        LDR.W    R0,??DataTable2_1  ;; 0x40026428
        CMP      R2,R0
        BEQ.N    ??HAL_DMA_PollForTransfer_423
        LDR.W    R0,??DataTable2_2  ;; 0x40026088
        CMP      R2,R0
        BEQ.N    ??HAL_DMA_PollForTransfer_423
        LDR.W    R0,??DataTable2_3  ;; 0x40026488
        CMP      R2,R0
        BNE.N    ??HAL_DMA_PollForTransfer_424
??HAL_DMA_PollForTransfer_423:
        MOV      R0,#+2048
        B.N      ??HAL_DMA_PollForTransfer_422
??HAL_DMA_PollForTransfer_424:
        LDR.W    R0,??DataTable2_4  ;; 0x40026040
        CMP      R2,R0
        BNE.N    ??HAL_DMA_PollForTransfer_425
        MOV      R0,#+2097152
        B.N      ??HAL_DMA_PollForTransfer_422
??HAL_DMA_PollForTransfer_425:
        LDR.W    R0,??DataTable2_5  ;; 0x40026440
        CMP      R2,R0
        BNE.N    ??HAL_DMA_PollForTransfer_426
        MOV      R0,#+2097152
        B.N      ??HAL_DMA_PollForTransfer_422
??HAL_DMA_PollForTransfer_426:
        LDR.W    R0,??DataTable2_6  ;; 0x400260a0
        CMP      R2,R0
        BNE.N    ??HAL_DMA_PollForTransfer_427
        MOV      R0,#+2097152
        B.N      ??HAL_DMA_PollForTransfer_422
??HAL_DMA_PollForTransfer_427:
        LDR.N    R0,??HAL_DMA_PollForTransfer_229  ;; 0x400264a0
        CMP      R2,R0
        BNE.N    ??HAL_DMA_PollForTransfer_428
        MOV      R0,#+2097152
        B.N      ??HAL_DMA_PollForTransfer_422
??HAL_DMA_PollForTransfer_428:
        MOV      R0,#+134217728
??HAL_DMA_PollForTransfer_422:
        LDR.N    R1,??HAL_DMA_PollForTransfer_231  ;; 0x40026000
        STR      R0,[R1, #+12]
        B.N      ??HAL_DMA_PollForTransfer_357
??HAL_DMA_PollForTransfer_419:
        CMP      R2,R7
        BEQ.N    ??HAL_DMA_PollForTransfer_429
        LDR.W    R0,??DataTable2_7  ;; 0x40026410
        CMP      R2,R0
        BEQ.N    ??HAL_DMA_PollForTransfer_429
        LDR.W    R0,??DataTable2_8  ;; 0x40026070
        CMP      R2,R0
        BEQ.N    ??HAL_DMA_PollForTransfer_429
        LDR.W    R0,??DataTable2_9  ;; 0x40026470
        CMP      R2,R0
        BNE.N    ??HAL_DMA_PollForTransfer_430
??HAL_DMA_PollForTransfer_429:
        MOVS     R0,#+32
        B.N      ??HAL_DMA_PollForTransfer_431
??HAL_DMA_PollForTransfer_430:
        LDR.W    R0,??DataTable2  ;; 0x40026028
        CMP      R2,R0
        BEQ.N    ??HAL_DMA_PollForTransfer_432
        LDR.W    R0,??DataTable2_1  ;; 0x40026428
        CMP      R2,R0
        BEQ.N    ??HAL_DMA_PollForTransfer_432
        LDR.W    R0,??DataTable2_2  ;; 0x40026088
        CMP      R2,R0
        BEQ.N    ??HAL_DMA_PollForTransfer_432
        LDR.W    R0,??DataTable2_3  ;; 0x40026488
        CMP      R2,R0
        BNE.N    ??HAL_DMA_PollForTransfer_433
??HAL_DMA_PollForTransfer_432:
        MOV      R0,#+2048
        B.N      ??HAL_DMA_PollForTransfer_431
??HAL_DMA_PollForTransfer_433:
        LDR.W    R0,??DataTable2_4  ;; 0x40026040
        CMP      R2,R0
        BNE.N    ??HAL_DMA_PollForTransfer_434
        MOV      R0,#+2097152
        B.N      ??HAL_DMA_PollForTransfer_431
??HAL_DMA_PollForTransfer_434:
        LDR.W    R0,??DataTable2_5  ;; 0x40026440
        CMP      R2,R0
        BNE.N    ??HAL_DMA_PollForTransfer_435
        MOV      R0,#+2097152
        B.N      ??HAL_DMA_PollForTransfer_431
??HAL_DMA_PollForTransfer_435:
        LDR.W    R0,??DataTable2_6  ;; 0x400260a0
        CMP      R2,R0
        BNE.N    ??HAL_DMA_PollForTransfer_436
        MOV      R0,#+2097152
        B.N      ??HAL_DMA_PollForTransfer_431
??HAL_DMA_PollForTransfer_436:
        LDR.N    R0,??HAL_DMA_PollForTransfer_229  ;; 0x400264a0
        CMP      R2,R0
        BNE.N    ??HAL_DMA_PollForTransfer_437
        MOV      R0,#+2097152
        B.N      ??HAL_DMA_PollForTransfer_431
??HAL_DMA_PollForTransfer_437:
        MOV      R0,#+134217728
??HAL_DMA_PollForTransfer_431:
        LDR.N    R1,??HAL_DMA_PollForTransfer_231  ;; 0x40026000
        STR      R0,[R1, #+8]
//  628 
//  629       /* The selected Streamx EN bit is cleared (DMA is disabled and all transfers
//  630          are complete) */
//  631       hdma->State = HAL_DMA_STATE_READY_MEM0;
??HAL_DMA_PollForTransfer_357:
        MOVS     R0,#+17
        ADD      R1,R4,#+52
        STRB     R0,[R1, #+1]
//  632     }
//  633     /* Process Unlocked */
//  634     __HAL_UNLOCK(hdma);
??HAL_DMA_PollForTransfer_358:
        MOVS     R0,#+0
        STRB     R0,[R4, #+52]
        B.N      ??HAL_DMA_PollForTransfer_438
        DATA
??HAL_DMA_PollForTransfer_229:
        DC32     0x400264a0
        THUMB
//  635   }
//  636   else
//  637   { 
//  638     /* Multi_Buffering mode enabled */
//  639     if(((hdma->Instance->CR) & (uint32_t)(DMA_SxCR_DBM)) != 0)
??HAL_DMA_PollForTransfer_275:
        LSLS     R3,R3,#+13
        BPL.W    ??HAL_DMA_PollForTransfer_439
//  640     {
//  641       /* Clear the half transfer complete flag */
//  642       __HAL_DMA_CLEAR_FLAG(hdma, __HAL_DMA_GET_HT_FLAG_INDEX(hdma));
        CMP      R2,R1
        BCC.N    ??HAL_DMA_PollForTransfer_440
        CMP      R2,R7
        BEQ.N    ??HAL_DMA_PollForTransfer_441
        LDR.W    R1,??DataTable2_7  ;; 0x40026410
        CMP      R2,R1
        BEQ.N    ??HAL_DMA_PollForTransfer_441
        LDR.W    R1,??DataTable2_8  ;; 0x40026070
        CMP      R2,R1
        BEQ.N    ??HAL_DMA_PollForTransfer_441
        LDR.W    R1,??DataTable2_9  ;; 0x40026470
        CMP      R2,R1
        BNE.N    ??HAL_DMA_PollForTransfer_442
??HAL_DMA_PollForTransfer_441:
        MOVS     R1,#+16
        B.N      ??HAL_DMA_PollForTransfer_443
??HAL_DMA_PollForTransfer_442:
        LDR.W    R1,??DataTable2  ;; 0x40026028
        CMP      R2,R1
        BEQ.N    ??HAL_DMA_PollForTransfer_444
        LDR.W    R1,??DataTable2_1  ;; 0x40026428
        CMP      R2,R1
        BEQ.N    ??HAL_DMA_PollForTransfer_444
        LDR.W    R1,??DataTable2_2  ;; 0x40026088
        CMP      R2,R1
        BEQ.N    ??HAL_DMA_PollForTransfer_444
        LDR.W    R1,??DataTable2_3  ;; 0x40026488
        CMP      R2,R1
        BNE.N    ??HAL_DMA_PollForTransfer_445
??HAL_DMA_PollForTransfer_444:
        MOV      R1,#+1024
        B.N      ??HAL_DMA_PollForTransfer_443
??HAL_DMA_PollForTransfer_445:
        LDR.W    R1,??DataTable2_4  ;; 0x40026040
        CMP      R2,R1
        BNE.N    ??HAL_DMA_PollForTransfer_446
        MOV      R1,#+1048576
        B.N      ??HAL_DMA_PollForTransfer_443
??HAL_DMA_PollForTransfer_446:
        LDR.W    R1,??DataTable2_5  ;; 0x40026440
        CMP      R2,R1
        BNE.N    ??HAL_DMA_PollForTransfer_447
        MOV      R1,#+1048576
        B.N      ??HAL_DMA_PollForTransfer_443
        DATA
??HAL_DMA_PollForTransfer_231:
        DC32     0x40026000
        THUMB
??HAL_DMA_PollForTransfer_447:
        LDR.W    R1,??DataTable2_6  ;; 0x400260a0
        CMP      R2,R1
        BNE.N    ??HAL_DMA_PollForTransfer_448
        MOV      R1,#+1048576
        B.N      ??HAL_DMA_PollForTransfer_443
??HAL_DMA_PollForTransfer_448:
        LDR.W    R1,??DataTable2_10  ;; 0x400264a0
        CMP      R2,R1
        BNE.N    ??HAL_DMA_PollForTransfer_449
        MOV      R1,#+1048576
        B.N      ??HAL_DMA_PollForTransfer_443
        DATA
??HAL_DMA_PollForTransfer_243:
        DC32     0x400260b9
        DC32     0x40026059
        THUMB
??HAL_DMA_PollForTransfer_449:
        MOV      R1,#+67108864
??HAL_DMA_PollForTransfer_443:
        STR      R1,[R0, #+12]
        B.N      ??HAL_DMA_PollForTransfer_450
??HAL_DMA_PollForTransfer_440:
        LDR.W    R1,??DataTable2_11  ;; 0x400260b9
        CMP      R2,R1
        BCC.N    ??HAL_DMA_PollForTransfer_451
        CMP      R2,R7
        BEQ.N    ??HAL_DMA_PollForTransfer_452
        LDR.W    R1,??DataTable2_7  ;; 0x40026410
        CMP      R2,R1
        BEQ.N    ??HAL_DMA_PollForTransfer_452
        LDR.W    R1,??DataTable2_8  ;; 0x40026070
        CMP      R2,R1
        BEQ.N    ??HAL_DMA_PollForTransfer_452
        LDR.W    R1,??DataTable2_9  ;; 0x40026470
        CMP      R2,R1
        BNE.N    ??HAL_DMA_PollForTransfer_453
??HAL_DMA_PollForTransfer_452:
        MOVS     R1,#+16
        B.N      ??HAL_DMA_PollForTransfer_454
??HAL_DMA_PollForTransfer_453:
        LDR.W    R1,??DataTable2  ;; 0x40026028
        CMP      R2,R1
        BEQ.N    ??HAL_DMA_PollForTransfer_455
        LDR.W    R1,??DataTable2_1  ;; 0x40026428
        CMP      R2,R1
        BEQ.N    ??HAL_DMA_PollForTransfer_455
        LDR.W    R1,??DataTable2_2  ;; 0x40026088
        CMP      R2,R1
        BEQ.N    ??HAL_DMA_PollForTransfer_455
        LDR.W    R1,??DataTable2_3  ;; 0x40026488
        CMP      R2,R1
        BNE.N    ??HAL_DMA_PollForTransfer_456
??HAL_DMA_PollForTransfer_455:
        MOV      R1,#+1024
        B.N      ??HAL_DMA_PollForTransfer_454
??HAL_DMA_PollForTransfer_456:
        LDR.W    R1,??DataTable2_4  ;; 0x40026040
        CMP      R2,R1
        BNE.N    ??HAL_DMA_PollForTransfer_457
        MOV      R1,#+1048576
        B.N      ??HAL_DMA_PollForTransfer_454
??HAL_DMA_PollForTransfer_457:
        LDR.W    R1,??DataTable2_5  ;; 0x40026440
        CMP      R2,R1
        BNE.N    ??HAL_DMA_PollForTransfer_458
        MOV      R1,#+1048576
        B.N      ??HAL_DMA_PollForTransfer_454
??HAL_DMA_PollForTransfer_458:
        LDR.W    R1,??DataTable2_6  ;; 0x400260a0
        CMP      R2,R1
        BNE.N    ??HAL_DMA_PollForTransfer_459
        MOV      R1,#+1048576
        B.N      ??HAL_DMA_PollForTransfer_454
??HAL_DMA_PollForTransfer_459:
        LDR.W    R1,??DataTable2_10  ;; 0x400264a0
        CMP      R2,R1
        BNE.N    ??HAL_DMA_PollForTransfer_460
        MOV      R1,#+1048576
        B.N      ??HAL_DMA_PollForTransfer_454
??HAL_DMA_PollForTransfer_460:
        MOV      R1,#+67108864
??HAL_DMA_PollForTransfer_454:
        STR      R1,[R0, #+8]
        B.N      ??HAL_DMA_PollForTransfer_450
??HAL_DMA_PollForTransfer_451:
        LDR.W    R0,??DataTable2_12  ;; 0x40026059
        CMP      R2,R0
        BCC.N    ??HAL_DMA_PollForTransfer_461
        CMP      R2,R7
        BEQ.N    ??HAL_DMA_PollForTransfer_462
        LDR.W    R0,??DataTable2_7  ;; 0x40026410
        CMP      R2,R0
        BEQ.N    ??HAL_DMA_PollForTransfer_462
        LDR.W    R0,??DataTable2_8  ;; 0x40026070
        CMP      R2,R0
        BEQ.N    ??HAL_DMA_PollForTransfer_462
        LDR.W    R0,??DataTable2_9  ;; 0x40026470
        CMP      R2,R0
        BNE.N    ??HAL_DMA_PollForTransfer_463
??HAL_DMA_PollForTransfer_462:
        MOVS     R0,#+16
        B.N      ??HAL_DMA_PollForTransfer_464
??HAL_DMA_PollForTransfer_463:
        LDR.W    R0,??DataTable2  ;; 0x40026028
        CMP      R2,R0
        BEQ.N    ??HAL_DMA_PollForTransfer_465
        LDR.W    R0,??DataTable2_1  ;; 0x40026428
        CMP      R2,R0
        BEQ.N    ??HAL_DMA_PollForTransfer_465
        LDR.W    R0,??DataTable2_2  ;; 0x40026088
        CMP      R2,R0
        BEQ.N    ??HAL_DMA_PollForTransfer_465
        LDR.W    R0,??DataTable2_3  ;; 0x40026488
        CMP      R2,R0
        BNE.N    ??HAL_DMA_PollForTransfer_466
??HAL_DMA_PollForTransfer_465:
        MOV      R0,#+1024
        B.N      ??HAL_DMA_PollForTransfer_464
??HAL_DMA_PollForTransfer_466:
        LDR.W    R0,??DataTable2_4  ;; 0x40026040
        CMP      R2,R0
        BNE.N    ??HAL_DMA_PollForTransfer_467
        MOV      R0,#+1048576
        B.N      ??HAL_DMA_PollForTransfer_464
??HAL_DMA_PollForTransfer_467:
        LDR.W    R0,??DataTable2_5  ;; 0x40026440
        CMP      R2,R0
        BNE.N    ??HAL_DMA_PollForTransfer_468
        MOV      R0,#+1048576
        B.N      ??HAL_DMA_PollForTransfer_464
??HAL_DMA_PollForTransfer_468:
        LDR.W    R0,??DataTable2_6  ;; 0x400260a0
        CMP      R2,R0
        BNE.N    ??HAL_DMA_PollForTransfer_469
        MOV      R0,#+1048576
        B.N      ??HAL_DMA_PollForTransfer_464
??HAL_DMA_PollForTransfer_469:
        LDR.W    R0,??DataTable2_10  ;; 0x400264a0
        CMP      R2,R0
        BNE.N    ??HAL_DMA_PollForTransfer_470
        MOV      R0,#+1048576
        B.N      ??HAL_DMA_PollForTransfer_464
??HAL_DMA_PollForTransfer_470:
        MOV      R0,#+67108864
??HAL_DMA_PollForTransfer_464:
        LDR.N    R1,??DataTable2_13  ;; 0x40026000
        STR      R0,[R1, #+12]
        B.N      ??HAL_DMA_PollForTransfer_450
??HAL_DMA_PollForTransfer_461:
        CMP      R2,R7
        BEQ.N    ??HAL_DMA_PollForTransfer_471
        LDR.N    R0,??DataTable2_7  ;; 0x40026410
        CMP      R2,R0
        BEQ.N    ??HAL_DMA_PollForTransfer_471
        LDR.N    R0,??DataTable2_8  ;; 0x40026070
        CMP      R2,R0
        BEQ.N    ??HAL_DMA_PollForTransfer_471
        LDR.N    R0,??DataTable2_9  ;; 0x40026470
        CMP      R2,R0
        BNE.N    ??HAL_DMA_PollForTransfer_472
??HAL_DMA_PollForTransfer_471:
        MOVS     R0,#+16
        B.N      ??HAL_DMA_PollForTransfer_473
??HAL_DMA_PollForTransfer_472:
        LDR.N    R0,??DataTable2  ;; 0x40026028
        CMP      R2,R0
        BEQ.N    ??HAL_DMA_PollForTransfer_474
        LDR.N    R0,??DataTable2_1  ;; 0x40026428
        CMP      R2,R0
        BEQ.N    ??HAL_DMA_PollForTransfer_474
        LDR.N    R0,??DataTable2_2  ;; 0x40026088
        CMP      R2,R0
        BEQ.N    ??HAL_DMA_PollForTransfer_474
        LDR.N    R0,??DataTable2_3  ;; 0x40026488
        CMP      R2,R0
        BNE.N    ??HAL_DMA_PollForTransfer_475
??HAL_DMA_PollForTransfer_474:
        MOV      R0,#+1024
        B.N      ??HAL_DMA_PollForTransfer_473
??HAL_DMA_PollForTransfer_475:
        LDR.N    R0,??DataTable2_4  ;; 0x40026040
        CMP      R2,R0
        BNE.N    ??HAL_DMA_PollForTransfer_476
        MOV      R0,#+1048576
        B.N      ??HAL_DMA_PollForTransfer_473
??HAL_DMA_PollForTransfer_476:
        LDR.N    R0,??DataTable2_5  ;; 0x40026440
        CMP      R2,R0
        BNE.N    ??HAL_DMA_PollForTransfer_477
        MOV      R0,#+1048576
        B.N      ??HAL_DMA_PollForTransfer_473
??HAL_DMA_PollForTransfer_477:
        LDR.N    R0,??DataTable2_6  ;; 0x400260a0
        CMP      R2,R0
        BNE.N    ??HAL_DMA_PollForTransfer_478
        MOV      R0,#+1048576
        B.N      ??HAL_DMA_PollForTransfer_473
??HAL_DMA_PollForTransfer_478:
        LDR.N    R0,??DataTable2_10  ;; 0x400264a0
        CMP      R2,R0
        BNE.N    ??HAL_DMA_PollForTransfer_479
        MOV      R0,#+1048576
        B.N      ??HAL_DMA_PollForTransfer_473
??HAL_DMA_PollForTransfer_479:
        MOV      R0,#+67108864
??HAL_DMA_PollForTransfer_473:
        LDR.N    R1,??DataTable2_13  ;; 0x40026000
        STR      R0,[R1, #+8]
//  643 
//  644       /* Current memory buffer used is Memory 0 */
//  645       if((hdma->Instance->CR & DMA_SxCR_CT) == 0)
??HAL_DMA_PollForTransfer_450:
        LDR      R0,[R4, #+0]
        LDR      R1,[R0, #+0]
        LSLS     R1,R1,#+12
        BPL.W    ??HAL_DMA_PollForTransfer_480
//  646       {
//  647         /* Change DMA peripheral state */
//  648         hdma->State = HAL_DMA_STATE_READY_HALF_MEM0;
//  649       }
//  650       /* Current memory buffer used is Memory 1 */
//  651       else if((hdma->Instance->CR & DMA_SxCR_CT) != 0)
        LDR      R0,[R0, #+0]
        LSLS     R0,R0,#+12
        BPL.W    ??HAL_DMA_PollForTransfer_438
//  652       {
//  653         /* Change DMA peripheral state */
//  654         hdma->State = HAL_DMA_STATE_READY_HALF_MEM1;
        MOVS     R0,#+65
        ADD      R1,R4,#+52
        STRB     R0,[R1, #+1]
        B.N      ??HAL_DMA_PollForTransfer_438
//  655       }
//  656     }
//  657     else
//  658     {
//  659       /* Clear the half transfer complete flag */
//  660       __HAL_DMA_CLEAR_FLAG(hdma, __HAL_DMA_GET_HT_FLAG_INDEX(hdma));
??HAL_DMA_PollForTransfer_439:
        CMP      R2,R1
        BCC.N    ??HAL_DMA_PollForTransfer_481
        CMP      R2,R7
        BEQ.N    ??HAL_DMA_PollForTransfer_482
        LDR.N    R1,??DataTable2_7  ;; 0x40026410
        CMP      R2,R1
        BEQ.N    ??HAL_DMA_PollForTransfer_482
        LDR.N    R1,??DataTable2_8  ;; 0x40026070
        CMP      R2,R1
        BEQ.N    ??HAL_DMA_PollForTransfer_482
        LDR.N    R1,??DataTable2_9  ;; 0x40026470
        CMP      R2,R1
        BNE.N    ??HAL_DMA_PollForTransfer_483
??HAL_DMA_PollForTransfer_482:
        MOVS     R1,#+16
        B.N      ??HAL_DMA_PollForTransfer_484
??HAL_DMA_PollForTransfer_483:
        LDR.N    R1,??DataTable2  ;; 0x40026028
        CMP      R2,R1
        BEQ.N    ??HAL_DMA_PollForTransfer_485
        LDR.N    R1,??DataTable2_1  ;; 0x40026428
        CMP      R2,R1
        BEQ.N    ??HAL_DMA_PollForTransfer_485
        LDR.N    R1,??DataTable2_2  ;; 0x40026088
        CMP      R2,R1
        BEQ.N    ??HAL_DMA_PollForTransfer_485
        LDR.N    R1,??DataTable2_3  ;; 0x40026488
        CMP      R2,R1
        BNE.N    ??HAL_DMA_PollForTransfer_486
??HAL_DMA_PollForTransfer_485:
        MOV      R1,#+1024
        B.N      ??HAL_DMA_PollForTransfer_484
??HAL_DMA_PollForTransfer_486:
        LDR.N    R1,??DataTable2_4  ;; 0x40026040
        CMP      R2,R1
        BNE.N    ??HAL_DMA_PollForTransfer_487
        MOV      R1,#+1048576
        B.N      ??HAL_DMA_PollForTransfer_484
??HAL_DMA_PollForTransfer_487:
        LDR.N    R1,??DataTable2_5  ;; 0x40026440
        CMP      R2,R1
        BNE.N    ??HAL_DMA_PollForTransfer_488
        MOV      R1,#+1048576
        B.N      ??HAL_DMA_PollForTransfer_484
??HAL_DMA_PollForTransfer_488:
        LDR.N    R1,??DataTable2_6  ;; 0x400260a0
        CMP      R2,R1
        BNE.N    ??HAL_DMA_PollForTransfer_489
        MOV      R1,#+1048576
        B.N      ??HAL_DMA_PollForTransfer_484
??HAL_DMA_PollForTransfer_489:
        LDR.N    R1,??DataTable2_10  ;; 0x400264a0
        CMP      R2,R1
        BNE.N    ??HAL_DMA_PollForTransfer_490
        MOV      R1,#+1048576
        B.N      ??HAL_DMA_PollForTransfer_484
??HAL_DMA_PollForTransfer_490:
        MOV      R1,#+67108864
??HAL_DMA_PollForTransfer_484:
        STR      R1,[R0, #+12]
        B.N      ??HAL_DMA_PollForTransfer_480
??HAL_DMA_PollForTransfer_481:
        LDR.N    R1,??DataTable2_11  ;; 0x400260b9
        CMP      R2,R1
        BCC.N    ??HAL_DMA_PollForTransfer_491
        CMP      R2,R7
        BEQ.N    ??HAL_DMA_PollForTransfer_492
        LDR.N    R1,??DataTable2_7  ;; 0x40026410
        CMP      R2,R1
        BEQ.N    ??HAL_DMA_PollForTransfer_492
        LDR.N    R1,??DataTable2_8  ;; 0x40026070
        CMP      R2,R1
        BEQ.N    ??HAL_DMA_PollForTransfer_492
        LDR.N    R1,??DataTable2_9  ;; 0x40026470
        CMP      R2,R1
        BNE.N    ??HAL_DMA_PollForTransfer_493
??HAL_DMA_PollForTransfer_492:
        MOVS     R1,#+16
        B.N      ??HAL_DMA_PollForTransfer_494
??HAL_DMA_PollForTransfer_493:
        LDR.N    R1,??DataTable2  ;; 0x40026028
        CMP      R2,R1
        BEQ.N    ??HAL_DMA_PollForTransfer_495
        LDR.N    R1,??DataTable2_1  ;; 0x40026428
        CMP      R2,R1
        BEQ.N    ??HAL_DMA_PollForTransfer_495
        LDR.N    R1,??DataTable2_2  ;; 0x40026088
        CMP      R2,R1
        BEQ.N    ??HAL_DMA_PollForTransfer_495
        LDR.N    R1,??DataTable2_3  ;; 0x40026488
        CMP      R2,R1
        BNE.N    ??HAL_DMA_PollForTransfer_496
??HAL_DMA_PollForTransfer_495:
        MOV      R1,#+1024
        B.N      ??HAL_DMA_PollForTransfer_494
??HAL_DMA_PollForTransfer_496:
        LDR.N    R1,??DataTable2_4  ;; 0x40026040
        CMP      R2,R1
        BNE.N    ??HAL_DMA_PollForTransfer_497
        MOV      R1,#+1048576
        B.N      ??HAL_DMA_PollForTransfer_494
??HAL_DMA_PollForTransfer_497:
        LDR.N    R1,??DataTable2_5  ;; 0x40026440
        CMP      R2,R1
        BNE.N    ??HAL_DMA_PollForTransfer_498
        MOV      R1,#+1048576
        B.N      ??HAL_DMA_PollForTransfer_494
??HAL_DMA_PollForTransfer_498:
        LDR.N    R1,??DataTable2_6  ;; 0x400260a0
        CMP      R2,R1
        BNE.N    ??HAL_DMA_PollForTransfer_499
        MOV      R1,#+1048576
        B.N      ??HAL_DMA_PollForTransfer_494
??HAL_DMA_PollForTransfer_499:
        LDR.N    R1,??DataTable2_10  ;; 0x400264a0
        CMP      R2,R1
        BNE.N    ??HAL_DMA_PollForTransfer_500
        MOV      R1,#+1048576
        B.N      ??HAL_DMA_PollForTransfer_494
??HAL_DMA_PollForTransfer_500:
        MOV      R1,#+67108864
??HAL_DMA_PollForTransfer_494:
        STR      R1,[R0, #+8]
        B.N      ??HAL_DMA_PollForTransfer_480
??HAL_DMA_PollForTransfer_491:
        LDR.N    R0,??DataTable2_12  ;; 0x40026059
        CMP      R2,R0
        BCC.N    ??HAL_DMA_PollForTransfer_501
        CMP      R2,R7
        BEQ.N    ??HAL_DMA_PollForTransfer_502
        LDR.N    R0,??DataTable2_7  ;; 0x40026410
        CMP      R2,R0
        BEQ.N    ??HAL_DMA_PollForTransfer_502
        LDR.N    R0,??DataTable2_8  ;; 0x40026070
        CMP      R2,R0
        BEQ.N    ??HAL_DMA_PollForTransfer_502
        LDR.N    R0,??DataTable2_9  ;; 0x40026470
        CMP      R2,R0
        BNE.N    ??HAL_DMA_PollForTransfer_503
??HAL_DMA_PollForTransfer_502:
        MOVS     R0,#+16
        B.N      ??HAL_DMA_PollForTransfer_504
??HAL_DMA_PollForTransfer_503:
        LDR.N    R0,??DataTable2  ;; 0x40026028
        CMP      R2,R0
        BEQ.N    ??HAL_DMA_PollForTransfer_505
        LDR.N    R0,??DataTable2_1  ;; 0x40026428
        CMP      R2,R0
        BEQ.N    ??HAL_DMA_PollForTransfer_505
        LDR.N    R0,??DataTable2_2  ;; 0x40026088
        CMP      R2,R0
        BEQ.N    ??HAL_DMA_PollForTransfer_505
        LDR.N    R0,??DataTable2_3  ;; 0x40026488
        CMP      R2,R0
        BNE.N    ??HAL_DMA_PollForTransfer_506
??HAL_DMA_PollForTransfer_505:
        MOV      R0,#+1024
        B.N      ??HAL_DMA_PollForTransfer_504
??HAL_DMA_PollForTransfer_506:
        LDR.N    R0,??DataTable2_4  ;; 0x40026040
        CMP      R2,R0
        BNE.N    ??HAL_DMA_PollForTransfer_507
        MOV      R0,#+1048576
        B.N      ??HAL_DMA_PollForTransfer_504
??HAL_DMA_PollForTransfer_507:
        LDR.N    R0,??DataTable2_5  ;; 0x40026440
        CMP      R2,R0
        BNE.N    ??HAL_DMA_PollForTransfer_508
        MOV      R0,#+1048576
        B.N      ??HAL_DMA_PollForTransfer_504
??HAL_DMA_PollForTransfer_508:
        LDR.N    R0,??DataTable2_6  ;; 0x400260a0
        CMP      R2,R0
        BNE.N    ??HAL_DMA_PollForTransfer_509
        MOV      R0,#+1048576
        B.N      ??HAL_DMA_PollForTransfer_504
??HAL_DMA_PollForTransfer_509:
        LDR.N    R0,??DataTable2_10  ;; 0x400264a0
        CMP      R2,R0
        BNE.N    ??HAL_DMA_PollForTransfer_510
        MOV      R0,#+1048576
        B.N      ??HAL_DMA_PollForTransfer_504
??HAL_DMA_PollForTransfer_510:
        MOV      R0,#+67108864
??HAL_DMA_PollForTransfer_504:
        LDR.N    R1,??DataTable2_13  ;; 0x40026000
        STR      R0,[R1, #+12]
        B.N      ??HAL_DMA_PollForTransfer_480
??HAL_DMA_PollForTransfer_501:
        CMP      R2,R7
        BEQ.N    ??HAL_DMA_PollForTransfer_511
        LDR.N    R0,??DataTable2_7  ;; 0x40026410
        CMP      R2,R0
        BEQ.N    ??HAL_DMA_PollForTransfer_511
        LDR.N    R0,??DataTable2_8  ;; 0x40026070
        CMP      R2,R0
        BEQ.N    ??HAL_DMA_PollForTransfer_511
        LDR.N    R0,??DataTable2_9  ;; 0x40026470
        CMP      R2,R0
        BNE.N    ??HAL_DMA_PollForTransfer_512
??HAL_DMA_PollForTransfer_511:
        MOVS     R0,#+16
        B.N      ??HAL_DMA_PollForTransfer_513
??HAL_DMA_PollForTransfer_512:
        LDR.N    R0,??DataTable2  ;; 0x40026028
        CMP      R2,R0
        BEQ.N    ??HAL_DMA_PollForTransfer_514
        LDR.N    R0,??DataTable2_1  ;; 0x40026428
        CMP      R2,R0
        BEQ.N    ??HAL_DMA_PollForTransfer_514
        LDR.N    R0,??DataTable2_2  ;; 0x40026088
        CMP      R2,R0
        BEQ.N    ??HAL_DMA_PollForTransfer_514
        LDR.N    R0,??DataTable2_3  ;; 0x40026488
        CMP      R2,R0
        BNE.N    ??HAL_DMA_PollForTransfer_515
??HAL_DMA_PollForTransfer_514:
        MOV      R0,#+1024
        B.N      ??HAL_DMA_PollForTransfer_513
??HAL_DMA_PollForTransfer_515:
        LDR.N    R0,??DataTable2_4  ;; 0x40026040
        CMP      R2,R0
        BNE.N    ??HAL_DMA_PollForTransfer_516
        MOV      R0,#+1048576
        B.N      ??HAL_DMA_PollForTransfer_513
??HAL_DMA_PollForTransfer_516:
        LDR.N    R0,??DataTable2_5  ;; 0x40026440
        CMP      R2,R0
        BNE.N    ??HAL_DMA_PollForTransfer_517
        MOV      R0,#+1048576
        B.N      ??HAL_DMA_PollForTransfer_513
??HAL_DMA_PollForTransfer_517:
        LDR.N    R0,??DataTable2_6  ;; 0x400260a0
        CMP      R2,R0
        BNE.N    ??HAL_DMA_PollForTransfer_518
        MOV      R0,#+1048576
        B.N      ??HAL_DMA_PollForTransfer_513
??HAL_DMA_PollForTransfer_518:
        LDR.N    R0,??DataTable2_10  ;; 0x400264a0
        CMP      R2,R0
        BNE.N    ??HAL_DMA_PollForTransfer_519
        MOV      R0,#+1048576
        B.N      ??HAL_DMA_PollForTransfer_513
??HAL_DMA_PollForTransfer_519:
        MOV      R0,#+67108864
??HAL_DMA_PollForTransfer_513:
        LDR.N    R1,??DataTable2_13  ;; 0x40026000
        STR      R0,[R1, #+8]
//  661 
//  662       /* Change DMA peripheral state */
//  663       hdma->State = HAL_DMA_STATE_READY_HALF_MEM0;
??HAL_DMA_PollForTransfer_480:
        MOVS     R0,#+49
        ADD      R1,R4,#+52
        STRB     R0,[R1, #+1]
//  664     }
//  665   }
//  666   return HAL_OK;
??HAL_DMA_PollForTransfer_438:
        MOVS     R0,#+0
??HAL_DMA_PollForTransfer_273:
        POP      {R4-R10,PC}      ;; return
//  667 }
          CFI EndBlock cfiBlock6

        SECTION `.text`:CODE:NOROOT(2)
        SECTION_TYPE SHT_PROGBITS, 0
        DATA
??DataTable2:
        DC32     0x40026028

        SECTION `.text`:CODE:NOROOT(2)
        SECTION_TYPE SHT_PROGBITS, 0
        DATA
??DataTable2_1:
        DC32     0x40026428

        SECTION `.text`:CODE:NOROOT(2)
        SECTION_TYPE SHT_PROGBITS, 0
        DATA
??DataTable2_2:
        DC32     0x40026088

        SECTION `.text`:CODE:NOROOT(2)
        SECTION_TYPE SHT_PROGBITS, 0
        DATA
??DataTable2_3:
        DC32     0x40026488

        SECTION `.text`:CODE:NOROOT(2)
        SECTION_TYPE SHT_PROGBITS, 0
        DATA
??DataTable2_4:
        DC32     0x40026040

        SECTION `.text`:CODE:NOROOT(2)
        SECTION_TYPE SHT_PROGBITS, 0
        DATA
??DataTable2_5:
        DC32     0x40026440

        SECTION `.text`:CODE:NOROOT(2)
        SECTION_TYPE SHT_PROGBITS, 0
        DATA
??DataTable2_6:
        DC32     0x400260a0

        SECTION `.text`:CODE:NOROOT(2)
        SECTION_TYPE SHT_PROGBITS, 0
        DATA
??DataTable2_7:
        DC32     0x40026410

        SECTION `.text`:CODE:NOROOT(2)
        SECTION_TYPE SHT_PROGBITS, 0
        DATA
??DataTable2_8:
        DC32     0x40026070

        SECTION `.text`:CODE:NOROOT(2)
        SECTION_TYPE SHT_PROGBITS, 0
        DATA
??DataTable2_9:
        DC32     0x40026470

        SECTION `.text`:CODE:NOROOT(2)
        SECTION_TYPE SHT_PROGBITS, 0
        DATA
??DataTable2_10:
        DC32     0x400264a0

        SECTION `.text`:CODE:NOROOT(2)
        SECTION_TYPE SHT_PROGBITS, 0
        DATA
??DataTable2_11:
        DC32     0x400260b9

        SECTION `.text`:CODE:NOROOT(2)
        SECTION_TYPE SHT_PROGBITS, 0
        DATA
??DataTable2_12:
        DC32     0x40026059

        SECTION `.text`:CODE:NOROOT(2)
        SECTION_TYPE SHT_PROGBITS, 0
        DATA
??DataTable2_13:
        DC32     0x40026000
//  668 
//  669 /**
//  670   * @brief  Handles DMA interrupt request.
//  671   * @param  hdma: pointer to a DMA_HandleTypeDef structure that contains
//  672   *               the configuration information for the specified DMA Stream.  
//  673   * @retval None
//  674   */

        SECTION `.text`:CODE:NOROOT(2)
          CFI Block cfiBlock7 Using cfiCommon0
          CFI Function HAL_DMA_IRQHandler
        THUMB
//  675 void HAL_DMA_IRQHandler(DMA_HandleTypeDef *hdma)
//  676 {
HAL_DMA_IRQHandler:
        PUSH     {R3-R9,LR}
          CFI R14 Frame(CFA, -4)
          CFI R9 Frame(CFA, -8)
          CFI R8 Frame(CFA, -12)
          CFI R7 Frame(CFA, -16)
          CFI R6 Frame(CFA, -20)
          CFI R5 Frame(CFA, -24)
          CFI R4 Frame(CFA, -28)
          CFI CFA R13+32
        MOV      R4,R0
//  677   /* Transfer Error Interrupt management ***************************************/
//  678   if(__HAL_DMA_GET_FLAG(hdma, __HAL_DMA_GET_TE_FLAG_INDEX(hdma)) != RESET)
        LDR      R1,[R4, #+0]
        MOV      R2,R1
        LDR.W    R5,??HAL_DMA_IRQHandler_0  ;; 0x40026400
        LDR.W    R6,??HAL_DMA_IRQHandler_0+0x4  ;; 0x400260b9
        LDR.W    R7,??HAL_DMA_IRQHandler_0+0x8  ;; 0x40026410
        LDR.W    R8,??HAL_DMA_IRQHandler_0+0xC  ;; 0x40026010
        LDR.W    R9,??HAL_DMA_IRQHandler_0+0x10  ;; 0x40026459
        CMP      R2,R9
        BCC.N    ??HAL_DMA_IRQHandler_1
        LDR      R0,[R5, #+4]
        CMP      R2,R8
        BEQ.N    ??HAL_DMA_IRQHandler_2
        CMP      R2,R7
        BEQ.N    ??HAL_DMA_IRQHandler_2
        LDR.W    R3,??HAL_DMA_IRQHandler_0+0x14  ;; 0x40026070
        CMP      R2,R3
        BEQ.N    ??HAL_DMA_IRQHandler_2
        LDR.W    R3,??HAL_DMA_IRQHandler_0+0x18  ;; 0x40026470
        CMP      R2,R3
        BNE.N    ??HAL_DMA_IRQHandler_3
??HAL_DMA_IRQHandler_2:
        MOVS     R2,#+8
        B.N      ??HAL_DMA_IRQHandler_4
??HAL_DMA_IRQHandler_3:
        LDR.W    R3,??HAL_DMA_IRQHandler_0+0x1C  ;; 0x40026028
        CMP      R2,R3
        BEQ.N    ??HAL_DMA_IRQHandler_5
        LDR.W    R3,??HAL_DMA_IRQHandler_0+0x20  ;; 0x40026428
        CMP      R2,R3
        BEQ.N    ??HAL_DMA_IRQHandler_5
        LDR.W    R3,??HAL_DMA_IRQHandler_0+0x24  ;; 0x40026088
        CMP      R2,R3
        BEQ.N    ??HAL_DMA_IRQHandler_5
        LDR.W    R3,??HAL_DMA_IRQHandler_0+0x28  ;; 0x40026488
        CMP      R2,R3
        BNE.N    ??HAL_DMA_IRQHandler_6
??HAL_DMA_IRQHandler_5:
        MOV      R2,#+512
        B.N      ??HAL_DMA_IRQHandler_4
??HAL_DMA_IRQHandler_6:
        LDR.W    R3,??HAL_DMA_IRQHandler_0+0x2C  ;; 0x40026040
        CMP      R2,R3
        BNE.N    ??HAL_DMA_IRQHandler_7
        MOV      R2,#+524288
        B.N      ??HAL_DMA_IRQHandler_4
??HAL_DMA_IRQHandler_7:
        LDR.W    R3,??HAL_DMA_IRQHandler_0+0x30  ;; 0x40026440
        CMP      R2,R3
        BNE.N    ??HAL_DMA_IRQHandler_8
        MOV      R2,#+524288
        B.N      ??HAL_DMA_IRQHandler_4
??HAL_DMA_IRQHandler_8:
        LDR.W    R3,??HAL_DMA_IRQHandler_0+0x34  ;; 0x400260a0
        CMP      R2,R3
        BNE.N    ??HAL_DMA_IRQHandler_9
        MOV      R2,#+524288
        B.N      ??HAL_DMA_IRQHandler_4
??HAL_DMA_IRQHandler_9:
        LDR.W    R3,??HAL_DMA_IRQHandler_0+0x38  ;; 0x400264a0
        CMP      R2,R3
        BNE.N    ??HAL_DMA_IRQHandler_10
        MOV      R2,#+524288
        B.N      ??HAL_DMA_IRQHandler_4
??HAL_DMA_IRQHandler_10:
        MOV      R2,#+33554432
??HAL_DMA_IRQHandler_4:
        ANDS     R0,R2,R0
        B.N      ??HAL_DMA_IRQHandler_11
??HAL_DMA_IRQHandler_1:
        CMP      R2,R6
        BCC.N    ??HAL_DMA_IRQHandler_12
        LDR      R0,[R5, #+0]
        CMP      R2,R8
        BEQ.N    ??HAL_DMA_IRQHandler_13
        CMP      R2,R7
        BEQ.N    ??HAL_DMA_IRQHandler_13
        LDR.W    R3,??HAL_DMA_IRQHandler_0+0x14  ;; 0x40026070
        CMP      R2,R3
        BEQ.N    ??HAL_DMA_IRQHandler_13
        LDR.W    R3,??HAL_DMA_IRQHandler_0+0x18  ;; 0x40026470
        CMP      R2,R3
        BNE.N    ??HAL_DMA_IRQHandler_14
??HAL_DMA_IRQHandler_13:
        MOVS     R2,#+8
        B.N      ??HAL_DMA_IRQHandler_15
??HAL_DMA_IRQHandler_14:
        LDR.W    R3,??HAL_DMA_IRQHandler_0+0x1C  ;; 0x40026028
        CMP      R2,R3
        BEQ.N    ??HAL_DMA_IRQHandler_16
        LDR.W    R3,??HAL_DMA_IRQHandler_0+0x20  ;; 0x40026428
        CMP      R2,R3
        BEQ.N    ??HAL_DMA_IRQHandler_16
        LDR.W    R3,??HAL_DMA_IRQHandler_0+0x24  ;; 0x40026088
        CMP      R2,R3
        BEQ.N    ??HAL_DMA_IRQHandler_16
        LDR.W    R3,??HAL_DMA_IRQHandler_0+0x28  ;; 0x40026488
        CMP      R2,R3
        BNE.N    ??HAL_DMA_IRQHandler_17
??HAL_DMA_IRQHandler_16:
        MOV      R2,#+512
        B.N      ??HAL_DMA_IRQHandler_15
??HAL_DMA_IRQHandler_17:
        LDR.W    R3,??HAL_DMA_IRQHandler_0+0x2C  ;; 0x40026040
        CMP      R2,R3
        BNE.N    ??HAL_DMA_IRQHandler_18
        MOV      R2,#+524288
        B.N      ??HAL_DMA_IRQHandler_15
??HAL_DMA_IRQHandler_18:
        LDR.W    R3,??HAL_DMA_IRQHandler_0+0x30  ;; 0x40026440
        CMP      R2,R3
        BNE.N    ??HAL_DMA_IRQHandler_19
        MOV      R2,#+524288
        B.N      ??HAL_DMA_IRQHandler_15
??HAL_DMA_IRQHandler_19:
        LDR.W    R3,??HAL_DMA_IRQHandler_0+0x34  ;; 0x400260a0
        CMP      R2,R3
        BNE.N    ??HAL_DMA_IRQHandler_20
        MOV      R2,#+524288
        B.N      ??HAL_DMA_IRQHandler_15
??HAL_DMA_IRQHandler_20:
        LDR.W    R3,??HAL_DMA_IRQHandler_0+0x38  ;; 0x400264a0
        CMP      R2,R3
        BNE.N    ??HAL_DMA_IRQHandler_21
        MOV      R2,#+524288
        B.N      ??HAL_DMA_IRQHandler_15
??HAL_DMA_IRQHandler_21:
        MOV      R2,#+33554432
??HAL_DMA_IRQHandler_15:
        ANDS     R0,R2,R0
        B.N      ??HAL_DMA_IRQHandler_11
??HAL_DMA_IRQHandler_12:
        LDR.W    R0,??HAL_DMA_IRQHandler_22  ;; 0x40026000
        LDR.W    R3,??HAL_DMA_IRQHandler_22+0x4  ;; 0x40026059
        CMP      R2,R3
        BCC.N    ??HAL_DMA_IRQHandler_23
        LDR      R0,[R0, #+4]
        CMP      R2,R8
        BEQ.N    ??HAL_DMA_IRQHandler_24
        CMP      R2,R7
        BEQ.N    ??HAL_DMA_IRQHandler_24
        LDR.W    R3,??HAL_DMA_IRQHandler_0+0x14  ;; 0x40026070
        CMP      R2,R3
        BEQ.N    ??HAL_DMA_IRQHandler_24
        LDR.W    R3,??HAL_DMA_IRQHandler_0+0x18  ;; 0x40026470
        CMP      R2,R3
        BNE.N    ??HAL_DMA_IRQHandler_25
??HAL_DMA_IRQHandler_24:
        MOVS     R2,#+8
        B.N      ??HAL_DMA_IRQHandler_26
??HAL_DMA_IRQHandler_25:
        LDR.W    R3,??HAL_DMA_IRQHandler_0+0x1C  ;; 0x40026028
        CMP      R2,R3
        BEQ.N    ??HAL_DMA_IRQHandler_27
        LDR.W    R3,??HAL_DMA_IRQHandler_0+0x20  ;; 0x40026428
        CMP      R2,R3
        BEQ.N    ??HAL_DMA_IRQHandler_27
        LDR.W    R3,??HAL_DMA_IRQHandler_0+0x24  ;; 0x40026088
        CMP      R2,R3
        BEQ.N    ??HAL_DMA_IRQHandler_27
        LDR.W    R3,??HAL_DMA_IRQHandler_0+0x28  ;; 0x40026488
        CMP      R2,R3
        BNE.N    ??HAL_DMA_IRQHandler_28
??HAL_DMA_IRQHandler_27:
        MOV      R2,#+512
        B.N      ??HAL_DMA_IRQHandler_26
??HAL_DMA_IRQHandler_28:
        LDR.W    R3,??HAL_DMA_IRQHandler_0+0x2C  ;; 0x40026040
        CMP      R2,R3
        BNE.N    ??HAL_DMA_IRQHandler_29
        MOV      R2,#+524288
        B.N      ??HAL_DMA_IRQHandler_26
??HAL_DMA_IRQHandler_29:
        LDR.W    R3,??HAL_DMA_IRQHandler_0+0x30  ;; 0x40026440
        CMP      R2,R3
        BNE.N    ??HAL_DMA_IRQHandler_30
        MOV      R2,#+524288
        B.N      ??HAL_DMA_IRQHandler_26
??HAL_DMA_IRQHandler_30:
        LDR.W    R3,??HAL_DMA_IRQHandler_0+0x34  ;; 0x400260a0
        CMP      R2,R3
        BNE.N    ??HAL_DMA_IRQHandler_31
        MOV      R2,#+524288
        B.N      ??HAL_DMA_IRQHandler_26
??HAL_DMA_IRQHandler_31:
        LDR.W    R3,??HAL_DMA_IRQHandler_0+0x38  ;; 0x400264a0
        CMP      R2,R3
        BNE.N    ??HAL_DMA_IRQHandler_32
        MOV      R2,#+524288
        B.N      ??HAL_DMA_IRQHandler_26
??HAL_DMA_IRQHandler_32:
        MOV      R2,#+33554432
??HAL_DMA_IRQHandler_26:
        ANDS     R0,R2,R0
        B.N      ??HAL_DMA_IRQHandler_11
??HAL_DMA_IRQHandler_23:
        LDR      R0,[R0, #+0]
        CMP      R2,R8
        BEQ.N    ??HAL_DMA_IRQHandler_33
        CMP      R2,R7
        BEQ.N    ??HAL_DMA_IRQHandler_33
        LDR.W    R3,??HAL_DMA_IRQHandler_0+0x14  ;; 0x40026070
        CMP      R2,R3
        BEQ.N    ??HAL_DMA_IRQHandler_33
        LDR.W    R3,??HAL_DMA_IRQHandler_0+0x18  ;; 0x40026470
        CMP      R2,R3
        BNE.N    ??HAL_DMA_IRQHandler_34
??HAL_DMA_IRQHandler_33:
        MOVS     R2,#+8
        B.N      ??HAL_DMA_IRQHandler_35
??HAL_DMA_IRQHandler_34:
        LDR.W    R3,??HAL_DMA_IRQHandler_0+0x1C  ;; 0x40026028
        CMP      R2,R3
        BEQ.N    ??HAL_DMA_IRQHandler_36
        LDR.W    R3,??HAL_DMA_IRQHandler_0+0x20  ;; 0x40026428
        CMP      R2,R3
        BEQ.N    ??HAL_DMA_IRQHandler_36
        LDR.W    R3,??HAL_DMA_IRQHandler_0+0x24  ;; 0x40026088
        CMP      R2,R3
        BEQ.N    ??HAL_DMA_IRQHandler_36
        LDR.W    R3,??HAL_DMA_IRQHandler_0+0x28  ;; 0x40026488
        CMP      R2,R3
        BNE.N    ??HAL_DMA_IRQHandler_37
??HAL_DMA_IRQHandler_36:
        MOV      R2,#+512
        B.N      ??HAL_DMA_IRQHandler_35
??HAL_DMA_IRQHandler_37:
        LDR.W    R3,??HAL_DMA_IRQHandler_0+0x2C  ;; 0x40026040
        CMP      R2,R3
        BNE.N    ??HAL_DMA_IRQHandler_38
        MOV      R2,#+524288
        B.N      ??HAL_DMA_IRQHandler_35
??HAL_DMA_IRQHandler_38:
        LDR.W    R3,??HAL_DMA_IRQHandler_0+0x30  ;; 0x40026440
        CMP      R2,R3
        BNE.N    ??HAL_DMA_IRQHandler_39
        MOV      R2,#+524288
        B.N      ??HAL_DMA_IRQHandler_35
??HAL_DMA_IRQHandler_39:
        LDR.W    R3,??HAL_DMA_IRQHandler_0+0x34  ;; 0x400260a0
        CMP      R2,R3
        BNE.N    ??HAL_DMA_IRQHandler_40
        MOV      R2,#+524288
        B.N      ??HAL_DMA_IRQHandler_35
??HAL_DMA_IRQHandler_40:
        LDR.W    R3,??HAL_DMA_IRQHandler_0+0x38  ;; 0x400264a0
        CMP      R2,R3
        BNE.N    ??HAL_DMA_IRQHandler_41
        MOV      R2,#+524288
        B.N      ??HAL_DMA_IRQHandler_35
??HAL_DMA_IRQHandler_41:
        MOV      R2,#+33554432
??HAL_DMA_IRQHandler_35:
        ANDS     R0,R2,R0
??HAL_DMA_IRQHandler_11:
        CMP      R0,#+0
        BEQ.W    ??HAL_DMA_IRQHandler_42
//  679   {
//  680     if(__HAL_DMA_GET_IT_SOURCE(hdma, DMA_IT_TE) != RESET)
        LDR      R0,[R1, #+0]
        LSLS     R0,R0,#+29
        BPL.W    ??HAL_DMA_IRQHandler_42
//  681     {
//  682       /* Disable the transfer error interrupt */
//  683       __HAL_DMA_DISABLE_IT(hdma, DMA_IT_TE);
        LDR      R0,[R1, #+0]
        BIC      R0,R0,#0x4
        STR      R0,[R1, #+0]
//  684 
//  685       /* Clear the transfer error flag */
//  686       __HAL_DMA_CLEAR_FLAG(hdma, __HAL_DMA_GET_TE_FLAG_INDEX(hdma));
        LDR      R1,[R4, #+0]
        CMP      R1,R9
        BCC.N    ??HAL_DMA_IRQHandler_43
        CMP      R1,R8
        BEQ.N    ??HAL_DMA_IRQHandler_44
        CMP      R1,R7
        BEQ.N    ??HAL_DMA_IRQHandler_44
        LDR.W    R0,??HAL_DMA_IRQHandler_0+0x14  ;; 0x40026070
        CMP      R1,R0
        BEQ.N    ??HAL_DMA_IRQHandler_44
        LDR.W    R0,??HAL_DMA_IRQHandler_0+0x18  ;; 0x40026470
        CMP      R1,R0
        BNE.N    ??HAL_DMA_IRQHandler_45
??HAL_DMA_IRQHandler_44:
        MOVS     R0,#+8
        B.N      ??HAL_DMA_IRQHandler_46
??HAL_DMA_IRQHandler_45:
        LDR.W    R0,??HAL_DMA_IRQHandler_0+0x1C  ;; 0x40026028
        CMP      R1,R0
        BEQ.N    ??HAL_DMA_IRQHandler_47
        LDR.W    R0,??HAL_DMA_IRQHandler_0+0x20  ;; 0x40026428
        CMP      R1,R0
        BEQ.N    ??HAL_DMA_IRQHandler_47
        LDR.W    R0,??HAL_DMA_IRQHandler_0+0x24  ;; 0x40026088
        CMP      R1,R0
        BEQ.N    ??HAL_DMA_IRQHandler_47
        LDR.W    R0,??HAL_DMA_IRQHandler_0+0x28  ;; 0x40026488
        CMP      R1,R0
        BNE.N    ??HAL_DMA_IRQHandler_48
??HAL_DMA_IRQHandler_47:
        MOV      R0,#+512
        B.N      ??HAL_DMA_IRQHandler_46
??HAL_DMA_IRQHandler_48:
        LDR.W    R0,??HAL_DMA_IRQHandler_0+0x2C  ;; 0x40026040
        CMP      R1,R0
        BNE.N    ??HAL_DMA_IRQHandler_49
        MOV      R0,#+524288
        B.N      ??HAL_DMA_IRQHandler_46
??HAL_DMA_IRQHandler_49:
        LDR.W    R0,??HAL_DMA_IRQHandler_0+0x30  ;; 0x40026440
        CMP      R1,R0
        BNE.N    ??HAL_DMA_IRQHandler_50
        MOV      R0,#+524288
        B.N      ??HAL_DMA_IRQHandler_46
??HAL_DMA_IRQHandler_50:
        LDR.W    R0,??HAL_DMA_IRQHandler_0+0x34  ;; 0x400260a0
        CMP      R1,R0
        BNE.N    ??HAL_DMA_IRQHandler_51
        MOV      R0,#+524288
        B.N      ??HAL_DMA_IRQHandler_46
??HAL_DMA_IRQHandler_51:
        LDR.W    R0,??HAL_DMA_IRQHandler_0+0x38  ;; 0x400264a0
        CMP      R1,R0
        BNE.N    ??HAL_DMA_IRQHandler_52
        MOV      R0,#+524288
        B.N      ??HAL_DMA_IRQHandler_46
??HAL_DMA_IRQHandler_52:
        MOV      R0,#+33554432
??HAL_DMA_IRQHandler_46:
        STR      R0,[R5, #+12]
        B.N      ??HAL_DMA_IRQHandler_53
??HAL_DMA_IRQHandler_43:
        CMP      R1,R6
        BCC.N    ??HAL_DMA_IRQHandler_54
        CMP      R1,R8
        BEQ.N    ??HAL_DMA_IRQHandler_55
        CMP      R1,R7
        BEQ.N    ??HAL_DMA_IRQHandler_55
        LDR.W    R0,??HAL_DMA_IRQHandler_0+0x14  ;; 0x40026070
        CMP      R1,R0
        BEQ.N    ??HAL_DMA_IRQHandler_55
        LDR.W    R0,??HAL_DMA_IRQHandler_0+0x18  ;; 0x40026470
        CMP      R1,R0
        BNE.N    ??HAL_DMA_IRQHandler_56
??HAL_DMA_IRQHandler_55:
        MOVS     R0,#+8
        B.N      ??HAL_DMA_IRQHandler_57
??HAL_DMA_IRQHandler_56:
        LDR.W    R0,??HAL_DMA_IRQHandler_0+0x1C  ;; 0x40026028
        CMP      R1,R0
        BEQ.N    ??HAL_DMA_IRQHandler_58
        LDR.W    R0,??HAL_DMA_IRQHandler_0+0x20  ;; 0x40026428
        CMP      R1,R0
        BEQ.N    ??HAL_DMA_IRQHandler_58
        LDR.W    R0,??HAL_DMA_IRQHandler_0+0x24  ;; 0x40026088
        CMP      R1,R0
        BEQ.N    ??HAL_DMA_IRQHandler_58
        LDR.W    R0,??HAL_DMA_IRQHandler_0+0x28  ;; 0x40026488
        CMP      R1,R0
        BNE.N    ??HAL_DMA_IRQHandler_59
??HAL_DMA_IRQHandler_58:
        MOV      R0,#+512
        B.N      ??HAL_DMA_IRQHandler_57
??HAL_DMA_IRQHandler_59:
        LDR.W    R0,??HAL_DMA_IRQHandler_0+0x2C  ;; 0x40026040
        CMP      R1,R0
        BNE.N    ??HAL_DMA_IRQHandler_60
        MOV      R0,#+524288
        B.N      ??HAL_DMA_IRQHandler_57
??HAL_DMA_IRQHandler_60:
        LDR.W    R0,??HAL_DMA_IRQHandler_0+0x30  ;; 0x40026440
        CMP      R1,R0
        BNE.N    ??HAL_DMA_IRQHandler_61
        MOV      R0,#+524288
        B.N      ??HAL_DMA_IRQHandler_57
??HAL_DMA_IRQHandler_61:
        LDR.W    R0,??HAL_DMA_IRQHandler_0+0x34  ;; 0x400260a0
        CMP      R1,R0
        BNE.N    ??HAL_DMA_IRQHandler_62
        MOV      R0,#+524288
        B.N      ??HAL_DMA_IRQHandler_57
??HAL_DMA_IRQHandler_62:
        LDR.W    R0,??HAL_DMA_IRQHandler_0+0x38  ;; 0x400264a0
        CMP      R1,R0
        BNE.N    ??HAL_DMA_IRQHandler_63
        MOV      R0,#+524288
        B.N      ??HAL_DMA_IRQHandler_57
??HAL_DMA_IRQHandler_63:
        MOV      R0,#+33554432
??HAL_DMA_IRQHandler_57:
        STR      R0,[R5, #+8]
        B.N      ??HAL_DMA_IRQHandler_53
??HAL_DMA_IRQHandler_54:
        LDR.W    R0,??HAL_DMA_IRQHandler_22  ;; 0x40026000
        LDR.W    R2,??HAL_DMA_IRQHandler_22+0x4  ;; 0x40026059
        CMP      R1,R2
        BCC.N    ??HAL_DMA_IRQHandler_64
        CMP      R1,R8
        BEQ.N    ??HAL_DMA_IRQHandler_65
        CMP      R1,R7
        BEQ.N    ??HAL_DMA_IRQHandler_65
        LDR.W    R2,??HAL_DMA_IRQHandler_0+0x14  ;; 0x40026070
        CMP      R1,R2
        BEQ.N    ??HAL_DMA_IRQHandler_65
        LDR.W    R2,??HAL_DMA_IRQHandler_0+0x18  ;; 0x40026470
        CMP      R1,R2
        BNE.N    ??HAL_DMA_IRQHandler_66
??HAL_DMA_IRQHandler_65:
        MOVS     R1,#+8
        B.N      ??HAL_DMA_IRQHandler_67
??HAL_DMA_IRQHandler_66:
        LDR.W    R2,??HAL_DMA_IRQHandler_0+0x1C  ;; 0x40026028
        CMP      R1,R2
        BEQ.N    ??HAL_DMA_IRQHandler_68
        LDR.W    R2,??HAL_DMA_IRQHandler_0+0x20  ;; 0x40026428
        CMP      R1,R2
        BEQ.N    ??HAL_DMA_IRQHandler_68
        LDR.W    R2,??HAL_DMA_IRQHandler_0+0x24  ;; 0x40026088
        CMP      R1,R2
        BEQ.N    ??HAL_DMA_IRQHandler_68
        LDR.W    R2,??HAL_DMA_IRQHandler_0+0x28  ;; 0x40026488
        CMP      R1,R2
        BNE.N    ??HAL_DMA_IRQHandler_69
??HAL_DMA_IRQHandler_68:
        MOV      R1,#+512
        B.N      ??HAL_DMA_IRQHandler_67
??HAL_DMA_IRQHandler_69:
        LDR.W    R2,??HAL_DMA_IRQHandler_0+0x2C  ;; 0x40026040
        CMP      R1,R2
        BNE.N    ??HAL_DMA_IRQHandler_70
        MOV      R1,#+524288
        B.N      ??HAL_DMA_IRQHandler_67
??HAL_DMA_IRQHandler_70:
        LDR.W    R2,??HAL_DMA_IRQHandler_0+0x30  ;; 0x40026440
        CMP      R1,R2
        BNE.N    ??HAL_DMA_IRQHandler_71
        MOV      R1,#+524288
        B.N      ??HAL_DMA_IRQHandler_67
??HAL_DMA_IRQHandler_71:
        LDR.W    R2,??HAL_DMA_IRQHandler_0+0x34  ;; 0x400260a0
        CMP      R1,R2
        BNE.N    ??HAL_DMA_IRQHandler_72
        MOV      R1,#+524288
        B.N      ??HAL_DMA_IRQHandler_67
??HAL_DMA_IRQHandler_72:
        LDR.W    R2,??HAL_DMA_IRQHandler_0+0x38  ;; 0x400264a0
        CMP      R1,R2
        BNE.N    ??HAL_DMA_IRQHandler_73
        MOV      R1,#+524288
        B.N      ??HAL_DMA_IRQHandler_67
??HAL_DMA_IRQHandler_73:
        MOV      R1,#+33554432
??HAL_DMA_IRQHandler_67:
        STR      R1,[R0, #+12]
        B.N      ??HAL_DMA_IRQHandler_53
??HAL_DMA_IRQHandler_64:
        CMP      R1,R8
        BEQ.N    ??HAL_DMA_IRQHandler_74
        CMP      R1,R7
        BEQ.N    ??HAL_DMA_IRQHandler_74
        LDR.W    R2,??HAL_DMA_IRQHandler_0+0x14  ;; 0x40026070
        CMP      R1,R2
        BEQ.N    ??HAL_DMA_IRQHandler_74
        LDR.W    R2,??HAL_DMA_IRQHandler_0+0x18  ;; 0x40026470
        CMP      R1,R2
        BNE.N    ??HAL_DMA_IRQHandler_75
??HAL_DMA_IRQHandler_74:
        MOVS     R1,#+8
        B.N      ??HAL_DMA_IRQHandler_76
??HAL_DMA_IRQHandler_75:
        LDR.W    R2,??HAL_DMA_IRQHandler_0+0x1C  ;; 0x40026028
        CMP      R1,R2
        BEQ.N    ??HAL_DMA_IRQHandler_77
        LDR.W    R2,??HAL_DMA_IRQHandler_0+0x20  ;; 0x40026428
        CMP      R1,R2
        BEQ.N    ??HAL_DMA_IRQHandler_77
        LDR.W    R2,??HAL_DMA_IRQHandler_0+0x24  ;; 0x40026088
        CMP      R1,R2
        BEQ.N    ??HAL_DMA_IRQHandler_77
        LDR.W    R2,??HAL_DMA_IRQHandler_0+0x28  ;; 0x40026488
        CMP      R1,R2
        BNE.N    ??HAL_DMA_IRQHandler_78
??HAL_DMA_IRQHandler_77:
        MOV      R1,#+512
        B.N      ??HAL_DMA_IRQHandler_76
??HAL_DMA_IRQHandler_78:
        LDR.W    R2,??HAL_DMA_IRQHandler_0+0x2C  ;; 0x40026040
        CMP      R1,R2
        BNE.N    ??HAL_DMA_IRQHandler_79
        MOV      R1,#+524288
        B.N      ??HAL_DMA_IRQHandler_76
??HAL_DMA_IRQHandler_79:
        LDR.W    R2,??HAL_DMA_IRQHandler_0+0x30  ;; 0x40026440
        CMP      R1,R2
        BNE.N    ??HAL_DMA_IRQHandler_80
        MOV      R1,#+524288
        B.N      ??HAL_DMA_IRQHandler_76
??HAL_DMA_IRQHandler_80:
        LDR.W    R2,??HAL_DMA_IRQHandler_0+0x34  ;; 0x400260a0
        CMP      R1,R2
        BNE.N    ??HAL_DMA_IRQHandler_81
        MOV      R1,#+524288
        B.N      ??HAL_DMA_IRQHandler_76
??HAL_DMA_IRQHandler_81:
        LDR.W    R2,??HAL_DMA_IRQHandler_0+0x38  ;; 0x400264a0
        CMP      R1,R2
        BNE.N    ??HAL_DMA_IRQHandler_82
        MOV      R1,#+524288
        B.N      ??HAL_DMA_IRQHandler_76
??HAL_DMA_IRQHandler_82:
        MOV      R1,#+33554432
??HAL_DMA_IRQHandler_76:
        STR      R1,[R0, #+8]
//  687 
//  688       /* Update error code */
//  689       hdma->ErrorCode |= HAL_DMA_ERROR_TE;
??HAL_DMA_IRQHandler_53:
        ADD      R0,R4,#+52
        LDR      R1,[R0, #+24]
        ORR      R1,R1,#0x1
        STR      R1,[R0, #+24]
//  690 
//  691       /* Change the DMA state */
//  692       hdma->State = HAL_DMA_STATE_ERROR;
        MOVS     R1,#+4
        STRB     R1,[R0, #+1]
//  693 
//  694       /* Process Unlocked */
//  695       __HAL_UNLOCK(hdma); 
        MOVS     R1,#+0
        STRB     R1,[R0, #+0]
//  696 
//  697       if(hdma->XferErrorCallback != NULL)
        LDR      R1,[R0, #+20]
        MOVS     R0,R1
        BEQ.N    ??HAL_DMA_IRQHandler_42
//  698       {
//  699         /* Transfer error callback */
//  700         hdma->XferErrorCallback(hdma);
        MOV      R0,R4
          CFI FunCall
        BLX      R1
//  701       }
//  702     }
//  703   }
//  704   /* FIFO Error Interrupt management ******************************************/
//  705   if(__HAL_DMA_GET_FLAG(hdma, __HAL_DMA_GET_FE_FLAG_INDEX(hdma)) != RESET)
??HAL_DMA_IRQHandler_42:
        LDR      R1,[R4, #+0]
        MOV      R2,R1
        CMP      R2,R9
        BCC.N    ??HAL_DMA_IRQHandler_83
        LDR      R0,[R5, #+4]
        CMP      R2,R8
        BEQ.N    ??HAL_DMA_IRQHandler_84
        CMP      R2,R7
        BEQ.N    ??HAL_DMA_IRQHandler_84
        LDR.W    R3,??HAL_DMA_IRQHandler_0+0x14  ;; 0x40026070
        CMP      R2,R3
        BEQ.N    ??HAL_DMA_IRQHandler_84
        LDR.W    R3,??HAL_DMA_IRQHandler_0+0x18  ;; 0x40026470
        CMP      R2,R3
        BNE.N    ??HAL_DMA_IRQHandler_85
??HAL_DMA_IRQHandler_84:
        LDR.W    R2,??HAL_DMA_IRQHandler_22+0x8  ;; 0x800001
        B.N      ??HAL_DMA_IRQHandler_86
??HAL_DMA_IRQHandler_85:
        LDR.W    R3,??HAL_DMA_IRQHandler_0+0x1C  ;; 0x40026028
        CMP      R2,R3
        BEQ.N    ??HAL_DMA_IRQHandler_87
        LDR.W    R3,??HAL_DMA_IRQHandler_0+0x20  ;; 0x40026428
        CMP      R2,R3
        BEQ.N    ??HAL_DMA_IRQHandler_87
        LDR.W    R3,??HAL_DMA_IRQHandler_0+0x24  ;; 0x40026088
        CMP      R2,R3
        BEQ.N    ??HAL_DMA_IRQHandler_87
        LDR.W    R3,??HAL_DMA_IRQHandler_0+0x28  ;; 0x40026488
        CMP      R2,R3
        BNE.N    ??HAL_DMA_IRQHandler_88
??HAL_DMA_IRQHandler_87:
        MOVS     R2,#+64
        B.N      ??HAL_DMA_IRQHandler_86
??HAL_DMA_IRQHandler_88:
        LDR.W    R3,??HAL_DMA_IRQHandler_0+0x2C  ;; 0x40026040
        CMP      R2,R3
        BNE.N    ??HAL_DMA_IRQHandler_89
        MOV      R2,#+65536
        B.N      ??HAL_DMA_IRQHandler_86
??HAL_DMA_IRQHandler_89:
        LDR.W    R3,??HAL_DMA_IRQHandler_0+0x30  ;; 0x40026440
        CMP      R2,R3
        BNE.N    ??HAL_DMA_IRQHandler_90
        MOV      R2,#+65536
        B.N      ??HAL_DMA_IRQHandler_86
??HAL_DMA_IRQHandler_90:
        LDR.W    R3,??HAL_DMA_IRQHandler_0+0x34  ;; 0x400260a0
        CMP      R2,R3
        BNE.N    ??HAL_DMA_IRQHandler_91
        MOV      R2,#+65536
        B.N      ??HAL_DMA_IRQHandler_86
??HAL_DMA_IRQHandler_91:
        LDR.W    R3,??HAL_DMA_IRQHandler_0+0x38  ;; 0x400264a0
        CMP      R2,R3
        BNE.N    ??HAL_DMA_IRQHandler_92
        MOV      R2,#+65536
        B.N      ??HAL_DMA_IRQHandler_86
??HAL_DMA_IRQHandler_92:
        MOV      R2,#+4194304
??HAL_DMA_IRQHandler_86:
        ANDS     R0,R2,R0
        B.N      ??HAL_DMA_IRQHandler_93
??HAL_DMA_IRQHandler_83:
        CMP      R2,R6
        BCC.N    ??HAL_DMA_IRQHandler_94
        LDR      R0,[R5, #+0]
        CMP      R2,R8
        BEQ.N    ??HAL_DMA_IRQHandler_95
        CMP      R2,R7
        BEQ.N    ??HAL_DMA_IRQHandler_95
        LDR.W    R3,??HAL_DMA_IRQHandler_0+0x14  ;; 0x40026070
        CMP      R2,R3
        BEQ.N    ??HAL_DMA_IRQHandler_95
        LDR.W    R3,??HAL_DMA_IRQHandler_0+0x18  ;; 0x40026470
        CMP      R2,R3
        BNE.N    ??HAL_DMA_IRQHandler_96
??HAL_DMA_IRQHandler_95:
        LDR.W    R2,??HAL_DMA_IRQHandler_22+0x8  ;; 0x800001
        B.N      ??HAL_DMA_IRQHandler_97
??HAL_DMA_IRQHandler_96:
        LDR.W    R3,??HAL_DMA_IRQHandler_0+0x1C  ;; 0x40026028
        CMP      R2,R3
        BEQ.N    ??HAL_DMA_IRQHandler_98
        LDR.W    R3,??HAL_DMA_IRQHandler_0+0x20  ;; 0x40026428
        CMP      R2,R3
        BEQ.N    ??HAL_DMA_IRQHandler_98
        LDR.W    R3,??HAL_DMA_IRQHandler_0+0x24  ;; 0x40026088
        CMP      R2,R3
        BEQ.N    ??HAL_DMA_IRQHandler_98
        LDR.W    R3,??HAL_DMA_IRQHandler_0+0x28  ;; 0x40026488
        CMP      R2,R3
        BNE.N    ??HAL_DMA_IRQHandler_99
??HAL_DMA_IRQHandler_98:
        MOVS     R2,#+64
        B.N      ??HAL_DMA_IRQHandler_97
??HAL_DMA_IRQHandler_99:
        LDR.W    R3,??HAL_DMA_IRQHandler_0+0x2C  ;; 0x40026040
        CMP      R2,R3
        BNE.N    ??HAL_DMA_IRQHandler_100
        MOV      R2,#+65536
        B.N      ??HAL_DMA_IRQHandler_97
??HAL_DMA_IRQHandler_100:
        LDR.W    R3,??HAL_DMA_IRQHandler_0+0x30  ;; 0x40026440
        CMP      R2,R3
        BNE.N    ??HAL_DMA_IRQHandler_101
        MOV      R2,#+65536
        B.N      ??HAL_DMA_IRQHandler_97
??HAL_DMA_IRQHandler_101:
        LDR.W    R3,??HAL_DMA_IRQHandler_0+0x34  ;; 0x400260a0
        CMP      R2,R3
        BNE.N    ??HAL_DMA_IRQHandler_102
        MOV      R2,#+65536
        B.N      ??HAL_DMA_IRQHandler_97
??HAL_DMA_IRQHandler_102:
        LDR.W    R3,??HAL_DMA_IRQHandler_0+0x38  ;; 0x400264a0
        CMP      R2,R3
        BNE.N    ??HAL_DMA_IRQHandler_103
        MOV      R2,#+65536
        B.N      ??HAL_DMA_IRQHandler_97
??HAL_DMA_IRQHandler_103:
        MOV      R2,#+4194304
??HAL_DMA_IRQHandler_97:
        ANDS     R0,R2,R0
        B.N      ??HAL_DMA_IRQHandler_93
??HAL_DMA_IRQHandler_94:
        LDR.W    R0,??HAL_DMA_IRQHandler_22  ;; 0x40026000
        LDR.W    R3,??HAL_DMA_IRQHandler_22+0x4  ;; 0x40026059
        CMP      R2,R3
        BCC.N    ??HAL_DMA_IRQHandler_104
        LDR      R0,[R0, #+4]
        CMP      R2,R8
        BEQ.N    ??HAL_DMA_IRQHandler_105
        CMP      R2,R7
        BEQ.N    ??HAL_DMA_IRQHandler_105
        LDR.N    R3,??HAL_DMA_IRQHandler_0+0x14  ;; 0x40026070
        CMP      R2,R3
        BEQ.N    ??HAL_DMA_IRQHandler_105
        LDR.N    R3,??HAL_DMA_IRQHandler_0+0x18  ;; 0x40026470
        CMP      R2,R3
        BNE.N    ??HAL_DMA_IRQHandler_106
??HAL_DMA_IRQHandler_105:
        LDR.W    R2,??HAL_DMA_IRQHandler_22+0x8  ;; 0x800001
        B.N      ??HAL_DMA_IRQHandler_107
??HAL_DMA_IRQHandler_106:
        LDR.N    R3,??HAL_DMA_IRQHandler_0+0x1C  ;; 0x40026028
        CMP      R2,R3
        BEQ.N    ??HAL_DMA_IRQHandler_108
        LDR.N    R3,??HAL_DMA_IRQHandler_0+0x20  ;; 0x40026428
        CMP      R2,R3
        BEQ.N    ??HAL_DMA_IRQHandler_108
        LDR.N    R3,??HAL_DMA_IRQHandler_0+0x24  ;; 0x40026088
        CMP      R2,R3
        BEQ.N    ??HAL_DMA_IRQHandler_108
        LDR.N    R3,??HAL_DMA_IRQHandler_0+0x28  ;; 0x40026488
        CMP      R2,R3
        BNE.N    ??HAL_DMA_IRQHandler_109
??HAL_DMA_IRQHandler_108:
        MOVS     R2,#+64
        B.N      ??HAL_DMA_IRQHandler_107
??HAL_DMA_IRQHandler_109:
        LDR.N    R3,??HAL_DMA_IRQHandler_0+0x2C  ;; 0x40026040
        CMP      R2,R3
        BNE.N    ??HAL_DMA_IRQHandler_110
        MOV      R2,#+65536
        B.N      ??HAL_DMA_IRQHandler_107
??HAL_DMA_IRQHandler_110:
        LDR.N    R3,??HAL_DMA_IRQHandler_0+0x30  ;; 0x40026440
        CMP      R2,R3
        BNE.N    ??HAL_DMA_IRQHandler_111
        MOV      R2,#+65536
        B.N      ??HAL_DMA_IRQHandler_107
??HAL_DMA_IRQHandler_111:
        LDR.N    R3,??HAL_DMA_IRQHandler_0+0x34  ;; 0x400260a0
        CMP      R2,R3
        BNE.N    ??HAL_DMA_IRQHandler_112
        MOV      R2,#+65536
        B.N      ??HAL_DMA_IRQHandler_107
??HAL_DMA_IRQHandler_112:
        LDR.N    R3,??HAL_DMA_IRQHandler_0+0x38  ;; 0x400264a0
        CMP      R2,R3
        BNE.N    ??HAL_DMA_IRQHandler_113
        MOV      R2,#+65536
        B.N      ??HAL_DMA_IRQHandler_107
??HAL_DMA_IRQHandler_113:
        MOV      R2,#+4194304
??HAL_DMA_IRQHandler_107:
        ANDS     R0,R2,R0
        B.N      ??HAL_DMA_IRQHandler_93
??HAL_DMA_IRQHandler_104:
        LDR      R0,[R0, #+0]
        CMP      R2,R8
        BEQ.N    ??HAL_DMA_IRQHandler_114
        CMP      R2,R7
        BEQ.N    ??HAL_DMA_IRQHandler_114
        LDR.N    R3,??HAL_DMA_IRQHandler_0+0x14  ;; 0x40026070
        CMP      R2,R3
