///////////////////////////////////////////////////////////////////////////////
//
// IAR ANSI C/C++ Compiler V7.50.2.10312/W32 for ARM      27/Feb/2016  12:00:27
// Copyright 1999-2015 IAR Systems AB.
//
//    Cpu mode     =  thumb
//    Endian       =  little
//    Source file  =  
//        H:\PhanLeSon\ActivNoise\Microphone\F7\Mic_Array_Project\Mic_Array\Middlewares\ST\STM32_USB_Host_Library\Class\MSC\Src\usbh_msc.c
//    Command line =  
//        H:\PhanLeSon\ActivNoise\Microphone\F7\Mic_Array_Project\Mic_Array\Middlewares\ST\STM32_USB_Host_Library\Class\MSC\Src\usbh_msc.c
//        -D USE_HAL_DRIVER -D STM32F746xx -D USE_STM32746G_DISCO -D
//        USE_IOEXPANDER -D USE_USB_FS -lC
//        H:\PhanLeSon\ActivNoise\Microphone\F7\Mic_Array_Project\Mic_Array\Projects\STM32746G\Applications\Audio\Mic_Array\EWARM\STM32F7\List
//        -lA
//        H:\PhanLeSon\ActivNoise\Microphone\F7\Mic_Array_Project\Mic_Array\Projects\STM32746G\Applications\Audio\Mic_Array\EWARM\STM32F7\List
//        -o
//        H:\PhanLeSon\ActivNoise\Microphone\F7\Mic_Array_Project\Mic_Array\Projects\STM32746G\Applications\Audio\Mic_Array\EWARM\STM32F7\Obj
//        --no_cse --no_unroll --no_inline --no_code_motion --no_tbaa
//        --no_clustering --no_scheduling --debug --endian=little
//        --cpu=Cortex-M7 -e --fpu=VFPv5_sp --dlib_config "D:\Program Files
//        (x86)\IAR Systems\Embedded Workbench
//        7.3\arm\INC\c\DLib_Config_Full.h" -I
//        H:\PhanLeSon\ActivNoise\Microphone\F7\Mic_Array_Project\Mic_Array\Projects\STM32746G\Applications\Audio\Mic_Array\EWARM\..\Inc\
//        -I
//        H:\PhanLeSon\ActivNoise\Microphone\F7\Mic_Array_Project\Mic_Array\Projects\STM32746G\Applications\Audio\Mic_Array\EWARM\..\..\..\..\..\..\Drivers\CMSIS\Device\ST\STM32F7xx\Include\
//        -I
//        H:\PhanLeSon\ActivNoise\Microphone\F7\Mic_Array_Project\Mic_Array\Projects\STM32746G\Applications\Audio\Mic_Array\EWARM\..\..\..\..\..\..\Drivers\STM32F7xx_HAL_Driver\Inc\
//        -I
//        H:\PhanLeSon\ActivNoise\Microphone\F7\Mic_Array_Project\Mic_Array\Projects\STM32746G\Applications\Audio\Mic_Array\EWARM\..\..\..\..\..\..\Drivers\BSP\STM32746G-Discovery\
//        -I
//        H:\PhanLeSon\ActivNoise\Microphone\F7\Mic_Array_Project\Mic_Array\Projects\STM32746G\Applications\Audio\Mic_Array\EWARM\..\..\..\..\..\..\Drivers\BSP\Components\Common\
//        -I
//        H:\PhanLeSon\ActivNoise\Microphone\F7\Mic_Array_Project\Mic_Array\Projects\STM32746G\Applications\Audio\Mic_Array\EWARM\..\..\..\..\..\..\Utilities\Log\
//        -I
//        H:\PhanLeSon\ActivNoise\Microphone\F7\Mic_Array_Project\Mic_Array\Projects\STM32746G\Applications\Audio\Mic_Array\EWARM\..\..\..\..\..\..\Utilities\Fonts\
//        -I
//        H:\PhanLeSon\ActivNoise\Microphone\F7\Mic_Array_Project\Mic_Array\Projects\STM32746G\Applications\Audio\Mic_Array\EWARM\..\..\..\..\..\..\Utilities\CPU\
//        -I
//        H:\PhanLeSon\ActivNoise\Microphone\F7\Mic_Array_Project\Mic_Array\Projects\STM32746G\Applications\Audio\Mic_Array\EWARM\..\..\..\..\..\..\Middlewares\ST\STM32_USB_Device_Library\Core\Inc\
//        -I
//        H:\PhanLeSon\ActivNoise\Microphone\F7\Mic_Array_Project\Mic_Array\Projects\STM32746G\Applications\Audio\Mic_Array\EWARM\..\..\..\..\..\..\Middlewares\ST\STM32_USB_HOST_Library\Core\Inc\
//        -I
//        H:\PhanLeSon\ActivNoise\Microphone\F7\Mic_Array_Project\Mic_Array\Projects\STM32746G\Applications\Audio\Mic_Array\EWARM\..\..\..\..\..\..\Middlewares\ST\STM32_USB_HOST_Library\Class\MSC\Inc\
//        -I
//        H:\PhanLeSon\ActivNoise\Microphone\F7\Mic_Array_Project\Mic_Array\Projects\STM32746G\Applications\Audio\Mic_Array\EWARM\..\..\..\..\..\..\Middlewares\Third_Party\FatFs\src\
//        -I
//        H:\PhanLeSon\ActivNoise\Microphone\F7\Mic_Array_Project\Mic_Array\Projects\STM32746G\Applications\Audio\Mic_Array\EWARM\..\..\..\..\..\..\Middlewares\Third_Party\FatFs\src\drivers\
//        -I
//        H:\PhanLeSon\ActivNoise\Microphone\F7\Mic_Array_Project\Mic_Array\Projects\STM32746G\Applications\Audio\Mic_Array\EWARM\..\..\..\..\..\..\Middlewares\ST\STM32_Audio\Addons\PDM\
//        -I
//        H:\PhanLeSon\ActivNoise\Microphone\F7\Mic_Array_Project\Mic_Array\Projects\STM32746G\Applications\Audio\Mic_Array\EWARM\..\..\..\..\..\..\Middlewares\ST\STM32_USB_Device_Library\Class\AUDIO\Inc\
//        -On --use_c++_inline --require_prototypes -I "D:\Program Files
//        (x86)\IAR Systems\Embedded Workbench 7.3\arm\CMSIS\Include\" -D
//        ARM_MATH_CM7
//    List file    =  
//        H:\PhanLeSon\ActivNoise\Microphone\F7\Mic_Array_Project\Mic_Array\Projects\STM32746G\Applications\Audio\Mic_Array\EWARM\STM32F7\List\usbh_msc.s
//
///////////////////////////////////////////////////////////////////////////////

        RTMODEL "__SystemLibrary", "DLib"
        RTMODEL "__dlib_file_descriptor", "1"
        RTMODEL "__dlib_full_locale_support", "1"
        RTMODEL "__iar_require _Printf", "int_specials,qualifiers"
        AAPCS BASE,INTERWORK,VFP
        PRESERVE8
        REQUIRE8

        #define SHT_PROGBITS 0x1

        EXTERN USBH_AllocPipe
        EXTERN USBH_ClosePipe
        EXTERN USBH_ClrFeature
        EXTERN USBH_FindInterface
        EXTERN USBH_FreePipe
        EXTERN USBH_LL_SetToggle
        EXTERN USBH_MSC_BOT_Init
        EXTERN USBH_MSC_BOT_REQ_GetMaxLUN
        EXTERN USBH_MSC_SCSI_Inquiry
        EXTERN USBH_MSC_SCSI_Read
        EXTERN USBH_MSC_SCSI_ReadCapacity
        EXTERN USBH_MSC_SCSI_RequestSense
        EXTERN USBH_MSC_SCSI_TestUnitReady
        EXTERN USBH_MSC_SCSI_Write
        EXTERN USBH_OpenPipe
        EXTERN USBH_SelectInterface
        EXTERN __aeabi_memcpy
        EXTERN __aeabi_memset
        EXTERN free
        EXTERN malloc
        EXTERN printf

        PUBLIC USBH_MSC_GetLUNInfo
        PUBLIC USBH_MSC_GetMaxLUN
        PUBLIC USBH_MSC_IsReady
        PUBLIC USBH_MSC_Read
        PUBLIC USBH_MSC_UnitIsReady
        PUBLIC USBH_MSC_Write
        PUBLIC USBH_msc
        
          CFI Names cfiNames0
          CFI StackFrame CFA R13 DATA
          CFI Resource R0:32, R1:32, R2:32, R3:32, R4:32, R5:32, R6:32, R7:32
          CFI Resource R8:32, R9:32, R10:32, R11:32, R12:32, R13:32, R14:32
          CFI Resource D0:64, D1:64, D2:64, D3:64, D4:64, D5:64, D6:64, D7:64
          CFI Resource D8:64, D9:64, D10:64, D11:64, D12:64, D13:64, D14:64
          CFI Resource D15:64
          CFI EndNames cfiNames0
        
          CFI Common cfiCommon0 Using cfiNames0
          CFI CodeAlign 2
          CFI DataAlign 4
          CFI ReturnAddress R14 CODE
          CFI CFA R13+0
          CFI R0 Undefined
          CFI R1 Undefined
          CFI R2 Undefined
          CFI R3 Undefined
          CFI R4 SameValue
          CFI R5 SameValue
          CFI R6 SameValue
          CFI R7 SameValue
          CFI R8 SameValue
          CFI R9 SameValue
          CFI R10 SameValue
          CFI R11 SameValue
          CFI R12 Undefined
          CFI R14 SameValue
          CFI D0 Undefined
          CFI D1 Undefined
          CFI D2 Undefined
          CFI D3 Undefined
          CFI D4 Undefined
          CFI D5 Undefined
          CFI D6 Undefined
          CFI D7 Undefined
          CFI D8 SameValue
          CFI D9 SameValue
          CFI D10 SameValue
          CFI D11 SameValue
          CFI D12 SameValue
          CFI D13 SameValue
          CFI D14 SameValue
          CFI D15 SameValue
          CFI EndCommon cfiCommon0
        
// H:\PhanLeSon\ActivNoise\Microphone\F7\Mic_Array_Project\Mic_Array\Middlewares\ST\STM32_USB_Host_Library\Class\MSC\Src\usbh_msc.c
//    1 /**
//    2   ******************************************************************************
//    3   * @file    usbh_msc.c
//    4   * @author  MCD Application Team
//    5   * @version V3.2.1
//    6   * @date    26-June-2015
//    7   * @brief   This file implements the MSC class driver functions
//    8   *          ===================================================================      
//    9   *                                MSC Class  Description
//   10   *          =================================================================== 
//   11   *           This module manages the MSC class V1.0 following the "Universal 
//   12   *           Serial Bus Mass Storage Class (MSC) Bulk-Only Transport (BOT) Version 1.0
//   13   *           Sep. 31, 1999".
//   14   *           This driver implements the following aspects of the specification:
//   15   *             - Bulk-Only Transport protocol
//   16   *             - Subclass : SCSI transparent command set (ref. SCSI Primary Commands - 3 (SPC-3))
//   17   *      
//   18   *  @endverbatim
//   19   *
//   20   ******************************************************************************
//   21   * @attention
//   22   *
//   23   * <h2><center>&copy; COPYRIGHT 2015 STMicroelectronics</center></h2>
//   24   *
//   25   * Licensed under MCD-ST Liberty SW License Agreement V2, (the "License");
//   26   * You may not use this file except in compliance with the License.
//   27   * You may obtain a copy of the License at:
//   28   *
//   29   *        http://www.st.com/software_license_agreement_liberty_v2
//   30   *
//   31   * Unless required by applicable law or agreed to in writing, software 
//   32   * distributed under the License is distributed on an "AS IS" BASIS, 
//   33   * WITHOUT WARRANTIES OR CONDITIONS OF ANY KIND, either express or implied.
//   34   * See the License for the specific language governing permissions and
//   35   * limitations under the License.
//   36   *
//   37   ******************************************************************************
//   38   */
//   39 
//   40 /* Includes ------------------------------------------------------------------*/
//   41 
//   42 #include "usbh_msc.h"
//   43 #include "usbh_msc_bot.h"    
//   44 #include "usbh_msc_scsi.h"
//   45 
//   46 
//   47 /** @addtogroup USBH_LIB
//   48   * @{
//   49   */
//   50 
//   51 /** @addtogroup USBH_CLASS
//   52   * @{
//   53   */
//   54 
//   55 /** @addtogroup USBH_MSC_CLASS
//   56   * @{
//   57   */
//   58   
//   59 /** @defgroup USBH_MSC_CORE 
//   60   * @brief    This file includes the mass storage related functions
//   61   * @{
//   62   */ 
//   63 
//   64 
//   65 /** @defgroup USBH_MSC_CORE_Private_TypesDefinitions
//   66   * @{
//   67   */ 
//   68 /**
//   69   * @}
//   70   */ 
//   71 
//   72 /** @defgroup USBH_MSC_CORE_Private_Defines
//   73   * @{
//   74   */ 
//   75 /**
//   76   * @}
//   77   */ 
//   78 
//   79 /** @defgroup USBH_MSC_CORE_Private_Macros
//   80   * @{
//   81   */ 
//   82 /**
//   83   * @}
//   84   */ 
//   85 
//   86 
//   87 /** @defgroup USBH_MSC_CORE_Private_Variables
//   88   * @{
//   89   */ 
//   90 /**
//   91   * @}
//   92   */ 
//   93 
//   94 
//   95 /** @defgroup USBH_MSC_CORE_Private_FunctionPrototypes
//   96   * @{
//   97   */ 
//   98 
//   99 static USBH_StatusTypeDef USBH_MSC_InterfaceInit  (USBH_HandleTypeDef *phost);
//  100 
//  101 static USBH_StatusTypeDef USBH_MSC_InterfaceDeInit  (USBH_HandleTypeDef *phost);
//  102 
//  103 static USBH_StatusTypeDef USBH_MSC_Process(USBH_HandleTypeDef *phost);
//  104 
//  105 static USBH_StatusTypeDef USBH_MSC_ClassRequest(USBH_HandleTypeDef *phost);
//  106 
//  107 static USBH_StatusTypeDef USBH_MSC_SOFProcess(USBH_HandleTypeDef *phost);
//  108 
//  109 static USBH_StatusTypeDef USBH_MSC_RdWrProcess(USBH_HandleTypeDef *phost, uint8_t lun);
//  110 

        SECTION `.data`:DATA:REORDER:NOROOT(2)
        DATA
//  111 USBH_ClassTypeDef  USBH_msc = 
USBH_msc:
        DC32 ?_0
        DC8 8, 0, 0, 0
        DC32 USBH_MSC_InterfaceInit, USBH_MSC_InterfaceDeInit
        DC32 USBH_MSC_ClassRequest, USBH_MSC_Process, USBH_MSC_SOFProcess, 0H
//  112 {
//  113   "MSC",
//  114   USB_MSC_CLASS,
//  115   USBH_MSC_InterfaceInit,
//  116   USBH_MSC_InterfaceDeInit,
//  117   USBH_MSC_ClassRequest,
//  118   USBH_MSC_Process,
//  119   USBH_MSC_SOFProcess,
//  120   NULL,
//  121 };
//  122 
//  123 
//  124 /**
//  125   * @}
//  126   */ 
//  127 
//  128 
//  129 /** @defgroup USBH_MSC_CORE_Exported_Variables
//  130   * @{
//  131   */ 
//  132 
//  133 /**
//  134   * @}
//  135   */ 
//  136 
//  137 
//  138 /** @defgroup USBH_MSC_CORE_Private_Functions
//  139   * @{
//  140   */ 
//  141 
//  142 
//  143 /**
//  144   * @brief  USBH_MSC_InterfaceInit 
//  145   *         The function init the MSC class.
//  146   * @param  phost: Host handle
//  147   * @retval USBH Status
//  148   */

        SECTION `.text`:CODE:NOROOT(1)
          CFI Block cfiBlock0 Using cfiCommon0
          CFI Function USBH_MSC_InterfaceInit
        THUMB
//  149 static USBH_StatusTypeDef USBH_MSC_InterfaceInit (USBH_HandleTypeDef *phost)
//  150 {	 
USBH_MSC_InterfaceInit:
        PUSH     {R4-R10,LR}
          CFI R14 Frame(CFA, -4)
          CFI R10 Frame(CFA, -8)
          CFI R9 Frame(CFA, -12)
          CFI R8 Frame(CFA, -16)
          CFI R7 Frame(CFA, -20)
          CFI R6 Frame(CFA, -24)
          CFI R5 Frame(CFA, -28)
          CFI R4 Frame(CFA, -32)
          CFI CFA R13+32
        SUB      SP,SP,#+16
          CFI CFA R13+48
        MOVS     R4,R0
//  151   uint8_t interface = 0; 
        MOVS     R5,#+0
//  152   USBH_StatusTypeDef status = USBH_FAIL ;
        MOVS     R6,#+2
//  153   MSC_HandleTypeDef *MSC_Handle;
//  154   
//  155   interface = USBH_FindInterface(phost, phost->pActiveClass->ClassCode, MSC_TRANSPARENT, MSC_BOT);
        MOVS     R3,#+80
        MOVS     R2,#+6
        LDR      R0,[R4, #+612]
        LDRB     R1,[R0, #+4]
        MOVS     R0,R4
          CFI FunCall USBH_FindInterface
        BL       USBH_FindInterface
        MOVS     R5,R0
//  156   
//  157   if(interface == 0xFF) /* Not Valid Interface */
        UXTB     R5,R5            ;; ZeroExt  R5,R5,#+24,#+24
        CMP      R5,#+255
        BNE.N    ??USBH_MSC_InterfaceInit_0
//  158   {
//  159     USBH_DbgLog ("Cannot Find the interface for %s class.", phost->pActiveClass->Name);
//  160     status = USBH_FAIL;      
        MOVS     R0,#+2
        MOVS     R6,R0
        B.N      ??USBH_MSC_InterfaceInit_1
//  161   }
//  162   else
//  163   {
//  164     USBH_SelectInterface (phost, interface);
??USBH_MSC_InterfaceInit_0:
        MOVS     R1,R5
        UXTB     R1,R1            ;; ZeroExt  R1,R1,#+24,#+24
        MOVS     R0,R4
          CFI FunCall USBH_SelectInterface
        BL       USBH_SelectInterface
//  165     
//  166     phost->pActiveClass->pData = (MSC_HandleTypeDef *)USBH_malloc (sizeof(MSC_HandleTypeDef));
        MOV      R0,#+256
          CFI FunCall malloc
        BL       malloc
        LDR      R1,[R4, #+612]
        STR      R0,[R1, #+28]
//  167     MSC_Handle =  (MSC_HandleTypeDef *) phost->pActiveClass->pData;
        LDR      R0,[R4, #+612]
        LDR      R0,[R0, #+28]
        MOVS     R7,R0
//  168     
//  169     if(phost->device.CfgDesc.Itf_Desc[phost->device.current_interface].Ep_Desc[0].bEndpointAddress & 0x80)
        LDRB     R0,[R4, #+543]
        MOVS     R1,#+34
        MLA      R0,R1,R0,R4
        LDRB     R0,[R0, #+584]
        LSLS     R0,R0,#+24
        BPL.N    ??USBH_MSC_InterfaceInit_2
//  170     {
//  171       MSC_Handle->InEp = (phost->device.CfgDesc.Itf_Desc[phost->device.current_interface].Ep_Desc[0].bEndpointAddress);
        LDRB     R0,[R4, #+543]
        MOVS     R1,#+34
        MLA      R0,R1,R0,R4
        LDRB     R0,[R0, #+584]
        STRB     R0,[R7, #+7]
//  172       MSC_Handle->InEpSize  = phost->device.CfgDesc.Itf_Desc[phost->device.current_interface].Ep_Desc[0].wMaxPacketSize;
        LDRB     R0,[R4, #+543]
        MOVS     R1,#+34
        MLA      R0,R1,R0,R4
        LDRH     R0,[R0, #+586]
        STRH     R0,[R7, #+10]
        B.N      ??USBH_MSC_InterfaceInit_3
//  173     }
//  174     else
//  175     {
//  176       MSC_Handle->OutEp = (phost->device.CfgDesc.Itf_Desc[phost->device.current_interface].Ep_Desc[0].bEndpointAddress);
??USBH_MSC_InterfaceInit_2:
        LDRB     R0,[R4, #+543]
        MOVS     R1,#+34
        MLA      R0,R1,R0,R4
        LDRB     R0,[R0, #+584]
        STRB     R0,[R7, #+6]
//  177       MSC_Handle->OutEpSize  = phost->device.CfgDesc.Itf_Desc[phost->device.current_interface].Ep_Desc[0].wMaxPacketSize;      
        LDRB     R0,[R4, #+543]
        MOVS     R1,#+34
        MLA      R0,R1,R0,R4
        LDRH     R0,[R0, #+586]
        STRH     R0,[R7, #+8]
//  178     }
//  179     
//  180     if(phost->device.CfgDesc.Itf_Desc[phost->device.current_interface].Ep_Desc[1].bEndpointAddress & 0x80)
??USBH_MSC_InterfaceInit_3:
        LDRB     R0,[R4, #+543]
        MOVS     R1,#+34
        MLA      R0,R1,R0,R4
        LDRB     R0,[R0, #+592]
        LSLS     R0,R0,#+24
        BPL.N    ??USBH_MSC_InterfaceInit_4
//  181     {
//  182       MSC_Handle->InEp = (phost->device.CfgDesc.Itf_Desc[phost->device.current_interface].Ep_Desc[1].bEndpointAddress);
        LDRB     R0,[R4, #+543]
        MOVS     R1,#+34
        MLA      R0,R1,R0,R4
        LDRB     R0,[R0, #+592]
        STRB     R0,[R7, #+7]
//  183       MSC_Handle->InEpSize  = phost->device.CfgDesc.Itf_Desc[phost->device.current_interface].Ep_Desc[1].wMaxPacketSize;      
        LDRB     R0,[R4, #+543]
        MOVS     R1,#+34
        MLA      R0,R1,R0,R4
        LDRH     R0,[R0, #+594]
        STRH     R0,[R7, #+10]
        B.N      ??USBH_MSC_InterfaceInit_5
//  184     }
//  185     else
//  186     {
//  187       MSC_Handle->OutEp = (phost->device.CfgDesc.Itf_Desc[phost->device.current_interface].Ep_Desc[1].bEndpointAddress);
??USBH_MSC_InterfaceInit_4:
        LDRB     R0,[R4, #+543]
        MOVS     R1,#+34
        MLA      R0,R1,R0,R4
        LDRB     R0,[R0, #+592]
        STRB     R0,[R7, #+6]
//  188       MSC_Handle->OutEpSize  = phost->device.CfgDesc.Itf_Desc[phost->device.current_interface].Ep_Desc[1].wMaxPacketSize;      
        LDRB     R0,[R4, #+543]
        MOVS     R1,#+34
        MLA      R0,R1,R0,R4
        LDRH     R0,[R0, #+594]
        STRH     R0,[R7, #+8]
//  189     }
//  190     
//  191     MSC_Handle->current_lun = 0;
??USBH_MSC_InterfaceInit_5:
        MOVS     R0,#+0
        STRH     R0,[R7, #+248]
//  192     MSC_Handle->rw_lun = 0;
        MOVS     R0,#+0
        STRH     R0,[R7, #+250]
//  193     MSC_Handle->state = MSC_INIT;
        MOVS     R0,#+0
        STRB     R0,[R7, #+12]
//  194     MSC_Handle->error = MSC_OK;
        MOVS     R0,#+0
        STRB     R0,[R7, #+13]
//  195     MSC_Handle->req_state = MSC_REQ_IDLE;
        MOVS     R0,#+0
        STRB     R0,[R7, #+14]
//  196     MSC_Handle->OutPipe = USBH_AllocPipe(phost, MSC_Handle->OutEp);
        LDRB     R1,[R7, #+6]
        MOVS     R0,R4
          CFI FunCall USBH_AllocPipe
        BL       USBH_AllocPipe
        STRB     R0,[R7, #+5]
//  197     MSC_Handle->InPipe = USBH_AllocPipe(phost, MSC_Handle->InEp);
        LDRB     R1,[R7, #+7]
        MOVS     R0,R4
          CFI FunCall USBH_AllocPipe
        BL       USBH_AllocPipe
        STRB     R0,[R7, #+4]
//  198 
//  199     USBH_MSC_BOT_Init(phost);
        MOVS     R0,R4
          CFI FunCall USBH_MSC_BOT_Init
        BL       USBH_MSC_BOT_Init
//  200     
//  201     /* De-Initialize LUNs information */
//  202     USBH_memset(MSC_Handle->unit, 0, sizeof(MSC_Handle->unit));
        MOVS     R8,#+104
        MOVS     R9,#+0
        ADDS     R10,R7,#+144
        MOV      R2,R9
        MOV      R1,R8
        MOV      R0,R10
          CFI FunCall __aeabi_memset
        BL       __aeabi_memset
//  203     
//  204     /* Open the new channels */
//  205     USBH_OpenPipe  (phost,
//  206                     MSC_Handle->OutPipe,
//  207                     MSC_Handle->OutEp,
//  208                     phost->device.address,
//  209                     phost->device.speed,
//  210                     USB_EP_TYPE_BULK,
//  211                     MSC_Handle->OutEpSize);  
        LDRH     R0,[R7, #+8]
        STR      R0,[SP, #+8]
        MOVS     R0,#+2
        STR      R0,[SP, #+4]
        LDRB     R0,[R4, #+541]
        STR      R0,[SP, #+0]
        LDRB     R3,[R4, #+540]
        LDRB     R2,[R7, #+6]
        LDRB     R1,[R7, #+5]
        MOVS     R0,R4
          CFI FunCall USBH_OpenPipe
        BL       USBH_OpenPipe
//  212     
//  213     USBH_OpenPipe  (phost,
//  214                     MSC_Handle->InPipe,
//  215                     MSC_Handle->InEp,
//  216                     phost->device.address,
//  217                     phost->device.speed,
//  218                     USB_EP_TYPE_BULK,
//  219                     MSC_Handle->InEpSize);     
        LDRH     R0,[R7, #+10]
        STR      R0,[SP, #+8]
        MOVS     R0,#+2
        STR      R0,[SP, #+4]
        LDRB     R0,[R4, #+541]
        STR      R0,[SP, #+0]
        LDRB     R3,[R4, #+540]
        LDRB     R2,[R7, #+7]
        LDRB     R1,[R7, #+4]
        MOVS     R0,R4
          CFI FunCall USBH_OpenPipe
        BL       USBH_OpenPipe
//  220     
//  221     
//  222     USBH_LL_SetToggle  (phost, MSC_Handle->InPipe,0);
        MOVS     R2,#+0
        LDRB     R1,[R7, #+4]
        MOVS     R0,R4
          CFI FunCall USBH_LL_SetToggle
        BL       USBH_LL_SetToggle
//  223     USBH_LL_SetToggle  (phost, MSC_Handle->OutPipe,0);
        MOVS     R2,#+0
        LDRB     R1,[R7, #+5]
        MOVS     R0,R4
          CFI FunCall USBH_LL_SetToggle
        BL       USBH_LL_SetToggle
//  224     status = USBH_OK; 
        MOVS     R0,#+0
        MOVS     R6,R0
//  225   }
//  226   return status;
??USBH_MSC_InterfaceInit_1:
        MOVS     R0,R6
        UXTB     R0,R0            ;; ZeroExt  R0,R0,#+24,#+24
        ADD      SP,SP,#+16
          CFI CFA R13+32
        POP      {R4-R10,PC}      ;; return
//  227 }
          CFI EndBlock cfiBlock0
//  228 
//  229 /**
//  230   * @brief  USBH_MSC_InterfaceDeInit 
//  231   *         The function DeInit the Pipes used for the MSC class.
//  232   * @param  phost: Host handle
//  233   * @retval USBH Status
//  234   */

        SECTION `.text`:CODE:NOROOT(1)
          CFI Block cfiBlock1 Using cfiCommon0
          CFI Function USBH_MSC_InterfaceDeInit
        THUMB
//  235 USBH_StatusTypeDef USBH_MSC_InterfaceDeInit (USBH_HandleTypeDef *phost)
//  236 {
USBH_MSC_InterfaceDeInit:
        PUSH     {R3-R5,LR}
          CFI R14 Frame(CFA, -4)
          CFI R5 Frame(CFA, -8)
          CFI R4 Frame(CFA, -12)
          CFI CFA R13+16
        MOVS     R4,R0
//  237   MSC_HandleTypeDef *MSC_Handle =  (MSC_HandleTypeDef *) phost->pActiveClass->pData;
        LDR      R0,[R4, #+612]
        LDR      R5,[R0, #+28]
//  238 
//  239   if ( MSC_Handle->OutPipe)
        LDRB     R0,[R5, #+5]
        CMP      R0,#+0
        BEQ.N    ??USBH_MSC_InterfaceDeInit_0
//  240   {
//  241     USBH_ClosePipe(phost, MSC_Handle->OutPipe);
        LDRB     R1,[R5, #+5]
        MOVS     R0,R4
          CFI FunCall USBH_ClosePipe
        BL       USBH_ClosePipe
//  242     USBH_FreePipe  (phost, MSC_Handle->OutPipe);
        LDRB     R1,[R5, #+5]
        MOVS     R0,R4
          CFI FunCall USBH_FreePipe
        BL       USBH_FreePipe
//  243     MSC_Handle->OutPipe = 0;     /* Reset the Channel as Free */
        MOVS     R0,#+0
        STRB     R0,[R5, #+5]
//  244   }
//  245   
//  246   if ( MSC_Handle->InPipe)
??USBH_MSC_InterfaceDeInit_0:
        LDRB     R0,[R5, #+4]
        CMP      R0,#+0
        BEQ.N    ??USBH_MSC_InterfaceDeInit_1
//  247   {
//  248     USBH_ClosePipe(phost, MSC_Handle->InPipe);
        LDRB     R1,[R5, #+4]
        MOVS     R0,R4
          CFI FunCall USBH_ClosePipe
        BL       USBH_ClosePipe
//  249     USBH_FreePipe  (phost, MSC_Handle->InPipe);
        LDRB     R1,[R5, #+4]
        MOVS     R0,R4
          CFI FunCall USBH_FreePipe
        BL       USBH_FreePipe
//  250     MSC_Handle->InPipe = 0;     /* Reset the Channel as Free */
        MOVS     R0,#+0
        STRB     R0,[R5, #+4]
//  251   } 
//  252 
//  253   if(phost->pActiveClass->pData)
??USBH_MSC_InterfaceDeInit_1:
        LDR      R0,[R4, #+612]
        LDR      R0,[R0, #+28]
        CMP      R0,#+0
        BEQ.N    ??USBH_MSC_InterfaceDeInit_2
//  254   {
//  255     USBH_free (phost->pActiveClass->pData);
        LDR      R0,[R4, #+612]
        LDR      R0,[R0, #+28]
          CFI FunCall free
        BL       free
//  256     phost->pActiveClass->pData = 0;
        MOVS     R0,#+0
        LDR      R1,[R4, #+612]
        STR      R0,[R1, #+28]
//  257   }
//  258   
//  259   return USBH_OK;
??USBH_MSC_InterfaceDeInit_2:
        MOVS     R0,#+0
        POP      {R1,R4,R5,PC}    ;; return
//  260 }
          CFI EndBlock cfiBlock1
//  261 
//  262 /**
//  263   * @brief  USBH_MSC_ClassRequest 
//  264   *         The function is responsible for handling Standard requests
//  265   *         for MSC class.
//  266   * @param  phost: Host handle
//  267   * @retval USBH Status
//  268   */

        SECTION `.text`:CODE:NOROOT(1)
          CFI Block cfiBlock2 Using cfiCommon0
          CFI Function USBH_MSC_ClassRequest
        THUMB
//  269 static USBH_StatusTypeDef USBH_MSC_ClassRequest(USBH_HandleTypeDef *phost)
//  270 {   
USBH_MSC_ClassRequest:
        PUSH     {R3-R7,LR}
          CFI R14 Frame(CFA, -4)
          CFI R7 Frame(CFA, -8)
          CFI R6 Frame(CFA, -12)
          CFI R5 Frame(CFA, -16)
          CFI R4 Frame(CFA, -20)
          CFI CFA R13+24
        MOVS     R4,R0
//  271   MSC_HandleTypeDef *MSC_Handle =  (MSC_HandleTypeDef *) phost->pActiveClass->pData;  
        LDR      R0,[R4, #+612]
        LDR      R5,[R0, #+28]
//  272   USBH_StatusTypeDef status = USBH_BUSY;
        MOVS     R6,#+1
//  273   uint8_t i;
//  274   
//  275   /* Switch MSC REQ state machine */
//  276   switch (MSC_Handle->req_state)
        LDRB     R0,[R5, #+14]
        CMP      R0,#+0
        BEQ.N    ??USBH_MSC_ClassRequest_0
        CMP      R0,#+2
        BEQ.N    ??USBH_MSC_ClassRequest_0
        CMP      R0,#+3
        BEQ.N    ??USBH_MSC_ClassRequest_1
        B.N      ??USBH_MSC_ClassRequest_2
//  277   {
//  278   case MSC_REQ_IDLE:
//  279   case MSC_REQ_GET_MAX_LUN:   
//  280     /* Issue GetMaxLUN request */
//  281     status = USBH_MSC_BOT_REQ_GetMaxLUN(phost, (uint8_t *)&MSC_Handle->max_lun);
??USBH_MSC_ClassRequest_0:
        MOVS     R1,R5
        MOVS     R0,R4
          CFI FunCall USBH_MSC_BOT_REQ_GetMaxLUN
        BL       USBH_MSC_BOT_REQ_GetMaxLUN
        MOVS     R6,R0
//  282     
//  283     /* When devices do not support the GetMaxLun request, this should
//  284        be considred as only one logical unit is supported */
//  285     if(status == USBH_NOT_SUPPORTED)
        UXTB     R6,R6            ;; ZeroExt  R6,R6,#+24,#+24
        CMP      R6,#+3
        BNE.N    ??USBH_MSC_ClassRequest_3
//  286     {
//  287       MSC_Handle->max_lun = 0;
        MOVS     R0,#+0
        STR      R0,[R5, #+0]
//  288       status = USBH_OK;
        MOVS     R0,#+0
        MOVS     R6,R0
//  289     }
//  290     
//  291     if(status == USBH_OK)
??USBH_MSC_ClassRequest_3:
        UXTB     R6,R6            ;; ZeroExt  R6,R6,#+24,#+24
        CMP      R6,#+0
        BNE.N    ??USBH_MSC_ClassRequest_4
//  292     {
//  293       MSC_Handle->max_lun = (uint8_t )(MSC_Handle->max_lun) + 1;
        LDRB     R0,[R5, #+0]
        ADDS     R0,R0,#+1
        STR      R0,[R5, #+0]
//  294       USBH_UsrLog ("Number of supported LUN: %lu", (int32_t)(MSC_Handle->max_lun));
        LDR      R1,[R5, #+0]
        LDR.W    R0,??DataTable2_1
          CFI FunCall printf
        BL       printf
        ADR.N    R0,??DataTable0  ;; "\n"
          CFI FunCall printf
        BL       printf
//  295       
//  296       for(i = 0; i < MSC_Handle->max_lun; i++)
        MOVS     R0,#+0
        MOVS     R7,R0
??USBH_MSC_ClassRequest_5:
        UXTB     R7,R7            ;; ZeroExt  R7,R7,#+24,#+24
        LDR      R0,[R5, #+0]
        CMP      R7,R0
        BCS.N    ??USBH_MSC_ClassRequest_4
//  297       {
//  298         MSC_Handle->unit[i].prev_ready_state = USBH_FAIL;
        MOVS     R0,#+2
        UXTB     R7,R7            ;; ZeroExt  R7,R7,#+24,#+24
        MOVS     R1,#+52
        MLA      R1,R1,R7,R5
        STRB     R0,[R1, #+146]
//  299         MSC_Handle->unit[i].state_changed = 0;
        MOVS     R0,#+0
        UXTB     R7,R7            ;; ZeroExt  R7,R7,#+24,#+24
        MOVS     R1,#+52
        MLA      R1,R1,R7,R5
        STRB     R0,[R1, #+193]
//  300       }
        ADDS     R7,R7,#+1
        B.N      ??USBH_MSC_ClassRequest_5
//  301     }
//  302     break;
??USBH_MSC_ClassRequest_4:
        B.N      ??USBH_MSC_ClassRequest_6
//  303     
//  304   case MSC_REQ_ERROR :
//  305     /* a Clear Feature should be issued here */
//  306     if(USBH_ClrFeature(phost, 0x00) == USBH_OK)
??USBH_MSC_ClassRequest_1:
        MOVS     R1,#+0
        MOVS     R0,R4
          CFI FunCall USBH_ClrFeature
        BL       USBH_ClrFeature
        CMP      R0,#+0
        BNE.N    ??USBH_MSC_ClassRequest_7
//  307     {
//  308       MSC_Handle->req_state = MSC_Handle->prev_req_state; 
        LDRB     R0,[R5, #+15]
        STRB     R0,[R5, #+14]
//  309     }    
//  310     break;
??USBH_MSC_ClassRequest_7:
        B.N      ??USBH_MSC_ClassRequest_6
//  311     
//  312   default:
//  313     break;
//  314   }
//  315   
//  316   return status; 
??USBH_MSC_ClassRequest_2:
??USBH_MSC_ClassRequest_6:
        MOVS     R0,R6
        UXTB     R0,R0            ;; ZeroExt  R0,R0,#+24,#+24
        POP      {R1,R4-R7,PC}    ;; return
//  317 }
          CFI EndBlock cfiBlock2

        SECTION `.text`:CODE:NOROOT(2)
        SECTION_TYPE SHT_PROGBITS, 0
        DATA
??DataTable0:
        DC8      "\n",0x0,0x0
//  318 
//  319 /**
//  320   * @brief  USBH_MSC_Process 
//  321   *         The function is for managing state machine for MSC data transfers 
//  322   * @param  phost: Host handle
//  323   * @retval USBH Status
//  324   */

        SECTION `.text`:CODE:NOROOT(2)
          CFI Block cfiBlock3 Using cfiCommon0
          CFI Function USBH_MSC_Process
        THUMB
//  325 static USBH_StatusTypeDef USBH_MSC_Process(USBH_HandleTypeDef *phost)
//  326 {
USBH_MSC_Process:
        PUSH     {R4-R8,LR}
          CFI R14 Frame(CFA, -4)
          CFI R8 Frame(CFA, -8)
          CFI R7 Frame(CFA, -12)
          CFI R6 Frame(CFA, -16)
          CFI R5 Frame(CFA, -20)
          CFI R4 Frame(CFA, -24)
          CFI CFA R13+24
        MOVS     R4,R0
//  327   MSC_HandleTypeDef *MSC_Handle =  (MSC_HandleTypeDef *) phost->pActiveClass->pData;
        LDR      R0,[R4, #+612]
        LDR      R5,[R0, #+28]
//  328   USBH_StatusTypeDef error = USBH_BUSY ;
        MOVS     R6,#+1
//  329   USBH_StatusTypeDef scsi_status = USBH_BUSY ;  
        MOVS     R7,#+1
//  330   USBH_StatusTypeDef ready_status = USBH_BUSY ;
        MOVS     R8,#+1
//  331   
//  332   switch (MSC_Handle->state)
        LDRB     R0,[R5, #+12]
        CMP      R0,#+0
        BEQ.N    ??USBH_MSC_Process_0
        CMP      R0,#+1
        BEQ.W    ??USBH_MSC_Process_1
        B.N      ??USBH_MSC_Process_2
//  333   {
//  334   case MSC_INIT:
//  335     
//  336     if(MSC_Handle->current_lun < MSC_Handle->max_lun)
??USBH_MSC_Process_0:
        LDRH     R0,[R5, #+248]
        LDR      R1,[R5, #+0]
        CMP      R0,R1
        BCS.W    ??USBH_MSC_Process_3
//  337     {
//  338 
//  339       MSC_Handle->unit[MSC_Handle->current_lun].error = MSC_NOT_READY;
        LDRH     R0,[R5, #+248]
        MOVS     R1,#+52
        MLA      R0,R1,R0,R5
        MOVS     R1,#+1
        STRB     R1,[R0, #+145]
//  340       /* Switch MSC REQ state machine */
//  341       switch (MSC_Handle->unit[MSC_Handle->current_lun].state)
        LDRH     R0,[R5, #+248]
        MOVS     R1,#+52
        MLA      R0,R1,R0,R5
        LDRB     R0,[R0, #+144]
        CMP      R0,#+0
        BEQ.N    ??USBH_MSC_Process_4
        CMP      R0,#+2
        BEQ.W    ??USBH_MSC_Process_5
        CMP      R0,#+3
        BEQ.W    ??USBH_MSC_Process_6
        CMP      R0,#+4
        BEQ.N    ??USBH_MSC_Process_7
        CMP      R0,#+5
        BEQ.W    ??USBH_MSC_Process_8
        CMP      R0,#+8
        BEQ.W    ??USBH_MSC_Process_9
        B.N      ??USBH_MSC_Process_10
//  342       {
//  343       case MSC_INIT:
//  344         USBH_UsrLog ("LUN #%d: ", MSC_Handle->current_lun);
??USBH_MSC_Process_4:
        LDRH     R1,[R5, #+248]
        LDR.W    R0,??DataTable2_2
          CFI FunCall printf
        BL       printf
        ADR.N    R0,??USBH_MSC_Process_11  ;; "\n"
          CFI FunCall printf
        BL       printf
//  345         MSC_Handle->unit[MSC_Handle->current_lun].state = MSC_READ_INQUIRY;
        LDRH     R0,[R5, #+248]
        MOVS     R1,#+52
        MLA      R0,R1,R0,R5
        MOVS     R1,#+4
        STRB     R1,[R0, #+144]
//  346         MSC_Handle->timer = phost->Timer;
        LDR      R0,[R4, #+680]
        STR      R0,[R5, #+252]
//  347         
//  348       case MSC_READ_INQUIRY:
//  349         scsi_status = USBH_MSC_SCSI_Inquiry(phost, MSC_Handle->current_lun, &MSC_Handle->unit[MSC_Handle->current_lun].inquiry);
??USBH_MSC_Process_7:
        LDRH     R0,[R5, #+248]
        MOVS     R1,#+52
        MLA      R0,R1,R0,R5
        ADDS     R2,R0,#+159
        LDRH     R1,[R5, #+248]
        UXTB     R1,R1            ;; ZeroExt  R1,R1,#+24,#+24
        MOVS     R0,R4
          CFI FunCall USBH_MSC_SCSI_Inquiry
        BL       USBH_MSC_SCSI_Inquiry
        MOVS     R7,R0
//  350         
//  351         if( scsi_status == USBH_OK)
        UXTB     R7,R7            ;; ZeroExt  R7,R7,#+24,#+24
        CMP      R7,#+0
        BNE.N    ??USBH_MSC_Process_12
//  352         {
//  353           USBH_UsrLog ("Inquiry Vendor  : %s", MSC_Handle->unit[MSC_Handle->current_lun].inquiry.vendor_id);
        LDRH     R0,[R5, #+248]
        MOVS     R1,#+52
        MLA      R0,R1,R0,R5
        ADDS     R1,R0,#+162
        LDR.W    R0,??DataTable2_3
          CFI FunCall printf
        BL       printf
        ADR.N    R0,??USBH_MSC_Process_11  ;; "\n"
          CFI FunCall printf
        BL       printf
//  354           USBH_UsrLog ("Inquiry Product : %s", MSC_Handle->unit[MSC_Handle->current_lun].inquiry.product_id);
        LDRH     R0,[R5, #+248]
        MOVS     R1,#+52
        MLA      R0,R1,R0,R5
        ADDS     R1,R0,#+171
        LDR.W    R0,??DataTable2_4
          CFI FunCall printf
        BL       printf
        ADR.N    R0,??USBH_MSC_Process_11  ;; "\n"
          CFI FunCall printf
        BL       printf
//  355           USBH_UsrLog ("Inquiry Version : %s", MSC_Handle->unit[MSC_Handle->current_lun].inquiry.revision_id);
        LDRH     R0,[R5, #+248]
        MOVS     R1,#+52
        MLA      R0,R1,R0,R5
        ADDS     R1,R0,#+188
        LDR.W    R0,??DataTable2_5
          CFI FunCall printf
        BL       printf
        ADR.N    R0,??USBH_MSC_Process_11  ;; "\n"
          CFI FunCall printf
        BL       printf
//  356           MSC_Handle->unit[MSC_Handle->current_lun].state = MSC_TEST_UNIT_READY;        
        LDRH     R0,[R5, #+248]
        MOVS     R1,#+52
        MLA      R0,R1,R0,R5
        MOVS     R1,#+2
        STRB     R1,[R0, #+144]
//  357         }
//  358         if( scsi_status == USBH_FAIL)
??USBH_MSC_Process_12:
        UXTB     R7,R7            ;; ZeroExt  R7,R7,#+24,#+24
        CMP      R7,#+2
        BNE.N    ??USBH_MSC_Process_13
//  359         {
//  360           MSC_Handle->unit[MSC_Handle->current_lun].state = MSC_REQUEST_SENSE;         
        LDRH     R0,[R5, #+248]
        MOVS     R1,#+52
        MLA      R0,R1,R0,R5
        MOVS     R1,#+5
        STRB     R1,[R0, #+144]
        B.N      ??USBH_MSC_Process_14
//  361         }
//  362         else if(scsi_status == USBH_UNRECOVERED_ERROR)
??USBH_MSC_Process_13:
        UXTB     R7,R7            ;; ZeroExt  R7,R7,#+24,#+24
        CMP      R7,#+4
        BNE.N    ??USBH_MSC_Process_14
//  363         {
//  364           MSC_Handle->unit[MSC_Handle->current_lun].state = MSC_IDLE;
        LDRH     R0,[R5, #+248]
        MOVS     R1,#+52
        MLA      R0,R1,R0,R5
        MOVS     R1,#+1
        STRB     R1,[R0, #+144]
//  365           MSC_Handle->unit[MSC_Handle->current_lun].error = MSC_ERROR;
        LDRH     R0,[R5, #+248]
        MOVS     R1,#+52
        MLA      R0,R1,R0,R5
        MOVS     R1,#+2
        STRB     R1,[R0, #+145]
//  366         }
//  367         break;    
??USBH_MSC_Process_14:
        B.N      ??USBH_MSC_Process_15
//  368         
//  369       case MSC_TEST_UNIT_READY:
//  370         ready_status = USBH_MSC_SCSI_TestUnitReady(phost, MSC_Handle->current_lun);
??USBH_MSC_Process_5:
        LDRH     R1,[R5, #+248]
        UXTB     R1,R1            ;; ZeroExt  R1,R1,#+24,#+24
        MOVS     R0,R4
          CFI FunCall USBH_MSC_SCSI_TestUnitReady
        BL       USBH_MSC_SCSI_TestUnitReady
        MOV      R8,R0
//  371         
//  372         if( ready_status == USBH_OK)
        UXTB     R8,R8            ;; ZeroExt  R8,R8,#+24,#+24
        CMP      R8,#+0
        BNE.N    ??USBH_MSC_Process_16
//  373         {
//  374           if( MSC_Handle->unit[MSC_Handle->current_lun].prev_ready_state != USBH_OK)
        LDRH     R0,[R5, #+248]
        MOVS     R1,#+52
        MLA      R0,R1,R0,R5
        LDRB     R0,[R0, #+146]
        CMP      R0,#+0
        BEQ.N    ??USBH_MSC_Process_17
//  375           {
//  376             MSC_Handle->unit[MSC_Handle->current_lun].state_changed = 1;
        LDRH     R0,[R5, #+248]
        MOVS     R1,#+52
        MLA      R0,R1,R0,R5
        MOVS     R1,#+1
        STRB     R1,[R0, #+193]
//  377             USBH_UsrLog ("MSC Device ready");
        LDR.W    R0,??DataTable2_6
          CFI FunCall printf
        BL       printf
        ADR.N    R0,??USBH_MSC_Process_11  ;; "\n"
          CFI FunCall printf
        BL       printf
        B.N      ??USBH_MSC_Process_18
//  378           }
//  379           else
//  380           {
//  381             MSC_Handle->unit[MSC_Handle->current_lun].state_changed = 0;
??USBH_MSC_Process_17:
        LDRH     R0,[R5, #+248]
        MOVS     R1,#+52
        MLA      R0,R1,R0,R5
        MOVS     R1,#+0
        STRB     R1,[R0, #+193]
//  382           }
//  383           MSC_Handle->unit[MSC_Handle->current_lun].state = MSC_READ_CAPACITY10;
??USBH_MSC_Process_18:
        LDRH     R0,[R5, #+248]
        MOVS     R1,#+52
        MLA      R0,R1,R0,R5
        MOVS     R1,#+3
        STRB     R1,[R0, #+144]
//  384           MSC_Handle->unit[MSC_Handle->current_lun].error = MSC_OK;
        LDRH     R0,[R5, #+248]
        MOVS     R1,#+52
        MLA      R0,R1,R0,R5
        MOVS     R1,#+0
        STRB     R1,[R0, #+145]
//  385           MSC_Handle->unit[MSC_Handle->current_lun].prev_ready_state = USBH_OK;
        LDRH     R0,[R5, #+248]
        MOVS     R1,#+52
        MLA      R0,R1,R0,R5
        MOVS     R1,#+0
        STRB     R1,[R0, #+146]
//  386         }
//  387         if( ready_status == USBH_FAIL)
??USBH_MSC_Process_16:
        UXTB     R8,R8            ;; ZeroExt  R8,R8,#+24,#+24
        CMP      R8,#+2
        BNE.N    ??USBH_MSC_Process_19
//  388         {
//  389           /* Media not ready, so try to check again during 10s */
//  390           if( MSC_Handle->unit[MSC_Handle->current_lun].prev_ready_state != USBH_FAIL)
        LDRH     R0,[R5, #+248]
        MOVS     R1,#+52
        MLA      R0,R1,R0,R5
        LDRB     R0,[R0, #+146]
        CMP      R0,#+2
        BEQ.N    ??USBH_MSC_Process_20
//  391           {
//  392             MSC_Handle->unit[MSC_Handle->current_lun].state_changed = 1;
        LDRH     R0,[R5, #+248]
        MOVS     R1,#+52
        MLA      R0,R1,R0,R5
        MOVS     R1,#+1
        STRB     R1,[R0, #+193]
//  393             USBH_UsrLog ("MSC Device NOT ready");
        LDR.W    R0,??DataTable2_7
          CFI FunCall printf
        BL       printf
        ADR.N    R0,??USBH_MSC_Process_11  ;; "\n"
          CFI FunCall printf
        BL       printf
        B.N      ??USBH_MSC_Process_21
//  394           }
//  395           else
//  396           {
//  397             MSC_Handle->unit[MSC_Handle->current_lun].state_changed = 0;
??USBH_MSC_Process_20:
        LDRH     R0,[R5, #+248]
        MOVS     R1,#+52
        MLA      R0,R1,R0,R5
        MOVS     R1,#+0
        STRB     R1,[R0, #+193]
//  398           }         
//  399             MSC_Handle->unit[MSC_Handle->current_lun].state = MSC_REQUEST_SENSE; 
??USBH_MSC_Process_21:
        LDRH     R0,[R5, #+248]
        MOVS     R1,#+52
        MLA      R0,R1,R0,R5
        MOVS     R1,#+5
        STRB     R1,[R0, #+144]
//  400             MSC_Handle->unit[MSC_Handle->current_lun].error = MSC_NOT_READY;
        LDRH     R0,[R5, #+248]
        MOVS     R1,#+52
        MLA      R0,R1,R0,R5
        MOVS     R1,#+1
        STRB     R1,[R0, #+145]
//  401             MSC_Handle->unit[MSC_Handle->current_lun].prev_ready_state = USBH_FAIL;
        LDRH     R0,[R5, #+248]
        MOVS     R1,#+52
        MLA      R0,R1,R0,R5
        MOVS     R1,#+2
        STRB     R1,[R0, #+146]
        B.N      ??USBH_MSC_Process_22
//  402         }
//  403         else if(ready_status == USBH_UNRECOVERED_ERROR)
??USBH_MSC_Process_19:
        UXTB     R8,R8            ;; ZeroExt  R8,R8,#+24,#+24
        CMP      R8,#+4
        BNE.N    ??USBH_MSC_Process_22
//  404         {
//  405           MSC_Handle->unit[MSC_Handle->current_lun].state = MSC_IDLE;
        LDRH     R0,[R5, #+248]
        MOVS     R1,#+52
        MLA      R0,R1,R0,R5
        MOVS     R1,#+1
        STRB     R1,[R0, #+144]
//  406           MSC_Handle->unit[MSC_Handle->current_lun].error = MSC_ERROR;
        LDRH     R0,[R5, #+248]
        MOVS     R1,#+52
        MLA      R0,R1,R0,R5
        MOVS     R1,#+2
        STRB     R1,[R0, #+145]
//  407         }
//  408         break;
??USBH_MSC_Process_22:
        B.N      ??USBH_MSC_Process_15
//  409         
//  410       case MSC_READ_CAPACITY10:   
//  411         scsi_status = USBH_MSC_SCSI_ReadCapacity(phost,MSC_Handle->current_lun, &MSC_Handle->unit[MSC_Handle->current_lun].capacity) ;
??USBH_MSC_Process_6:
        LDRH     R0,[R5, #+248]
        MOVS     R1,#+52
        MLA      R0,R1,R0,R5
        ADDS     R2,R0,#+148
        LDRH     R1,[R5, #+248]
        UXTB     R1,R1            ;; ZeroExt  R1,R1,#+24,#+24
        MOVS     R0,R4
          CFI FunCall USBH_MSC_SCSI_ReadCapacity
        BL       USBH_MSC_SCSI_ReadCapacity
        MOVS     R7,R0
//  412         
//  413         if(scsi_status == USBH_OK)
        UXTB     R7,R7            ;; ZeroExt  R7,R7,#+24,#+24
        CMP      R7,#+0
        BNE.N    ??USBH_MSC_Process_23
//  414         {
//  415           if(MSC_Handle->unit[MSC_Handle->current_lun].state_changed == 1)
        LDRH     R0,[R5, #+248]
        MOVS     R1,#+52
        MLA      R0,R1,R0,R5
        LDRB     R0,[R0, #+193]
        CMP      R0,#+1
        BNE.N    ??USBH_MSC_Process_24
//  416           {
//  417             USBH_UsrLog ("MSC Device capacity : %lu Bytes", \ 
//  418               (int32_t)(MSC_Handle->unit[MSC_Handle->current_lun].capacity.block_nbr * MSC_Handle->unit[MSC_Handle->current_lun].capacity.block_size));
        LDRH     R0,[R5, #+248]
        MOVS     R1,#+52
        MLA      R0,R1,R0,R5
        LDR      R0,[R0, #+148]
        LDRH     R1,[R5, #+248]
        MOVS     R2,#+52
        MLA      R1,R2,R1,R5
        LDRH     R1,[R1, #+152]
        MUL      R1,R1,R0
        LDR.W    R0,??DataTable2_8
          CFI FunCall printf
        BL       printf
        ADR.N    R0,??USBH_MSC_Process_11  ;; "\n"
          CFI FunCall printf
        BL       printf
//  419             USBH_UsrLog ("Block number : %lu", (int32_t)(MSC_Handle->unit[MSC_Handle->current_lun].capacity.block_nbr));
        LDRH     R0,[R5, #+248]
        MOVS     R1,#+52
        MLA      R0,R1,R0,R5
        LDR      R1,[R0, #+148]
        LDR.W    R0,??DataTable2_9
          CFI FunCall printf
        BL       printf
        ADR.N    R0,??USBH_MSC_Process_11  ;; "\n"
          CFI FunCall printf
        BL       printf
//  420             USBH_UsrLog ("Block Size   : %lu", (int32_t)(MSC_Handle->unit[MSC_Handle->current_lun].capacity.block_size));
        LDRH     R0,[R5, #+248]
        MOVS     R1,#+52
        MLA      R0,R1,R0,R5
        LDRH     R1,[R0, #+152]
        LDR.W    R0,??DataTable2_10
          CFI FunCall printf
        BL       printf
        ADR.N    R0,??USBH_MSC_Process_11  ;; "\n"
          CFI FunCall printf
        BL       printf
//  421           }
//  422           MSC_Handle->unit[MSC_Handle->current_lun].state = MSC_IDLE;
??USBH_MSC_Process_24:
        LDRH     R0,[R5, #+248]
        MOVS     R1,#+52
        MLA      R0,R1,R0,R5
        MOVS     R1,#+1
        STRB     R1,[R0, #+144]
//  423           MSC_Handle->unit[MSC_Handle->current_lun].error = MSC_OK;
        LDRH     R0,[R5, #+248]
        MOVS     R1,#+52
        MLA      R0,R1,R0,R5
        MOVS     R1,#+0
        STRB     R1,[R0, #+145]
//  424           MSC_Handle->current_lun++;
        LDRH     R0,[R5, #+248]
        ADDS     R0,R0,#+1
        STRH     R0,[R5, #+248]
        B.N      ??USBH_MSC_Process_25
        DATA
??USBH_MSC_Process_11:
        DC8      "\n",0x0,0x0
        THUMB
//  425         }
//  426         else if( scsi_status == USBH_FAIL)
??USBH_MSC_Process_23:
        UXTB     R7,R7            ;; ZeroExt  R7,R7,#+24,#+24
        CMP      R7,#+2
        BNE.N    ??USBH_MSC_Process_26
//  427         {
//  428           MSC_Handle->unit[MSC_Handle->current_lun].state = MSC_REQUEST_SENSE;
        LDRH     R0,[R5, #+248]
        MOVS     R1,#+52
        MLA      R0,R1,R0,R5
        MOVS     R1,#+5
        STRB     R1,[R0, #+144]
        B.N      ??USBH_MSC_Process_25
//  429         }
//  430         else if(scsi_status == USBH_UNRECOVERED_ERROR)
??USBH_MSC_Process_26:
        UXTB     R7,R7            ;; ZeroExt  R7,R7,#+24,#+24
        CMP      R7,#+4
        BNE.N    ??USBH_MSC_Process_25
//  431         {
//  432           MSC_Handle->unit[MSC_Handle->current_lun].state = MSC_IDLE;
        LDRH     R0,[R5, #+248]
        MOVS     R1,#+52
        MLA      R0,R1,R0,R5
        MOVS     R1,#+1
        STRB     R1,[R0, #+144]
//  433           MSC_Handle->unit[MSC_Handle->current_lun].error = MSC_ERROR;
        LDRH     R0,[R5, #+248]
        MOVS     R1,#+52
        MLA      R0,R1,R0,R5
        MOVS     R1,#+2
        STRB     R1,[R0, #+145]
//  434         }
//  435         break;
??USBH_MSC_Process_25:
        B.N      ??USBH_MSC_Process_15
//  436         
//  437       case MSC_REQUEST_SENSE:
//  438         scsi_status = USBH_MSC_SCSI_RequestSense(phost,  MSC_Handle->current_lun, &MSC_Handle->unit[MSC_Handle->current_lun].sense);
??USBH_MSC_Process_8:
        LDRH     R0,[R5, #+248]
        MOVS     R1,#+52
        MLA      R0,R1,R0,R5
        ADDS     R2,R0,#+156
        LDRH     R1,[R5, #+248]
        UXTB     R1,R1            ;; ZeroExt  R1,R1,#+24,#+24
        MOVS     R0,R4
          CFI FunCall USBH_MSC_SCSI_RequestSense
        BL       USBH_MSC_SCSI_RequestSense
        MOVS     R7,R0
//  439         
//  440         if( scsi_status == USBH_OK)
        UXTB     R7,R7            ;; ZeroExt  R7,R7,#+24,#+24
        CMP      R7,#+0
        BNE.N    ??USBH_MSC_Process_27
//  441         {
//  442           if((MSC_Handle->unit[MSC_Handle->current_lun].sense.key == SCSI_SENSE_KEY_UNIT_ATTENTION) ||
//  443              (MSC_Handle->unit[MSC_Handle->current_lun].sense.key == SCSI_SENSE_KEY_NOT_READY) )   
        LDRH     R0,[R5, #+248]
        MOVS     R1,#+52
        MLA      R0,R1,R0,R5
        LDRB     R0,[R0, #+156]
        CMP      R0,#+6
        BEQ.N    ??USBH_MSC_Process_28
        LDRH     R0,[R5, #+248]
        MOVS     R1,#+52
        MLA      R0,R1,R0,R5
        LDRB     R0,[R0, #+156]
        CMP      R0,#+2
        BNE.N    ??USBH_MSC_Process_29
//  444           {
//  445             
//  446             if((phost->Timer - MSC_Handle->timer) > 10000)
??USBH_MSC_Process_28:
        LDR      R0,[R4, #+680]
        LDR      R1,[R5, #+252]
        SUBS     R0,R0,R1
        MOVW     R1,#+10001
        CMP      R0,R1
        BCC.N    ??USBH_MSC_Process_29
//  447             {
//  448               MSC_Handle->unit[MSC_Handle->current_lun].state = MSC_TEST_UNIT_READY;
        LDRH     R0,[R5, #+248]
        MOVS     R1,#+52
        MLA      R0,R1,R0,R5
        MOVS     R1,#+2
        STRB     R1,[R0, #+144]
//  449               break;
        B.N      ??USBH_MSC_Process_15
//  450             }        
//  451           }
//  452           
//  453           USBH_UsrLog ("Sense Key  : %x", MSC_Handle->unit[MSC_Handle->current_lun].sense.key);
??USBH_MSC_Process_29:
        LDRH     R0,[R5, #+248]
        MOVS     R1,#+52
        MLA      R0,R1,R0,R5
        LDRB     R1,[R0, #+156]
        LDR.N    R0,??DataTable2_11
          CFI FunCall printf
        BL       printf
        ADR.N    R0,??DataTable2  ;; "\n"
          CFI FunCall printf
        BL       printf
//  454           USBH_UsrLog ("Additional Sense Code : %x", MSC_Handle->unit[MSC_Handle->current_lun].sense.asc);
        LDRH     R0,[R5, #+248]
        MOVS     R1,#+52
        MLA      R0,R1,R0,R5
        LDRB     R1,[R0, #+157]
        LDR.N    R0,??DataTable2_12
          CFI FunCall printf
        BL       printf
        ADR.N    R0,??DataTable2  ;; "\n"
          CFI FunCall printf
        BL       printf
//  455           USBH_UsrLog ("Additional Sense Code Qualifier: %x", MSC_Handle->unit[MSC_Handle->current_lun].sense.ascq);
        LDRH     R0,[R5, #+248]
        MOVS     R1,#+52
        MLA      R0,R1,R0,R5
        LDRB     R1,[R0, #+158]
        LDR.N    R0,??DataTable2_13
          CFI FunCall printf
        BL       printf
        ADR.N    R0,??DataTable2  ;; "\n"
          CFI FunCall printf
        BL       printf
//  456           MSC_Handle->unit[MSC_Handle->current_lun].state = MSC_IDLE;
        LDRH     R0,[R5, #+248]
        MOVS     R1,#+52
        MLA      R0,R1,R0,R5
        MOVS     R1,#+1
        STRB     R1,[R0, #+144]
//  457           MSC_Handle->current_lun++;
        LDRH     R0,[R5, #+248]
        ADDS     R0,R0,#+1
        STRH     R0,[R5, #+248]
//  458         }
//  459         if( scsi_status == USBH_FAIL)
??USBH_MSC_Process_27:
        UXTB     R7,R7            ;; ZeroExt  R7,R7,#+24,#+24
        CMP      R7,#+2
        BNE.N    ??USBH_MSC_Process_30
//  460         {
//  461           USBH_UsrLog ("MSC Device NOT ready");
        LDR.N    R0,??DataTable2_7
          CFI FunCall printf
        BL       printf
        ADR.N    R0,??DataTable2  ;; "\n"
          CFI FunCall printf
        BL       printf
//  462           MSC_Handle->unit[MSC_Handle->current_lun].state = MSC_UNRECOVERED_ERROR; 
        LDRH     R0,[R5, #+248]
        MOVS     R1,#+52
        MLA      R0,R1,R0,R5
        MOVS     R1,#+8
        STRB     R1,[R0, #+144]
        B.N      ??USBH_MSC_Process_31
//  463         }
//  464         else if(scsi_status == USBH_UNRECOVERED_ERROR)
??USBH_MSC_Process_30:
        UXTB     R7,R7            ;; ZeroExt  R7,R7,#+24,#+24
        CMP      R7,#+4
        BNE.N    ??USBH_MSC_Process_31
//  465         {
//  466           MSC_Handle->unit[MSC_Handle->current_lun].state = MSC_IDLE;
        LDRH     R0,[R5, #+248]
        MOVS     R1,#+52
        MLA      R0,R1,R0,R5
        MOVS     R1,#+1
        STRB     R1,[R0, #+144]
//  467           MSC_Handle->unit[MSC_Handle->current_lun].error = MSC_ERROR;   
        LDRH     R0,[R5, #+248]
        MOVS     R1,#+52
        MLA      R0,R1,R0,R5
        MOVS     R1,#+2
        STRB     R1,[R0, #+145]
//  468         }
//  469         break;  
??USBH_MSC_Process_31:
        B.N      ??USBH_MSC_Process_15
//  470     
//  471       case MSC_UNRECOVERED_ERROR: 
//  472         MSC_Handle->current_lun++;
??USBH_MSC_Process_9:
        LDRH     R0,[R5, #+248]
        ADDS     R0,R0,#+1
        STRH     R0,[R5, #+248]
//  473         break;  
        B.N      ??USBH_MSC_Process_15
//  474         
//  475       default:
//  476         break;
??USBH_MSC_Process_10:
        B.N      ??USBH_MSC_Process_15
//  477       }
//  478       
//  479 #if (USBH_USE_OS == 1)
//  480     osMessagePut ( phost->os_event, USBH_CLASS_EVENT, 0);
//  481 #endif       
//  482     }
//  483     else
//  484     {
//  485       MSC_Handle->current_lun = 0;
??USBH_MSC_Process_3:
        MOVS     R0,#+0
        STRH     R0,[R5, #+248]
//  486     MSC_Handle->state = MSC_IDLE;
        MOVS     R0,#+1
        STRB     R0,[R5, #+12]
//  487 #if (USBH_USE_OS == 1)
//  488     osMessagePut ( phost->os_event, USBH_CLASS_EVENT, 0);
//  489 #endif 
//  490     phost->pUser(phost, HOST_USER_CLASS_ACTIVE);     
        MOVS     R1,#+2
        MOVS     R0,R4
        LDR      R2,[R4, #+692]
          CFI FunCall
        BLX      R2
//  491     }
//  492     break;
??USBH_MSC_Process_15:
        B.N      ??USBH_MSC_Process_32
//  493 
//  494   case MSC_IDLE:
//  495     error = USBH_OK;  
??USBH_MSC_Process_1:
        MOVS     R0,#+0
        MOVS     R6,R0
//  496     break;
        B.N      ??USBH_MSC_Process_32
//  497     
//  498   default:
//  499     break; 
//  500   }
//  501   return error;
??USBH_MSC_Process_2:
??USBH_MSC_Process_32:
        MOVS     R0,R6
        UXTB     R0,R0            ;; ZeroExt  R0,R0,#+24,#+24
        POP      {R4-R8,PC}       ;; return
//  502 }
          CFI EndBlock cfiBlock3
//  503 
//  504 
//  505 /**
//  506   * @brief  USBH_MSC_SOFProcess 
//  507   *         The function is for SOF state
//  508   * @param  phost: Host handle
//  509   * @retval USBH Status
//  510   */

        SECTION `.text`:CODE:NOROOT(1)
          CFI Block cfiBlock4 Using cfiCommon0
          CFI Function USBH_MSC_SOFProcess
          CFI NoCalls
        THUMB
//  511 static USBH_StatusTypeDef USBH_MSC_SOFProcess(USBH_HandleTypeDef *phost)
//  512 {
USBH_MSC_SOFProcess:
        MOVS     R1,R0
//  513 
//  514   return USBH_OK;
        MOVS     R0,#+0
        BX       LR               ;; return
//  515 }
          CFI EndBlock cfiBlock4
//  516 /**
//  517   * @brief  USBH_MSC_RdWrProcess 
//  518   *         The function is for managing state machine for MSC I/O Process
//  519   * @param  phost: Host handle
//  520   * @param  lun: logical Unit Number
//  521   * @retval USBH Status
//  522   */

        SECTION `.text`:CODE:NOROOT(1)
          CFI Block cfiBlock5 Using cfiCommon0
          CFI Function USBH_MSC_RdWrProcess
        THUMB
//  523 static USBH_StatusTypeDef USBH_MSC_RdWrProcess(USBH_HandleTypeDef *phost, uint8_t lun)
//  524 {
USBH_MSC_RdWrProcess:
        PUSH     {R4-R8,LR}
          CFI R14 Frame(CFA, -4)
          CFI R8 Frame(CFA, -8)
          CFI R7 Frame(CFA, -12)
          CFI R6 Frame(CFA, -16)
          CFI R5 Frame(CFA, -20)
          CFI R4 Frame(CFA, -24)
          CFI CFA R13+24
        SUB      SP,SP,#+8
          CFI CFA R13+32
        MOVS     R4,R0
        MOVS     R5,R1
//  525   MSC_HandleTypeDef *MSC_Handle =  (MSC_HandleTypeDef *) phost->pActiveClass->pData;
        LDR      R0,[R4, #+612]
        LDR      R6,[R0, #+28]
//  526   USBH_StatusTypeDef error = USBH_BUSY ;
        MOVS     R7,#+1
//  527   USBH_StatusTypeDef scsi_status = USBH_BUSY ;  
        MOVS     R8,#+1
//  528   
//  529   /* Switch MSC REQ state machine */
//  530   switch (MSC_Handle->unit[lun].state)
        UXTB     R5,R5            ;; ZeroExt  R5,R5,#+24,#+24
        MOVS     R0,#+52
        MLA      R0,R0,R5,R6
        LDRB     R0,[R0, #+144]
        CMP      R0,#+5
        BEQ.N    ??USBH_MSC_RdWrProcess_0
        BCC.W    ??USBH_MSC_RdWrProcess_1
        CMP      R0,#+7
        BEQ.N    ??USBH_MSC_RdWrProcess_2
        BCS.W    ??USBH_MSC_RdWrProcess_1
//  531   {
//  532  
//  533   case MSC_READ: 
//  534     scsi_status = USBH_MSC_SCSI_Read(phost,lun, 0, NULL, 0) ;
??USBH_MSC_RdWrProcess_3:
        MOVS     R0,#+0
        STR      R0,[SP, #+0]
        MOVS     R3,#+0
        MOVS     R2,#+0
        MOVS     R1,R5
        UXTB     R1,R1            ;; ZeroExt  R1,R1,#+24,#+24
        MOVS     R0,R4
          CFI FunCall USBH_MSC_SCSI_Read
        BL       USBH_MSC_SCSI_Read
        MOV      R8,R0
//  535     
//  536     if(scsi_status == USBH_OK)
        UXTB     R8,R8            ;; ZeroExt  R8,R8,#+24,#+24
        CMP      R8,#+0
        BNE.N    ??USBH_MSC_RdWrProcess_4
//  537     {
//  538       MSC_Handle->unit[lun].state = MSC_IDLE;
        MOVS     R0,#+1
        UXTB     R5,R5            ;; ZeroExt  R5,R5,#+24,#+24
        MOVS     R1,#+52
        MLA      R1,R1,R5,R6
        STRB     R0,[R1, #+144]
//  539       error = USBH_OK;     
        MOVS     R0,#+0
        MOVS     R7,R0
        B.N      ??USBH_MSC_RdWrProcess_5
//  540     }
//  541     else if( scsi_status == USBH_FAIL)
??USBH_MSC_RdWrProcess_4:
        UXTB     R8,R8            ;; ZeroExt  R8,R8,#+24,#+24
        CMP      R8,#+2
        BNE.N    ??USBH_MSC_RdWrProcess_6
//  542     {
//  543       MSC_Handle->unit[lun].state = MSC_REQUEST_SENSE;  
        MOVS     R0,#+5
        UXTB     R5,R5            ;; ZeroExt  R5,R5,#+24,#+24
        MOVS     R1,#+52
        MLA      R1,R1,R5,R6
        STRB     R0,[R1, #+144]
        B.N      ??USBH_MSC_RdWrProcess_5
//  544     }
//  545     else if(scsi_status == USBH_UNRECOVERED_ERROR)
??USBH_MSC_RdWrProcess_6:
        UXTB     R8,R8            ;; ZeroExt  R8,R8,#+24,#+24
        CMP      R8,#+4
        BNE.N    ??USBH_MSC_RdWrProcess_5
//  546     {
//  547       MSC_Handle->unit[lun].state = MSC_UNRECOVERED_ERROR;
        MOVS     R0,#+8
        UXTB     R5,R5            ;; ZeroExt  R5,R5,#+24,#+24
        MOVS     R1,#+52
        MLA      R1,R1,R5,R6
        STRB     R0,[R1, #+144]
//  548           error = USBH_FAIL;
        MOVS     R0,#+2
        MOVS     R7,R0
//  549     }
//  550 #if (USBH_USE_OS == 1)
//  551     osMessagePut ( phost->os_event, USBH_CLASS_EVENT, 0);
//  552 #endif   
//  553     break;     
??USBH_MSC_RdWrProcess_5:
        B.N      ??USBH_MSC_RdWrProcess_7
//  554     
//  555   case MSC_WRITE: 
//  556     scsi_status = USBH_MSC_SCSI_Write(phost,lun, 0, NULL, 0) ;
??USBH_MSC_RdWrProcess_2:
        MOVS     R0,#+0
        STR      R0,[SP, #+0]
        MOVS     R3,#+0
        MOVS     R2,#+0
        MOVS     R1,R5
        UXTB     R1,R1            ;; ZeroExt  R1,R1,#+24,#+24
        MOVS     R0,R4
          CFI FunCall USBH_MSC_SCSI_Write
        BL       USBH_MSC_SCSI_Write
        MOV      R8,R0
//  557     
//  558     if(scsi_status == USBH_OK)
        UXTB     R8,R8            ;; ZeroExt  R8,R8,#+24,#+24
        CMP      R8,#+0
        BNE.N    ??USBH_MSC_RdWrProcess_8
//  559     {
//  560         MSC_Handle->unit[lun].state = MSC_IDLE;
        MOVS     R0,#+1
        UXTB     R5,R5            ;; ZeroExt  R5,R5,#+24,#+24
        MOVS     R1,#+52
        MLA      R1,R1,R5,R6
        STRB     R0,[R1, #+144]
//  561         error = USBH_OK;             
        MOVS     R0,#+0
        MOVS     R7,R0
        B.N      ??USBH_MSC_RdWrProcess_9
//  562     }
//  563     else if( scsi_status == USBH_FAIL)
??USBH_MSC_RdWrProcess_8:
        UXTB     R8,R8            ;; ZeroExt  R8,R8,#+24,#+24
        CMP      R8,#+2
        BNE.N    ??USBH_MSC_RdWrProcess_10
//  564     {
//  565       MSC_Handle->unit[lun].state = MSC_REQUEST_SENSE;  
        MOVS     R0,#+5
        UXTB     R5,R5            ;; ZeroExt  R5,R5,#+24,#+24
        MOVS     R1,#+52
        MLA      R1,R1,R5,R6
        STRB     R0,[R1, #+144]
        B.N      ??USBH_MSC_RdWrProcess_9
//  566     }
//  567     else if(scsi_status == USBH_UNRECOVERED_ERROR)
??USBH_MSC_RdWrProcess_10:
        UXTB     R8,R8            ;; ZeroExt  R8,R8,#+24,#+24
        CMP      R8,#+4
        BNE.N    ??USBH_MSC_RdWrProcess_9
//  568     {
//  569       MSC_Handle->unit[lun].state = MSC_UNRECOVERED_ERROR;
        MOVS     R0,#+8
        UXTB     R5,R5            ;; ZeroExt  R5,R5,#+24,#+24
        MOVS     R1,#+52
        MLA      R1,R1,R5,R6
        STRB     R0,[R1, #+144]
//  570           error = USBH_FAIL;
        MOVS     R0,#+2
        MOVS     R7,R0
//  571     }
//  572 #if (USBH_USE_OS == 1)
//  573     osMessagePut ( phost->os_event, USBH_CLASS_EVENT, 0);
//  574 #endif       
//  575     break; 
??USBH_MSC_RdWrProcess_9:
        B.N      ??USBH_MSC_RdWrProcess_7
//  576   
//  577   case MSC_REQUEST_SENSE:
//  578     scsi_status = USBH_MSC_SCSI_RequestSense(phost, lun, &MSC_Handle->unit[lun].sense);
??USBH_MSC_RdWrProcess_0:
        UXTB     R5,R5            ;; ZeroExt  R5,R5,#+24,#+24
        MOVS     R0,#+52
        MLA      R0,R0,R5,R6
        ADDS     R2,R0,#+156
        MOVS     R1,R5
        UXTB     R1,R1            ;; ZeroExt  R1,R1,#+24,#+24
        MOVS     R0,R4
          CFI FunCall USBH_MSC_SCSI_RequestSense
        BL       USBH_MSC_SCSI_RequestSense
        MOV      R8,R0
//  579     
//  580     if( scsi_status == USBH_OK)
        UXTB     R8,R8            ;; ZeroExt  R8,R8,#+24,#+24
        CMP      R8,#+0
        BNE.N    ??USBH_MSC_RdWrProcess_11
//  581     {
//  582       USBH_UsrLog ("Sense Key  : %x", MSC_Handle->unit[lun].sense.key);
        UXTB     R5,R5            ;; ZeroExt  R5,R5,#+24,#+24
        MOVS     R0,#+52
        MLA      R0,R0,R5,R6
        LDRB     R1,[R0, #+156]
        LDR.N    R0,??DataTable2_11
          CFI FunCall printf
        BL       printf
        ADR.N    R0,??DataTable2  ;; "\n"
          CFI FunCall printf
        BL       printf
//  583       USBH_UsrLog ("Additional Sense Code : %x", MSC_Handle->unit[lun].sense.asc);
        UXTB     R5,R5            ;; ZeroExt  R5,R5,#+24,#+24
        MOVS     R0,#+52
        MLA      R0,R0,R5,R6
        LDRB     R1,[R0, #+157]
        LDR.N    R0,??DataTable2_12
          CFI FunCall printf
        BL       printf
        ADR.N    R0,??DataTable2  ;; "\n"
          CFI FunCall printf
        BL       printf
//  584       USBH_UsrLog ("Additional Sense Code Qualifier: %x", MSC_Handle->unit[lun].sense.ascq);
        UXTB     R5,R5            ;; ZeroExt  R5,R5,#+24,#+24
        MOVS     R0,#+52
        MLA      R0,R0,R5,R6
        LDRB     R1,[R0, #+158]
        LDR.N    R0,??DataTable2_13
          CFI FunCall printf
        BL       printf
        ADR.N    R0,??DataTable2  ;; "\n"
          CFI FunCall printf
        BL       printf
//  585       MSC_Handle->unit[lun].state = MSC_IDLE;
        MOVS     R0,#+1
        UXTB     R5,R5            ;; ZeroExt  R5,R5,#+24,#+24
        MOVS     R1,#+52
        MLA      R1,R1,R5,R6
        STRB     R0,[R1, #+144]
//  586       MSC_Handle->unit[lun].error = MSC_ERROR;
        MOVS     R0,#+2
        UXTB     R5,R5            ;; ZeroExt  R5,R5,#+24,#+24
        MOVS     R1,#+52
        MLA      R1,R1,R5,R6
        STRB     R0,[R1, #+145]
//  587       
//  588       error = USBH_FAIL;
        MOVS     R0,#+2
        MOVS     R7,R0
//  589     }
//  590     if( scsi_status == USBH_FAIL)
??USBH_MSC_RdWrProcess_11:
        UXTB     R8,R8            ;; ZeroExt  R8,R8,#+24,#+24
        CMP      R8,#+2
        BNE.N    ??USBH_MSC_RdWrProcess_12
//  591     {
//  592       USBH_UsrLog ("MSC Device NOT ready");
        LDR.N    R0,??DataTable2_7
          CFI FunCall printf
        BL       printf
        ADR.N    R0,??DataTable2  ;; "\n"
          CFI FunCall printf
        BL       printf
        B.N      ??USBH_MSC_RdWrProcess_13
//  593     }
//  594     else if(scsi_status == USBH_UNRECOVERED_ERROR)
??USBH_MSC_RdWrProcess_12:
        UXTB     R8,R8            ;; ZeroExt  R8,R8,#+24,#+24
        CMP      R8,#+4
        BNE.N    ??USBH_MSC_RdWrProcess_13
//  595     {
//  596       MSC_Handle->unit[lun].state = MSC_UNRECOVERED_ERROR;  
        MOVS     R0,#+8
        UXTB     R5,R5            ;; ZeroExt  R5,R5,#+24,#+24
        MOVS     R1,#+52
        MLA      R1,R1,R5,R6
        STRB     R0,[R1, #+144]
//  597           error = USBH_FAIL;
        MOVS     R0,#+2
        MOVS     R7,R0
//  598     }
//  599 #if (USBH_USE_OS == 1)
//  600     osMessagePut ( phost->os_event, USBH_CLASS_EVENT, 0);
//  601 #endif       
//  602     break;  
??USBH_MSC_RdWrProcess_13:
        B.N      ??USBH_MSC_RdWrProcess_7
//  603     
//  604   default:
//  605     break;  
//  606     
//  607   }
//  608   return error;
??USBH_MSC_RdWrProcess_1:
??USBH_MSC_RdWrProcess_7:
        MOVS     R0,R7
        UXTB     R0,R0            ;; ZeroExt  R0,R0,#+24,#+24
        POP      {R1,R2,R4-R8,PC}  ;; return
//  609 }
          CFI EndBlock cfiBlock5

        SECTION `.text`:CODE:NOROOT(2)
        SECTION_TYPE SHT_PROGBITS, 0
        DATA
??DataTable2:
        DC8      "\n",0x0,0x0

        SECTION `.text`:CODE:NOROOT(2)
        SECTION_TYPE SHT_PROGBITS, 0
        DATA
??DataTable2_1:
        DC32     ?_1

        SECTION `.text`:CODE:NOROOT(2)
        SECTION_TYPE SHT_PROGBITS, 0
        DATA
??DataTable2_2:
        DC32     ?_3

        SECTION `.text`:CODE:NOROOT(2)
        SECTION_TYPE SHT_PROGBITS, 0
        DATA
??DataTable2_3:
        DC32     ?_4

        SECTION `.text`:CODE:NOROOT(2)
        SECTION_TYPE SHT_PROGBITS, 0
        DATA
??DataTable2_4:
        DC32     ?_5

        SECTION `.text`:CODE:NOROOT(2)
        SECTION_TYPE SHT_PROGBITS, 0
        DATA
??DataTable2_5:
        DC32     ?_6

        SECTION `.text`:CODE:NOROOT(2)
        SECTION_TYPE SHT_PROGBITS, 0
        DATA
??DataTable2_6:
        DC32     ?_7

        SECTION `.text`:CODE:NOROOT(2)
        SECTION_TYPE SHT_PROGBITS, 0
        DATA
??DataTable2_7:
        DC32     ?_8

        SECTION `.text`:CODE:NOROOT(2)
        SECTION_TYPE SHT_PROGBITS, 0
        DATA
??DataTable2_8:
        DC32     ?_9

        SECTION `.text`:CODE:NOROOT(2)
        SECTION_TYPE SHT_PROGBITS, 0
        DATA
??DataTable2_9:
        DC32     ?_10

        SECTION `.text`:CODE:NOROOT(2)
        SECTION_TYPE SHT_PROGBITS, 0
        DATA
??DataTable2_10:
        DC32     ?_11

        SECTION `.text`:CODE:NOROOT(2)
        SECTION_TYPE SHT_PROGBITS, 0
        DATA
??DataTable2_11:
        DC32     ?_12

        SECTION `.text`:CODE:NOROOT(2)
        SECTION_TYPE SHT_PROGBITS, 0
        DATA
??DataTable2_12:
        DC32     ?_13

        SECTION `.text`:CODE:NOROOT(2)
        SECTION_TYPE SHT_PROGBITS, 0
        DATA
??DataTable2_13:
        DC32     ?_14
//  610 
//  611 /**
//  612   * @brief  USBH_MSC_IsReady 
//  613   *         The function check if the MSC function is ready
//  614   * @param  phost: Host handle
//  615   * @retval USBH Status
//  616   */

        SECTION `.text`:CODE:NOROOT(1)
          CFI Block cfiBlock6 Using cfiCommon0
          CFI Function USBH_MSC_IsReady
          CFI NoCalls
        THUMB
//  617 uint8_t  USBH_MSC_IsReady (USBH_HandleTypeDef *phost)
//  618 {
USBH_MSC_IsReady:
        MOVS     R1,R0
//  619     MSC_HandleTypeDef *MSC_Handle =  (MSC_HandleTypeDef *) phost->pActiveClass->pData;  
        LDR      R0,[R1, #+612]
        LDR      R2,[R0, #+28]
//  620     
//  621   if(phost->gState == HOST_CLASS)
        LDRB     R0,[R1, #+0]
        CMP      R0,#+10
        BNE.N    ??USBH_MSC_IsReady_0
//  622   {
//  623     return (MSC_Handle->state == MSC_IDLE);
        LDRB     R0,[R2, #+12]
        CMP      R0,#+1
        BNE.N    ??USBH_MSC_IsReady_1
        MOVS     R0,#+1
        B.N      ??USBH_MSC_IsReady_2
??USBH_MSC_IsReady_1:
        MOVS     R0,#+0
??USBH_MSC_IsReady_2:
        UXTB     R0,R0            ;; ZeroExt  R0,R0,#+24,#+24
        B.N      ??USBH_MSC_IsReady_3
//  624   }
//  625   else
//  626   {
//  627     return 0;
??USBH_MSC_IsReady_0:
        MOVS     R0,#+0
??USBH_MSC_IsReady_3:
        BX       LR               ;; return
//  628   }
//  629 }
          CFI EndBlock cfiBlock6
//  630 
//  631 /**
//  632   * @brief  USBH_MSC_GetMaxLUN 
//  633   *         The function return the Max LUN supported
//  634   * @param  phost: Host handle
//  635   * @retval logical Unit Number supported
//  636   */

        SECTION `.text`:CODE:NOROOT(1)
          CFI Block cfiBlock7 Using cfiCommon0
          CFI Function USBH_MSC_GetMaxLUN
          CFI NoCalls
        THUMB
//  637 int8_t  USBH_MSC_GetMaxLUN (USBH_HandleTypeDef *phost)
//  638 {
USBH_MSC_GetMaxLUN:
        MOVS     R1,R0
//  639   MSC_HandleTypeDef *MSC_Handle =  (MSC_HandleTypeDef *) phost->pActiveClass->pData;    
        LDR      R0,[R1, #+612]
        LDR      R2,[R0, #+28]
//  640   
//  641   if ((phost->gState == HOST_CLASS) && (MSC_Handle->state == MSC_IDLE))
        LDRB     R0,[R1, #+0]
        CMP      R0,#+10
        BNE.N    ??USBH_MSC_GetMaxLUN_0
        LDRB     R0,[R2, #+12]
        CMP      R0,#+1
        BNE.N    ??USBH_MSC_GetMaxLUN_0
//  642   {
//  643     return  MSC_Handle->max_lun;
        LDR      R0,[R2, #+0]
        SXTB     R0,R0            ;; SignExt  R0,R0,#+24,#+24
        B.N      ??USBH_MSC_GetMaxLUN_1
//  644   }  
//  645   return 0xFF;
??USBH_MSC_GetMaxLUN_0:
        MOVS     R0,#-1
??USBH_MSC_GetMaxLUN_1:
        BX       LR               ;; return
//  646 }
          CFI EndBlock cfiBlock7
//  647 
//  648 /**
//  649   * @brief  USBH_MSC_UnitIsReady 
//  650   *         The function check whether a LUN is ready
//  651   * @param  phost: Host handle
//  652   * @param  lun: logical Unit Number
//  653   * @retval Lun status (0: not ready / 1: ready)
//  654   */

        SECTION `.text`:CODE:NOROOT(1)
          CFI Block cfiBlock8 Using cfiCommon0
          CFI Function USBH_MSC_UnitIsReady
          CFI NoCalls
        THUMB
//  655 uint8_t  USBH_MSC_UnitIsReady (USBH_HandleTypeDef *phost, uint8_t lun)
//  656 {
USBH_MSC_UnitIsReady:
        MOVS     R2,R0
//  657   MSC_HandleTypeDef *MSC_Handle =  (MSC_HandleTypeDef *) phost->pActiveClass->pData;  
        LDR      R0,[R2, #+612]
        LDR      R3,[R0, #+28]
//  658   
//  659   if(phost->gState == HOST_CLASS)
        LDRB     R0,[R2, #+0]
        CMP      R0,#+10
        BNE.N    ??USBH_MSC_UnitIsReady_0
//  660   {
//  661     return (MSC_Handle->unit[lun].error == MSC_OK);
        UXTB     R1,R1            ;; ZeroExt  R1,R1,#+24,#+24
        MOVS     R0,#+52
        MLA      R0,R0,R1,R3
        LDRB     R0,[R0, #+145]
        CMP      R0,#+0
        BNE.N    ??USBH_MSC_UnitIsReady_1
        MOVS     R0,#+1
        B.N      ??USBH_MSC_UnitIsReady_2
??USBH_MSC_UnitIsReady_1:
        MOVS     R0,#+0
??USBH_MSC_UnitIsReady_2:
        UXTB     R0,R0            ;; ZeroExt  R0,R0,#+24,#+24
        B.N      ??USBH_MSC_UnitIsReady_3
//  662   }
//  663   else
//  664   {
//  665     return 0;
??USBH_MSC_UnitIsReady_0:
        MOVS     R0,#+0
??USBH_MSC_UnitIsReady_3:
        BX       LR               ;; return
//  666   }
//  667 }
          CFI EndBlock cfiBlock8
//  668       
//  669 /**
//  670   * @brief  USBH_MSC_GetLUNInfo 
//  671   *         The function return a LUN information
//  672   * @param  phost: Host handle
//  673   * @param  lun: logical Unit Number
//  674   * @retval USBH Status
//  675   */

        SECTION `.text`:CODE:NOROOT(1)
          CFI Block cfiBlock9 Using cfiCommon0
          CFI Function USBH_MSC_GetLUNInfo
        THUMB
//  676 USBH_StatusTypeDef USBH_MSC_GetLUNInfo(USBH_HandleTypeDef *phost, uint8_t lun, MSC_LUNTypeDef *info)
//  677 {
USBH_MSC_GetLUNInfo:
        PUSH     {R3-R9,LR}
          CFI R14 Frame(CFA, -4)
          CFI R9 Frame(CFA, -8)
          CFI R8 Frame(CFA, -12)
          CFI R7 Frame(CFA, -16)
          CFI R6 Frame(CFA, -20)
          CFI R5 Frame(CFA, -24)
          CFI R4 Frame(CFA, -28)
          CFI CFA R13+32
        MOVS     R4,R0
        MOVS     R5,R1
        MOVS     R6,R2
//  678   MSC_HandleTypeDef *MSC_Handle =  (MSC_HandleTypeDef *) phost->pActiveClass->pData;    
        LDR      R0,[R4, #+612]
        LDR      R7,[R0, #+28]
//  679   if(phost->gState == HOST_CLASS)
        LDRB     R0,[R4, #+0]
        CMP      R0,#+10
        BNE.N    ??USBH_MSC_GetLUNInfo_0
//  680   {
//  681     USBH_memcpy(info,&MSC_Handle->unit[lun], sizeof(MSC_LUNTypeDef));
        MOVS     R8,#+52
        UXTB     R5,R5            ;; ZeroExt  R5,R5,#+24,#+24
        MOVS     R0,#+52
        MLA      R0,R0,R5,R7
        ADDS     R9,R0,#+144
        MOV      R2,R8
        MOV      R1,R9
        MOVS     R0,R6
          CFI FunCall __aeabi_memcpy
        BL       __aeabi_memcpy
//  682     return USBH_OK;
        MOVS     R0,#+0
        B.N      ??USBH_MSC_GetLUNInfo_1
//  683   }
//  684   else
//  685   {
//  686     return USBH_FAIL;
??USBH_MSC_GetLUNInfo_0:
        MOVS     R0,#+2
??USBH_MSC_GetLUNInfo_1:
        POP      {R1,R4-R9,PC}    ;; return
//  687   }
//  688 }
          CFI EndBlock cfiBlock9
//  689 
//  690 /**
//  691   * @brief  USBH_MSC_Read 
//  692   *         The function performs a Read operation 
//  693   * @param  phost: Host handle
//  694   * @param  lun: logical Unit Number
//  695   * @param  address: sector address
//  696   * @param  pbuf: pointer to data
//  697   * @param  length: number of sector to read
//  698   * @retval USBH Status
//  699   */

        SECTION `.text`:CODE:NOROOT(1)
          CFI Block cfiBlock10 Using cfiCommon0
          CFI Function USBH_MSC_Read
        THUMB
//  700 USBH_StatusTypeDef USBH_MSC_Read(USBH_HandleTypeDef *phost,
//  701                                      uint8_t lun,
//  702                                      uint32_t address,
//  703                                      uint8_t *pbuf,
//  704                                      uint32_t length)
//  705 {
USBH_MSC_Read:
        PUSH     {R4-R10,LR}
          CFI R14 Frame(CFA, -4)
          CFI R10 Frame(CFA, -8)
          CFI R9 Frame(CFA, -12)
          CFI R8 Frame(CFA, -16)
          CFI R7 Frame(CFA, -20)
          CFI R6 Frame(CFA, -24)
          CFI R5 Frame(CFA, -28)
          CFI R4 Frame(CFA, -32)
          CFI CFA R13+32
        SUB      SP,SP,#+8
          CFI CFA R13+40
        MOVS     R4,R0
        MOVS     R5,R1
        MOVS     R6,R2
        MOVS     R7,R3
        LDR      R8,[SP, #+40]
//  706   uint32_t timeout;
//  707   MSC_HandleTypeDef *MSC_Handle =  (MSC_HandleTypeDef *) phost->pActiveClass->pData;   
        LDR      R0,[R4, #+612]
        LDR      R10,[R0, #+28]
//  708   
//  709   if ((phost->device.is_connected == 0) || 
//  710       (phost->gState != HOST_CLASS) || 
//  711       (MSC_Handle->unit[lun].state != MSC_IDLE))
        LDRB     R0,[R4, #+542]
        CMP      R0,#+0
        BEQ.N    ??USBH_MSC_Read_0
        LDRB     R0,[R4, #+0]
        CMP      R0,#+10
        BNE.N    ??USBH_MSC_Read_0
        UXTB     R5,R5            ;; ZeroExt  R5,R5,#+24,#+24
        MOVS     R0,#+52
        MLA      R0,R0,R5,R10
        LDRB     R0,[R0, #+144]
        CMP      R0,#+1
        BEQ.N    ??USBH_MSC_Read_1
//  712   {
//  713     return  USBH_FAIL;
??USBH_MSC_Read_0:
        MOVS     R0,#+2
        B.N      ??USBH_MSC_Read_2
//  714   }
//  715   MSC_Handle->state = MSC_READ;
??USBH_MSC_Read_1:
        MOVS     R0,#+6
        STRB     R0,[R10, #+12]
//  716   MSC_Handle->unit[lun].state = MSC_READ;
        MOVS     R0,#+6
        UXTB     R5,R5            ;; ZeroExt  R5,R5,#+24,#+24
        MOVS     R1,#+52
        MLA      R1,R1,R5,R10
        STRB     R0,[R1, #+144]
//  717   MSC_Handle->rw_lun = lun;
        UXTB     R5,R5            ;; ZeroExt  R5,R5,#+24,#+24
        STRH     R5,[R10, #+250]
//  718   USBH_MSC_SCSI_Read(phost,
//  719                      lun,
//  720                      address,
//  721                      pbuf,
//  722                      length);
        STR      R8,[SP, #+0]
        MOVS     R3,R7
        MOVS     R2,R6
        MOVS     R1,R5
        UXTB     R1,R1            ;; ZeroExt  R1,R1,#+24,#+24
        MOVS     R0,R4
          CFI FunCall USBH_MSC_SCSI_Read
        BL       USBH_MSC_SCSI_Read
//  723   
//  724   timeout = phost->Timer;
        LDR      R0,[R4, #+680]
        MOV      R9,R0
//  725   
//  726   while (USBH_MSC_RdWrProcess(phost, lun) == USBH_BUSY)
??USBH_MSC_Read_3:
        MOVS     R1,R5
        UXTB     R1,R1            ;; ZeroExt  R1,R1,#+24,#+24
        MOVS     R0,R4
          CFI FunCall USBH_MSC_RdWrProcess
        BL       USBH_MSC_RdWrProcess
        CMP      R0,#+1
        BNE.N    ??USBH_MSC_Read_4
//  727   {
//  728     if(((phost->Timer - timeout) > (10000 * length)) || (phost->device.is_connected == 0))
        MOVW     R0,#+10000
        MUL      R0,R0,R8
        LDR      R1,[R4, #+680]
        SUBS     R1,R1,R9
        CMP      R0,R1
        BCC.N    ??USBH_MSC_Read_5
        LDRB     R0,[R4, #+542]
        CMP      R0,#+0
        BNE.N    ??USBH_MSC_Read_3
//  729     {
//  730       MSC_Handle->state = MSC_IDLE;
??USBH_MSC_Read_5:
        MOVS     R0,#+1
        STRB     R0,[R10, #+12]
//  731       return USBH_FAIL;
        MOVS     R0,#+2
        B.N      ??USBH_MSC_Read_2
//  732     }
//  733   }
//  734   MSC_Handle->state = MSC_IDLE;
??USBH_MSC_Read_4:
        MOVS     R0,#+1
        STRB     R0,[R10, #+12]
//  735   return USBH_OK;
        MOVS     R0,#+0
??USBH_MSC_Read_2:
        POP      {R1,R2,R4-R10,PC}  ;; return
//  736 }
          CFI EndBlock cfiBlock10
//  737 
//  738 /**
//  739   * @brief  USBH_MSC_Write 
//  740   *         The function performs a Write operation 
//  741   * @param  phost: Host handle
//  742   * @param  lun: logical Unit Number
//  743   * @param  address: sector address
//  744   * @param  pbuf: pointer to data
//  745   * @param  length: number of sector to write
//  746   * @retval USBH Status
//  747   */

        SECTION `.text`:CODE:NOROOT(1)
          CFI Block cfiBlock11 Using cfiCommon0
          CFI Function USBH_MSC_Write
        THUMB
//  748 USBH_StatusTypeDef USBH_MSC_Write(USBH_HandleTypeDef *phost,
//  749                                      uint8_t lun,
//  750                                      uint32_t address,
//  751                                      uint8_t *pbuf,
//  752                                      uint32_t length)
//  753 {
USBH_MSC_Write:
        PUSH     {R4-R10,LR}
          CFI R14 Frame(CFA, -4)
          CFI R10 Frame(CFA, -8)
          CFI R9 Frame(CFA, -12)
          CFI R8 Frame(CFA, -16)
          CFI R7 Frame(CFA, -20)
          CFI R6 Frame(CFA, -24)
          CFI R5 Frame(CFA, -28)
          CFI R4 Frame(CFA, -32)
          CFI CFA R13+32
        SUB      SP,SP,#+8
          CFI CFA R13+40
        MOVS     R4,R0
        MOVS     R5,R1
        MOVS     R6,R2
        MOVS     R7,R3
        LDR      R8,[SP, #+40]
//  754   uint32_t timeout;
//  755   MSC_HandleTypeDef *MSC_Handle =  (MSC_HandleTypeDef *) phost->pActiveClass->pData;   
        LDR      R0,[R4, #+612]
        LDR      R10,[R0, #+28]
//  756   
//  757   if ((phost->device.is_connected == 0) || 
//  758       (phost->gState != HOST_CLASS) || 
//  759       (MSC_Handle->unit[lun].state != MSC_IDLE))
        LDRB     R0,[R4, #+542]
        CMP      R0,#+0
        BEQ.N    ??USBH_MSC_Write_0
        LDRB     R0,[R4, #+0]
        CMP      R0,#+10
        BNE.N    ??USBH_MSC_Write_0
        UXTB     R5,R5            ;; ZeroExt  R5,R5,#+24,#+24
        MOVS     R0,#+52
        MLA      R0,R0,R5,R10
        LDRB     R0,[R0, #+144]
        CMP      R0,#+1
        BEQ.N    ??USBH_MSC_Write_1
//  760   {
//  761     return  USBH_FAIL;
??USBH_MSC_Write_0:
        MOVS     R0,#+2
        B.N      ??USBH_MSC_Write_2
//  762   }
//  763   MSC_Handle->state = MSC_WRITE;
??USBH_MSC_Write_1:
        MOVS     R0,#+7
        STRB     R0,[R10, #+12]
//  764   MSC_Handle->unit[lun].state = MSC_WRITE;
        MOVS     R0,#+7
        UXTB     R5,R5            ;; ZeroExt  R5,R5,#+24,#+24
        MOVS     R1,#+52
        MLA      R1,R1,R5,R10
        STRB     R0,[R1, #+144]
//  765   MSC_Handle->rw_lun = lun;
        UXTB     R5,R5            ;; ZeroExt  R5,R5,#+24,#+24
        STRH     R5,[R10, #+250]
//  766   USBH_MSC_SCSI_Write(phost,
//  767                      lun,
//  768                      address,
//  769                      pbuf,
//  770                      length);
        STR      R8,[SP, #+0]
        MOVS     R3,R7
        MOVS     R2,R6
        MOVS     R1,R5
        UXTB     R1,R1            ;; ZeroExt  R1,R1,#+24,#+24
        MOVS     R0,R4
          CFI FunCall USBH_MSC_SCSI_Write
        BL       USBH_MSC_SCSI_Write
//  771   
//  772   timeout = phost->Timer;
        LDR      R0,[R4, #+680]
        MOV      R9,R0
//  773   while (USBH_MSC_RdWrProcess(phost, lun) == USBH_BUSY)
??USBH_MSC_Write_3:
        MOVS     R1,R5
        UXTB     R1,R1            ;; ZeroExt  R1,R1,#+24,#+24
        MOVS     R0,R4
          CFI FunCall USBH_MSC_RdWrProcess
        BL       USBH_MSC_RdWrProcess
        CMP      R0,#+1
        BNE.N    ??USBH_MSC_Write_4
//  774   {
//  775     if(((phost->Timer - timeout) >  (10000 * length)) || (phost->device.is_connected == 0))
        MOVW     R0,#+10000
        MUL      R0,R0,R8
        LDR      R1,[R4, #+680]
        SUBS     R1,R1,R9
        CMP      R0,R1
        BCC.N    ??USBH_MSC_Write_5
        LDRB     R0,[R4, #+542]
        CMP      R0,#+0
        BNE.N    ??USBH_MSC_Write_3
//  776     {
//  777       MSC_Handle->state = MSC_IDLE;
??USBH_MSC_Write_5:
        MOVS     R0,#+1
        STRB     R0,[R10, #+12]
//  778       return USBH_FAIL;
        MOVS     R0,#+2
        B.N      ??USBH_MSC_Write_2
//  779     }
//  780   }
//  781   MSC_Handle->state = MSC_IDLE;
??USBH_MSC_Write_4:
        MOVS     R0,#+1
        STRB     R0,[R10, #+12]
//  782   return USBH_OK;
        MOVS     R0,#+0
??USBH_MSC_Write_2:
        POP      {R1,R2,R4-R10,PC}  ;; return
//  783 }
          CFI EndBlock cfiBlock11

        SECTION `.iar_vfe_header`:DATA:NOALLOC:NOROOT(2)
        SECTION_TYPE SHT_PROGBITS, 0
        DATA
        DC32 0

        SECTION __DLIB_PERTHREAD:DATA:REORDER:NOROOT(0)
        SECTION_TYPE SHT_PROGBITS, 0

        SECTION __DLIB_PERTHREAD_init:DATA:REORDER:NOROOT(0)
        SECTION_TYPE SHT_PROGBITS, 0

        SECTION `.rodata`:CONST:REORDER:NOROOT(2)
        DATA
?_0:
        DC8 "MSC"

        SECTION `.rodata`:CONST:REORDER:NOROOT(2)
        DATA
?_1:
        DC8 "Number of supported LUN: %lu"
        DC8 0, 0, 0

        SECTION `.rodata`:CONST:REORDER:NOROOT(1)
        DATA
        DC8 "\012"

        SECTION `.rodata`:CONST:REORDER:NOROOT(2)
        DATA
?_3:
        DC8 "LUN #%d: "
        DC8 0, 0

        SECTION `.rodata`:CONST:REORDER:NOROOT(2)
        DATA
?_4:
        DC8 "Inquiry Vendor  : %s"
        DC8 0, 0, 0

        SECTION `.rodata`:CONST:REORDER:NOROOT(2)
        DATA
?_5:
        DC8 "Inquiry Product : %s"
        DC8 0, 0, 0

        SECTION `.rodata`:CONST:REORDER:NOROOT(2)
        DATA
?_6:
        DC8 "Inquiry Version : %s"
        DC8 0, 0, 0

        SECTION `.rodata`:CONST:REORDER:NOROOT(2)
        DATA
?_7:
        DC8 "MSC Device ready"
        DC8 0, 0, 0

        SECTION `.rodata`:CONST:REORDER:NOROOT(2)
        DATA
?_8:
        DC8 "MSC Device NOT ready"
        DC8 0, 0, 0

        SECTION `.rodata`:CONST:REORDER:NOROOT(2)
        DATA
?_9:
        DC8 "MSC Device capacity : %lu Bytes"

        SECTION `.rodata`:CONST:REORDER:NOROOT(2)
        DATA
?_10:
        DC8 "Block number : %lu"
        DC8 0

        SECTION `.rodata`:CONST:REORDER:NOROOT(2)
        DATA
?_11:
        DC8 "Block Size   : %lu"
        DC8 0

        SECTION `.rodata`:CONST:REORDER:NOROOT(2)
        DATA
?_12:
        DC8 "Sense Key  : %x"

        SECTION `.rodata`:CONST:REORDER:NOROOT(2)
        DATA
?_13:
        DC8 "Additional Sense Code : %x"
        DC8 0

        SECTION `.rodata`:CONST:REORDER:NOROOT(2)
        DATA
?_14:
        DC8 "Additional Sense Code Qualifier: %x"

        END
//  784 
//  785 /**
//  786   * @}
//  787   */ 
//  788 
//  789 /**
//  790   * @}
//  791   */ 
//  792 
//  793 /**
//  794   * @}
//  795   */
//  796 
//  797 /**
//  798   * @}
//  799   */ 
//  800 
//  801 /**
//  802   * @}
//  803   */
//  804 
//  805 /************************ (C) COPYRIGHT STMicroelectronics *****END OF FILE****/
// 
//    32 bytes in section .data
//   318 bytes in section .rodata
// 2 952 bytes in section .text
// 
// 2 952 bytes of CODE  memory
//   318 bytes of CONST memory
//    32 bytes of DATA  memory
//
//Errors: none
//Warnings: none
